
tanwaR4S.elf:     file format elf32-littlearm

Sections:
Idx Name          Size      VMA       LMA       File off  Algn
  0 .isr_vector   0000010c  08000000  08000000  00010000  2**0
                  CONTENTS, ALLOC, LOAD, READONLY, DATA
  1 .text         00002a4c  08000110  08000110  00010110  2**3
                  CONTENTS, ALLOC, LOAD, READONLY, CODE
  2 .rodata       00000094  08002b5c  08002b5c  00012b5c  2**2
                  CONTENTS, ALLOC, LOAD, READONLY, DATA
  3 .ARM.extab    00000000  08002bf0  08002bf0  00020070  2**0
                  CONTENTS
  4 .ARM          00000000  08002bf0  08002bf0  00020070  2**0
                  CONTENTS
  5 .preinit_array 00000000  08002bf0  08002bf0  00020070  2**0
                  CONTENTS, ALLOC, LOAD, DATA
  6 .init_array   00000004  08002bf0  08002bf0  00012bf0  2**2
                  CONTENTS, ALLOC, LOAD, DATA
  7 .fini_array   00000004  08002bf4  08002bf4  00012bf4  2**2
                  CONTENTS, ALLOC, LOAD, DATA
  8 .data         00000070  20000000  08002bf8  00020000  2**2
                  CONTENTS, ALLOC, LOAD, DATA
  9 .bss          000004f4  20000070  08002c68  00020070  2**2
                  ALLOC
 10 ._user_heap_stack 00000604  20000564  08002c68  00020564  2**0
                  ALLOC
 11 .ARM.attributes 00000029  00000000  00000000  00020070  2**0
                  CONTENTS, READONLY
 12 .debug_info   00010154  00000000  00000000  00020099  2**0
                  CONTENTS, READONLY, DEBUGGING, OCTETS
 13 .debug_abbrev 00002e76  00000000  00000000  000301ed  2**0
                  CONTENTS, READONLY, DEBUGGING, OCTETS
 14 .debug_aranges 00000930  00000000  00000000  00033068  2**3
                  CONTENTS, READONLY, DEBUGGING, OCTETS
 15 .debug_ranges 00000c80  00000000  00000000  00033998  2**3
                  CONTENTS, READONLY, DEBUGGING, OCTETS
 16 .debug_macro  00005d5a  00000000  00000000  00034618  2**0
                  CONTENTS, READONLY, DEBUGGING, OCTETS
 17 .debug_line   0000f954  00000000  00000000  0003a372  2**0
                  CONTENTS, READONLY, DEBUGGING, OCTETS
 18 .debug_str    0008a55a  00000000  00000000  00049cc6  2**0
                  CONTENTS, READONLY, DEBUGGING, OCTETS
 19 .comment      00000053  00000000  00000000  000d4220  2**0
                  CONTENTS, READONLY
 20 .debug_frame  00001b0c  00000000  00000000  000d4274  2**2
                  CONTENTS, READONLY, DEBUGGING, OCTETS
 21 .debug_loc    000076cd  00000000  00000000  000d5d80  2**0
                  CONTENTS, READONLY, DEBUGGING, OCTETS

Disassembly of section .text:

08000110 <__do_global_dtors_aux>:
 8000110:	b510      	push	{r4, lr}
 8000112:	4c05      	ldr	r4, [pc, #20]	; (8000128 <__do_global_dtors_aux+0x18>)
 8000114:	7823      	ldrb	r3, [r4, #0]
 8000116:	b933      	cbnz	r3, 8000126 <__do_global_dtors_aux+0x16>
 8000118:	4b04      	ldr	r3, [pc, #16]	; (800012c <__do_global_dtors_aux+0x1c>)
 800011a:	b113      	cbz	r3, 8000122 <__do_global_dtors_aux+0x12>
 800011c:	4804      	ldr	r0, [pc, #16]	; (8000130 <__do_global_dtors_aux+0x20>)
 800011e:	f3af 8000 	nop.w
 8000122:	2301      	movs	r3, #1
 8000124:	7023      	strb	r3, [r4, #0]
 8000126:	bd10      	pop	{r4, pc}
 8000128:	20000070 	.word	0x20000070
 800012c:	00000000 	.word	0x00000000
 8000130:	08002b44 	.word	0x08002b44

08000134 <frame_dummy>:
 8000134:	b508      	push	{r3, lr}
 8000136:	4b03      	ldr	r3, [pc, #12]	; (8000144 <frame_dummy+0x10>)
 8000138:	b11b      	cbz	r3, 8000142 <frame_dummy+0xe>
 800013a:	4903      	ldr	r1, [pc, #12]	; (8000148 <frame_dummy+0x14>)
 800013c:	4803      	ldr	r0, [pc, #12]	; (800014c <frame_dummy+0x18>)
 800013e:	f3af 8000 	nop.w
 8000142:	bd08      	pop	{r3, pc}
 8000144:	00000000 	.word	0x00000000
 8000148:	20000074 	.word	0x20000074
 800014c:	08002b44 	.word	0x08002b44

08000150 <strlen>:
 8000150:	4603      	mov	r3, r0
 8000152:	f813 2b01 	ldrb.w	r2, [r3], #1
 8000156:	2a00      	cmp	r2, #0
 8000158:	d1fb      	bne.n	8000152 <strlen+0x2>
 800015a:	1a18      	subs	r0, r3, r0
 800015c:	3801      	subs	r0, #1
 800015e:	4770      	bx	lr

08000160 <_ZN7IgniterC1EP12GPIO_TypeDeftS1_t>:
#include <Igniter.hh>

//(names of args start with '_' sign)
Igniter::Igniter(GPIO_TypeDef* _GPIO_PORT_IGNITER, uint16_t _PIN_IGNITER, GPIO_TypeDef* _IGN_GPIO_PORT_TEST_CON, uint16_t _IGN_PIN_TEST_CON){
 8000160:	b480      	push	{r7}
 8000162:	b085      	sub	sp, #20
 8000164:	af00      	add	r7, sp, #0
 8000166:	60f8      	str	r0, [r7, #12]
 8000168:	60b9      	str	r1, [r7, #8]
 800016a:	603b      	str	r3, [r7, #0]
 800016c:	4613      	mov	r3, r2
 800016e:	80fb      	strh	r3, [r7, #6]
	GPIO_PORT_IGNITER = _GPIO_PORT_IGNITER;
 8000170:	68fb      	ldr	r3, [r7, #12]
 8000172:	68ba      	ldr	r2, [r7, #8]
 8000174:	601a      	str	r2, [r3, #0]
	PIN_IGNITER = _PIN_IGNITER;
 8000176:	68fb      	ldr	r3, [r7, #12]
 8000178:	88fa      	ldrh	r2, [r7, #6]
 800017a:	809a      	strh	r2, [r3, #4]
	GPIO_PORT_TEST_CON = _IGN_GPIO_PORT_TEST_CON;
 800017c:	68fb      	ldr	r3, [r7, #12]
 800017e:	683a      	ldr	r2, [r7, #0]
 8000180:	609a      	str	r2, [r3, #8]
	PIN_TEST_CON = _IGN_PIN_TEST_CON;
 8000182:	68fb      	ldr	r3, [r7, #12]
 8000184:	8b3a      	ldrh	r2, [r7, #24]
 8000186:	819a      	strh	r2, [r3, #12]
}
 8000188:	68fb      	ldr	r3, [r7, #12]
 800018a:	4618      	mov	r0, r3
 800018c:	3714      	adds	r7, #20
 800018e:	46bd      	mov	sp, r7
 8000190:	bc80      	pop	{r7}
 8000192:	4770      	bx	lr

08000194 <_ZNK7Igniter12is_connectedEv>:

bool Igniter::is_connected() const{
 8000194:	b580      	push	{r7, lr}
 8000196:	b082      	sub	sp, #8
 8000198:	af00      	add	r7, sp, #0
 800019a:	6078      	str	r0, [r7, #4]
	if(HAL_GPIO_ReadPin(GPIO_PORT_TEST_CON, PIN_TEST_CON) == GPIO_PIN_SET)
 800019c:	687b      	ldr	r3, [r7, #4]
 800019e:	689a      	ldr	r2, [r3, #8]
 80001a0:	687b      	ldr	r3, [r7, #4]
 80001a2:	899b      	ldrh	r3, [r3, #12]
 80001a4:	4619      	mov	r1, r3
 80001a6:	4610      	mov	r0, r2
 80001a8:	f001 f8a0 	bl	80012ec <HAL_GPIO_ReadPin>
 80001ac:	4603      	mov	r3, r0
 80001ae:	2b01      	cmp	r3, #1
 80001b0:	bf0c      	ite	eq
 80001b2:	2301      	moveq	r3, #1
 80001b4:	2300      	movne	r3, #0
 80001b6:	b2db      	uxtb	r3, r3
 80001b8:	2b00      	cmp	r3, #0
 80001ba:	d001      	beq.n	80001c0 <_ZNK7Igniter12is_connectedEv+0x2c>
		return 1;
 80001bc:	2301      	movs	r3, #1
 80001be:	e000      	b.n	80001c2 <_ZNK7Igniter12is_connectedEv+0x2e>
	else
		return 0;
 80001c0:	2300      	movs	r3, #0
}
 80001c2:	4618      	mov	r0, r3
 80001c4:	3708      	adds	r7, #8
 80001c6:	46bd      	mov	sp, r7
 80001c8:	bd80      	pop	{r7, pc}

080001ca <_ZN7Igniter4FIREEv>:

void Igniter::FIRE(){
 80001ca:	b580      	push	{r7, lr}
 80001cc:	b082      	sub	sp, #8
 80001ce:	af00      	add	r7, sp, #0
 80001d0:	6078      	str	r0, [r7, #4]
	HAL_GPIO_WritePin(GPIO_PORT_IGNITER, PIN_IGNITER, GPIO_PIN_SET);
 80001d2:	687b      	ldr	r3, [r7, #4]
 80001d4:	6818      	ldr	r0, [r3, #0]
 80001d6:	687b      	ldr	r3, [r7, #4]
 80001d8:	889b      	ldrh	r3, [r3, #4]
 80001da:	2201      	movs	r2, #1
 80001dc:	4619      	mov	r1, r3
 80001de:	f001 f88b 	bl	80012f8 <HAL_GPIO_WritePin>
}
 80001e2:	bf00      	nop
 80001e4:	3708      	adds	r7, #8
 80001e6:	46bd      	mov	sp, r7
 80001e8:	bd80      	pop	{r7, pc}
	...

080001ec <MX_GPIO_Init>:
        * Output
        * EVENT_OUT
        * EXTI
*/
void MX_GPIO_Init(void)
{
 80001ec:	e92d 41f0 	stmdb	sp!, {r4, r5, r6, r7, r8, lr}
 80001f0:	b088      	sub	sp, #32

  GPIO_InitTypeDef GPIO_InitStruct = {0};
 80001f2:	2400      	movs	r4, #0
 80001f4:	9404      	str	r4, [sp, #16]
 80001f6:	9405      	str	r4, [sp, #20]
 80001f8:	9406      	str	r4, [sp, #24]
 80001fa:	9407      	str	r4, [sp, #28]

  /* GPIO Ports Clock Enable */
  __HAL_RCC_GPIOC_CLK_ENABLE();
 80001fc:	4b2b      	ldr	r3, [pc, #172]	; (80002ac <MX_GPIO_Init+0xc0>)
 80001fe:	699a      	ldr	r2, [r3, #24]
 8000200:	f042 0210 	orr.w	r2, r2, #16
 8000204:	619a      	str	r2, [r3, #24]
 8000206:	699a      	ldr	r2, [r3, #24]
 8000208:	f002 0210 	and.w	r2, r2, #16
 800020c:	9200      	str	r2, [sp, #0]
 800020e:	9a00      	ldr	r2, [sp, #0]
  __HAL_RCC_GPIOD_CLK_ENABLE();
 8000210:	699a      	ldr	r2, [r3, #24]
 8000212:	f042 0220 	orr.w	r2, r2, #32
 8000216:	619a      	str	r2, [r3, #24]
 8000218:	699a      	ldr	r2, [r3, #24]
 800021a:	f002 0220 	and.w	r2, r2, #32
 800021e:	9201      	str	r2, [sp, #4]
 8000220:	9a01      	ldr	r2, [sp, #4]
  __HAL_RCC_GPIOA_CLK_ENABLE();
 8000222:	699a      	ldr	r2, [r3, #24]
 8000224:	f042 0204 	orr.w	r2, r2, #4
 8000228:	619a      	str	r2, [r3, #24]
 800022a:	699a      	ldr	r2, [r3, #24]
 800022c:	f002 0204 	and.w	r2, r2, #4
 8000230:	9202      	str	r2, [sp, #8]
 8000232:	9a02      	ldr	r2, [sp, #8]
  __HAL_RCC_GPIOB_CLK_ENABLE();
 8000234:	699a      	ldr	r2, [r3, #24]
 8000236:	f042 0208 	orr.w	r2, r2, #8
 800023a:	619a      	str	r2, [r3, #24]
 800023c:	699b      	ldr	r3, [r3, #24]
 800023e:	f003 0308 	and.w	r3, r3, #8
 8000242:	9303      	str	r3, [sp, #12]
 8000244:	9b03      	ldr	r3, [sp, #12]

  /*Configure GPIO pin Output Level */
  HAL_GPIO_WritePin(BUILD_IN_LED_GPIO_Port, BUILD_IN_LED_Pin, GPIO_PIN_RESET);
 8000246:	4d1a      	ldr	r5, [pc, #104]	; (80002b0 <MX_GPIO_Init+0xc4>)
 8000248:	4622      	mov	r2, r4
 800024a:	f44f 5100 	mov.w	r1, #8192	; 0x2000
 800024e:	4628      	mov	r0, r5
 8000250:	f001 f852 	bl	80012f8 <HAL_GPIO_WritePin>

  /*Configure GPIO pin Output Level */
  HAL_GPIO_WritePin(IGN_FIRE_GPIO_Port, IGN_FIRE_Pin, GPIO_PIN_RESET);
 8000254:	4e17      	ldr	r6, [pc, #92]	; (80002b4 <MX_GPIO_Init+0xc8>)
 8000256:	4622      	mov	r2, r4
 8000258:	f44f 6180 	mov.w	r1, #1024	; 0x400
 800025c:	4630      	mov	r0, r6
 800025e:	f001 f84b 	bl	80012f8 <HAL_GPIO_WritePin>

  /*Configure GPIO pin : PtPin */
  GPIO_InitStruct.Pin = BUILD_IN_LED_Pin;
 8000262:	f44f 5300 	mov.w	r3, #8192	; 0x2000
 8000266:	9304      	str	r3, [sp, #16]
  GPIO_InitStruct.Mode = GPIO_MODE_OUTPUT_PP;
 8000268:	f04f 0801 	mov.w	r8, #1
 800026c:	f8cd 8014 	str.w	r8, [sp, #20]
  GPIO_InitStruct.Pull = GPIO_NOPULL;
 8000270:	9406      	str	r4, [sp, #24]
  GPIO_InitStruct.Speed = GPIO_SPEED_FREQ_LOW;
 8000272:	2702      	movs	r7, #2
 8000274:	9707      	str	r7, [sp, #28]
  HAL_GPIO_Init(BUILD_IN_LED_GPIO_Port, &GPIO_InitStruct);
 8000276:	a904      	add	r1, sp, #16
 8000278:	4628      	mov	r0, r5
 800027a:	f000 ff27 	bl	80010cc <HAL_GPIO_Init>

  /*Configure GPIO pin : PtPin */
  GPIO_InitStruct.Pin = IGN_TEST_CON_Pin;
 800027e:	f44f 4300 	mov.w	r3, #32768	; 0x8000
 8000282:	9304      	str	r3, [sp, #16]
  GPIO_InitStruct.Mode = GPIO_MODE_INPUT;
 8000284:	9405      	str	r4, [sp, #20]
  GPIO_InitStruct.Pull = GPIO_NOPULL;
 8000286:	9406      	str	r4, [sp, #24]
  HAL_GPIO_Init(IGN_TEST_CON_GPIO_Port, &GPIO_InitStruct);
 8000288:	a904      	add	r1, sp, #16
 800028a:	4628      	mov	r0, r5
 800028c:	f000 ff1e 	bl	80010cc <HAL_GPIO_Init>

  /*Configure GPIO pin : PtPin */
  GPIO_InitStruct.Pin = IGN_FIRE_Pin;
 8000290:	f44f 6380 	mov.w	r3, #1024	; 0x400
 8000294:	9304      	str	r3, [sp, #16]
  GPIO_InitStruct.Mode = GPIO_MODE_OUTPUT_PP;
 8000296:	f8cd 8014 	str.w	r8, [sp, #20]
  GPIO_InitStruct.Pull = GPIO_NOPULL;
 800029a:	9406      	str	r4, [sp, #24]
  GPIO_InitStruct.Speed = GPIO_SPEED_FREQ_LOW;
 800029c:	9707      	str	r7, [sp, #28]
  HAL_GPIO_Init(IGN_FIRE_GPIO_Port, &GPIO_InitStruct);
 800029e:	a904      	add	r1, sp, #16
 80002a0:	4630      	mov	r0, r6
 80002a2:	f000 ff13 	bl	80010cc <HAL_GPIO_Init>

}
 80002a6:	b008      	add	sp, #32
 80002a8:	e8bd 81f0 	ldmia.w	sp!, {r4, r5, r6, r7, r8, pc}
 80002ac:	40021000 	.word	0x40021000
 80002b0:	40011000 	.word	0x40011000
 80002b4:	40010800 	.word	0x40010800

080002b8 <main>:
/**
  * @brief  The application entry point.
  * @retval int
  */
int main(void)
{
 80002b8:	b5f0      	push	{r4, r5, r6, r7, lr}
 80002ba:	b08b      	sub	sp, #44	; 0x2c
 80002bc:	af06      	add	r7, sp, #24
  /* USER CODE END 1 */

  /* MCU Configuration--------------------------------------------------------*/

  /* Reset of all peripherals, Initializes the Flash interface and the Systick. */
  HAL_Init();
 80002be:	f000 fcd9 	bl	8000c74 <HAL_Init>
  /* USER CODE BEGIN Init */

  /* USER CODE END Init */

  /* Configure the system clock */
  SystemClock_Config();
 80002c2:	f000 f915 	bl	80004f0 <_Z18SystemClock_Configv>
  /* USER CODE BEGIN SysInit */

  /* USER CODE END SysInit */

  /* Initialize all configured peripherals */
  MX_GPIO_Init();
 80002c6:	f7ff ff91 	bl	80001ec <MX_GPIO_Init>
  MX_USART2_UART_Init();
 80002ca:	f000 fa19 	bl	8000700 <MX_USART2_UART_Init>
  MX_USB_PCD_Init();
 80002ce:	f000 fafb 	bl	80008c8 <MX_USB_PCD_Init>
  MX_USART3_UART_Init();
 80002d2:	f000 fa2f 	bl	8000734 <MX_USART3_UART_Init>
  /* USER CODE END 2 */

  /* Infinite loop */
  /* USER CODE BEGIN WHILE */

  __HAL_UART_ENABLE_IT(&huart2, UART_IT_IDLE);
 80002d6:	4b76      	ldr	r3, [pc, #472]	; (80004b0 <main+0x1f8>)
 80002d8:	681b      	ldr	r3, [r3, #0]
 80002da:	68da      	ldr	r2, [r3, #12]
 80002dc:	4b74      	ldr	r3, [pc, #464]	; (80004b0 <main+0x1f8>)
 80002de:	681b      	ldr	r3, [r3, #0]
 80002e0:	f042 0210 	orr.w	r2, r2, #16
 80002e4:	60da      	str	r2, [r3, #12]
  HAL_UART_Receive_DMA(&huart2, (uint8_t*) xbee_rx.mess_loaded, DATA_LENGTH);
 80002e6:	2232      	movs	r2, #50	; 0x32
 80002e8:	4972      	ldr	r1, [pc, #456]	; (80004b4 <main+0x1fc>)
 80002ea:	4871      	ldr	r0, [pc, #452]	; (80004b0 <main+0x1f8>)
 80002ec:	f001 fd6c 	bl	8001dc8 <HAL_UART_Receive_DMA>
  xbee_init(&communication, 0x0013A20041C283E5, &huart2); //inicjalizacja modułu xbee
 80002f0:	4b6f      	ldr	r3, [pc, #444]	; (80004b0 <main+0x1f8>)
 80002f2:	9300      	str	r3, [sp, #0]
 80002f4:	a36c      	add	r3, pc, #432	; (adr r3, 80004a8 <main+0x1f0>)
 80002f6:	e9d3 2300 	ldrd	r2, r3, [r3]
 80002fa:	486f      	ldr	r0, [pc, #444]	; (80004b8 <main+0x200>)
 80002fc:	f000 fb1f 	bl	800093e <xbee_init>
  __HAL_UART_ENABLE_IT(&huart2, UART_IT_RXNE);
 8000300:	4b6b      	ldr	r3, [pc, #428]	; (80004b0 <main+0x1f8>)
 8000302:	681b      	ldr	r3, [r3, #0]
 8000304:	68da      	ldr	r2, [r3, #12]
 8000306:	4b6a      	ldr	r3, [pc, #424]	; (80004b0 <main+0x1f8>)
 8000308:	681b      	ldr	r3, [r3, #0]
 800030a:	f042 0220 	orr.w	r2, r2, #32
 800030e:	60da      	str	r2, [r3, #12]

///ADDED FOR BLUETOOTH///
 // HAL_GPIO_WritePin(Bluetooth_reset_GPIO_Port, Bluetooth_reset_Pin, SET);//ADDITIONAL PIN PC14 FOR RESET //
  HAL_Delay(1000);
 8000310:	f44f 707a 	mov.w	r0, #1000	; 0x3e8
 8000314:	f000 fcd2 	bl	8000cbc <HAL_Delay>
  /* USER CODE END 2 */

  /* USER CODE BEGIN WHILE */

  // INIT
  Igniter igniter(IGN_FIRE_GPIO_Port, IGN_FIRE_Pin, IGN_TEST_CON_GPIO_Port, IGN_TEST_CON_Pin);
 8000318:	4638      	mov	r0, r7
 800031a:	f44f 4300 	mov.w	r3, #32768	; 0x8000
 800031e:	9300      	str	r3, [sp, #0]
 8000320:	4b66      	ldr	r3, [pc, #408]	; (80004bc <main+0x204>)
 8000322:	f44f 6280 	mov.w	r2, #1024	; 0x400
 8000326:	4966      	ldr	r1, [pc, #408]	; (80004c0 <main+0x208>)
 8000328:	f7ff ff1a 	bl	8000160 <_ZN7IgniterC1EP12GPIO_TypeDeftS1_t>

  state = 0; //touch only for tests
 800032c:	4b65      	ldr	r3, [pc, #404]	; (80004c4 <main+0x20c>)
 800032e:	2200      	movs	r2, #0
 8000330:	701a      	strb	r2, [r3, #0]
  while (1)
  {
	  sprintf(dataOut,"D;S%i;I%i;F%i;", state, igniter.is_connected(), fired);
 8000332:	4b64      	ldr	r3, [pc, #400]	; (80004c4 <main+0x20c>)
 8000334:	781b      	ldrb	r3, [r3, #0]
 8000336:	461c      	mov	r4, r3
 8000338:	463b      	mov	r3, r7
 800033a:	4618      	mov	r0, r3
 800033c:	f7ff ff2a 	bl	8000194 <_ZNK7Igniter12is_connectedEv>
 8000340:	4603      	mov	r3, r0
 8000342:	461a      	mov	r2, r3
 8000344:	4b60      	ldr	r3, [pc, #384]	; (80004c8 <main+0x210>)
 8000346:	781b      	ldrb	r3, [r3, #0]
 8000348:	9300      	str	r3, [sp, #0]
 800034a:	4613      	mov	r3, r2
 800034c:	4622      	mov	r2, r4
 800034e:	495f      	ldr	r1, [pc, #380]	; (80004cc <main+0x214>)
 8000350:	485f      	ldr	r0, [pc, #380]	; (80004d0 <main+0x218>)
 8000352:	f002 f84b 	bl	80023ec <siprintf>
	  xbee_transmit_char(communication, dataOut);
 8000356:	4e58      	ldr	r6, [pc, #352]	; (80004b8 <main+0x200>)
 8000358:	4b5d      	ldr	r3, [pc, #372]	; (80004d0 <main+0x218>)
 800035a:	9305      	str	r3, [sp, #20]
 800035c:	466d      	mov	r5, sp
 800035e:	f106 0410 	add.w	r4, r6, #16
 8000362:	cc0f      	ldmia	r4!, {r0, r1, r2, r3}
 8000364:	c50f      	stmia	r5!, {r0, r1, r2, r3}
 8000366:	6823      	ldr	r3, [r4, #0]
 8000368:	602b      	str	r3, [r5, #0]
 800036a:	e896 000f 	ldmia.w	r6, {r0, r1, r2, r3}
 800036e:	f000 fbac 	bl	8000aca <xbee_transmit_char>
	  HAL_Delay(50);
 8000372:	2032      	movs	r0, #50	; 0x32
 8000374:	f000 fca2 	bl	8000cbc <HAL_Delay>
	  switch(state){
 8000378:	4b52      	ldr	r3, [pc, #328]	; (80004c4 <main+0x20c>)
 800037a:	781b      	ldrb	r3, [r3, #0]
 800037c:	2b05      	cmp	r3, #5
 800037e:	d8d8      	bhi.n	8000332 <main+0x7a>
 8000380:	a201      	add	r2, pc, #4	; (adr r2, 8000388 <main+0xd0>)
 8000382:	f852 f023 	ldr.w	pc, [r2, r3, lsl #2]
 8000386:	bf00      	nop
 8000388:	080003a1 	.word	0x080003a1
 800038c:	080003d1 	.word	0x080003d1
 8000390:	080003f1 	.word	0x080003f1
 8000394:	08000429 	.word	0x08000429
 8000398:	08000493 	.word	0x08000493
 800039c:	0800049d 	.word	0x0800049d
		  case 0: //test state
			  if(igniter.is_connected()){
 80003a0:	463b      	mov	r3, r7
 80003a2:	4618      	mov	r0, r3
 80003a4:	f7ff fef6 	bl	8000194 <_ZNK7Igniter12is_connectedEv>
 80003a8:	4603      	mov	r3, r0
 80003aa:	2b00      	cmp	r3, #0
 80003ac:	d004      	beq.n	80003b8 <main+0x100>
   				  HAL_GPIO_TogglePin(BUILD_IN_LED_GPIO_Port, BUILD_IN_LED_Pin);
 80003ae:	f44f 5100 	mov.w	r1, #8192	; 0x2000
 80003b2:	4842      	ldr	r0, [pc, #264]	; (80004bc <main+0x204>)
 80003b4:	f000 ffa6 	bl	8001304 <HAL_GPIO_TogglePin>
   			  }
   			  //place for random tests
   			  HAL_Delay(1000);
 80003b8:	f44f 707a 	mov.w	r0, #1000	; 0x3e8
 80003bc:	f000 fc7e 	bl	8000cbc <HAL_Delay>
   			  //state = 1;
   			  strcpy(dataIn, "DINI");	//xd
 80003c0:	4b44      	ldr	r3, [pc, #272]	; (80004d4 <main+0x21c>)
 80003c2:	4a45      	ldr	r2, [pc, #276]	; (80004d8 <main+0x220>)
 80003c4:	e892 0003 	ldmia.w	r2, {r0, r1}
 80003c8:	6018      	str	r0, [r3, #0]
 80003ca:	3304      	adds	r3, #4
 80003cc:	7019      	strb	r1, [r3, #0]
   			  break;
 80003ce:	e069      	b.n	80004a4 <main+0x1ec>
   		  case 1:{	//IDLE
   			  if(strncmp(dataIn, "DINI", 4) == 0){ // signal == init
 80003d0:	2204      	movs	r2, #4
 80003d2:	4941      	ldr	r1, [pc, #260]	; (80004d8 <main+0x220>)
 80003d4:	483f      	ldr	r0, [pc, #252]	; (80004d4 <main+0x21c>)
 80003d6:	f002 f831 	bl	800243c <strncmp>
 80003da:	4603      	mov	r3, r0
 80003dc:	2b00      	cmp	r3, #0
 80003de:	d102      	bne.n	80003e6 <main+0x12e>
   				  state = 2;
 80003e0:	4b38      	ldr	r3, [pc, #224]	; (80004c4 <main+0x20c>)
 80003e2:	2202      	movs	r2, #2
 80003e4:	701a      	strb	r2, [r3, #0]
   			  }
   			  HAL_Delay(5000);
 80003e6:	f241 3088 	movw	r0, #5000	; 0x1388
 80003ea:	f000 fc67 	bl	8000cbc <HAL_Delay>
   			  break;
 80003ee:	e059      	b.n	80004a4 <main+0x1ec>
   		  }
   		  case 2:{	//ARMED(hard) DABR
   			  if(igniter.is_connected() && strncmp(dataIn, "DARM", 4) == 0){ // signal == arm
 80003f0:	463b      	mov	r3, r7
 80003f2:	4618      	mov	r0, r3
 80003f4:	f7ff fece 	bl	8000194 <_ZNK7Igniter12is_connectedEv>
 80003f8:	4603      	mov	r3, r0
 80003fa:	2b00      	cmp	r3, #0
 80003fc:	d009      	beq.n	8000412 <main+0x15a>
 80003fe:	2204      	movs	r2, #4
 8000400:	4936      	ldr	r1, [pc, #216]	; (80004dc <main+0x224>)
 8000402:	4834      	ldr	r0, [pc, #208]	; (80004d4 <main+0x21c>)
 8000404:	f002 f81a 	bl	800243c <strncmp>
 8000408:	4603      	mov	r3, r0
 800040a:	2b00      	cmp	r3, #0
 800040c:	d101      	bne.n	8000412 <main+0x15a>
 800040e:	2301      	movs	r3, #1
 8000410:	e000      	b.n	8000414 <main+0x15c>
 8000412:	2300      	movs	r3, #0
 8000414:	2b00      	cmp	r3, #0
 8000416:	d002      	beq.n	800041e <main+0x166>
   			  	  state = 3;
 8000418:	4b2a      	ldr	r3, [pc, #168]	; (80004c4 <main+0x20c>)
 800041a:	2203      	movs	r2, #3
 800041c:	701a      	strb	r2, [r3, #0]
   			  }
   			  HAL_Delay(5000);
 800041e:	f241 3088 	movw	r0, #5000	; 0x1388
 8000422:	f000 fc4b 	bl	8000cbc <HAL_Delay>
   			  break;
 8000426:	e03d      	b.n	80004a4 <main+0x1ec>
   		  }
   		  case 3:{	//ARMED(soft)
			  if(strncmp (dataIn, "DSTA", 4) == 0){	//signal == fire
 8000428:	2204      	movs	r2, #4
 800042a:	492d      	ldr	r1, [pc, #180]	; (80004e0 <main+0x228>)
 800042c:	4829      	ldr	r0, [pc, #164]	; (80004d4 <main+0x21c>)
 800042e:	f002 f805 	bl	800243c <strncmp>
 8000432:	4603      	mov	r3, r0
 8000434:	2b00      	cmp	r3, #0
 8000436:	d11c      	bne.n	8000472 <main+0x1ba>
				  igniter.FIRE();
 8000438:	463b      	mov	r3, r7
 800043a:	4618      	mov	r0, r3
 800043c:	f7ff fec5 	bl	80001ca <_ZN7Igniter4FIREEv>
				  fired = 1;
 8000440:	4b21      	ldr	r3, [pc, #132]	; (80004c8 <main+0x210>)
 8000442:	2201      	movs	r2, #1
 8000444:	701a      	strb	r2, [r3, #0]
				  sprintf(dataOut,"ASTB");
 8000446:	4927      	ldr	r1, [pc, #156]	; (80004e4 <main+0x22c>)
 8000448:	4821      	ldr	r0, [pc, #132]	; (80004d0 <main+0x218>)
 800044a:	f001 ffcf 	bl	80023ec <siprintf>
				  xbee_transmit_char(communication, dataOut);
 800044e:	4e1a      	ldr	r6, [pc, #104]	; (80004b8 <main+0x200>)
 8000450:	4b1f      	ldr	r3, [pc, #124]	; (80004d0 <main+0x218>)
 8000452:	9305      	str	r3, [sp, #20]
 8000454:	466d      	mov	r5, sp
 8000456:	f106 0410 	add.w	r4, r6, #16
 800045a:	cc0f      	ldmia	r4!, {r0, r1, r2, r3}
 800045c:	c50f      	stmia	r5!, {r0, r1, r2, r3}
 800045e:	6823      	ldr	r3, [r4, #0]
 8000460:	602b      	str	r3, [r5, #0]
 8000462:	e896 000f 	ldmia.w	r6, {r0, r1, r2, r3}
 8000466:	f000 fb30 	bl	8000aca <xbee_transmit_char>
				  state = 5;
 800046a:	4b16      	ldr	r3, [pc, #88]	; (80004c4 <main+0x20c>)
 800046c:	2205      	movs	r2, #5
 800046e:	701a      	strb	r2, [r3, #0]
 8000470:	e00a      	b.n	8000488 <main+0x1d0>
			  }
			  else if(strncmp (dataIn, "DABR", 4) == 0){	//signal == abort
 8000472:	2204      	movs	r2, #4
 8000474:	491c      	ldr	r1, [pc, #112]	; (80004e8 <main+0x230>)
 8000476:	4817      	ldr	r0, [pc, #92]	; (80004d4 <main+0x21c>)
 8000478:	f001 ffe0 	bl	800243c <strncmp>
 800047c:	4603      	mov	r3, r0
 800047e:	2b00      	cmp	r3, #0
 8000480:	d102      	bne.n	8000488 <main+0x1d0>
				  state = 4;
 8000482:	4b10      	ldr	r3, [pc, #64]	; (80004c4 <main+0x20c>)
 8000484:	2204      	movs	r2, #4
 8000486:	701a      	strb	r2, [r3, #0]
			  }
			  HAL_Delay(1000);
 8000488:	f44f 707a 	mov.w	r0, #1000	; 0x3e8
 800048c:	f000 fc16 	bl	8000cbc <HAL_Delay>
   			  break;
 8000490:	e008      	b.n	80004a4 <main+0x1ec>
   		  }
   		  case 4:{	//ABORT
   			  HAL_Delay(1000);
 8000492:	f44f 707a 	mov.w	r0, #1000	; 0x3e8
 8000496:	f000 fc11 	bl	8000cbc <HAL_Delay>
   			  break;
 800049a:	e003      	b.n	80004a4 <main+0x1ec>
   		  }
   		  case 5:{	//END
   			  HAL_Delay(1000000);
 800049c:	4813      	ldr	r0, [pc, #76]	; (80004ec <main+0x234>)
 800049e:	f000 fc0d 	bl	8000cbc <HAL_Delay>
   			  break;
 80004a2:	bf00      	nop
	  sprintf(dataOut,"D;S%i;I%i;F%i;", state, igniter.is_connected(), fired);
 80004a4:	e745      	b.n	8000332 <main+0x7a>
 80004a6:	bf00      	nop
 80004a8:	41c283e5 	.word	0x41c283e5
 80004ac:	0013a200 	.word	0x0013a200
 80004b0:	20000224 	.word	0x20000224
 80004b4:	20000090 	.word	0x20000090
 80004b8:	2000012c 	.word	0x2000012c
 80004bc:	40011000 	.word	0x40011000
 80004c0:	40010800 	.word	0x40010800
 80004c4:	200000e8 	.word	0x200000e8
 80004c8:	200000e9 	.word	0x200000e9
 80004cc:	08002b5c 	.word	0x08002b5c
 80004d0:	2000010c 	.word	0x2000010c
 80004d4:	200000ec 	.word	0x200000ec
 80004d8:	08002b6c 	.word	0x08002b6c
 80004dc:	08002b74 	.word	0x08002b74
 80004e0:	08002b7c 	.word	0x08002b7c
 80004e4:	08002b84 	.word	0x08002b84
 80004e8:	08002b8c 	.word	0x08002b8c
 80004ec:	000f4240 	.word	0x000f4240

080004f0 <_Z18SystemClock_Configv>:
/**
  * @brief System Clock Configuration
  * @retval None
  */
void SystemClock_Config(void)
{
 80004f0:	b580      	push	{r7, lr}
 80004f2:	b094      	sub	sp, #80	; 0x50
 80004f4:	af00      	add	r7, sp, #0
  RCC_OscInitTypeDef RCC_OscInitStruct = {0};
 80004f6:	f107 0328 	add.w	r3, r7, #40	; 0x28
 80004fa:	2228      	movs	r2, #40	; 0x28
 80004fc:	2100      	movs	r1, #0
 80004fe:	4618      	mov	r0, r3
 8000500:	f001 feb6 	bl	8002270 <memset>
  RCC_ClkInitTypeDef RCC_ClkInitStruct = {0};
 8000504:	f107 0314 	add.w	r3, r7, #20
 8000508:	2200      	movs	r2, #0
 800050a:	601a      	str	r2, [r3, #0]
 800050c:	605a      	str	r2, [r3, #4]
 800050e:	609a      	str	r2, [r3, #8]
 8000510:	60da      	str	r2, [r3, #12]
 8000512:	611a      	str	r2, [r3, #16]
  RCC_PeriphCLKInitTypeDef PeriphClkInit = {0};
 8000514:	1d3b      	adds	r3, r7, #4
 8000516:	2200      	movs	r2, #0
 8000518:	601a      	str	r2, [r3, #0]
 800051a:	605a      	str	r2, [r3, #4]
 800051c:	609a      	str	r2, [r3, #8]
 800051e:	60da      	str	r2, [r3, #12]

  /** Initializes the RCC Oscillators according to the specified parameters
  * in the RCC_OscInitTypeDef structure.
  */
  RCC_OscInitStruct.OscillatorType = RCC_OSCILLATORTYPE_HSE;
 8000520:	2301      	movs	r3, #1
 8000522:	62bb      	str	r3, [r7, #40]	; 0x28
  RCC_OscInitStruct.HSEState = RCC_HSE_ON;
 8000524:	f44f 3380 	mov.w	r3, #65536	; 0x10000
 8000528:	62fb      	str	r3, [r7, #44]	; 0x2c
  RCC_OscInitStruct.HSEPredivValue = RCC_HSE_PREDIV_DIV1;
 800052a:	2300      	movs	r3, #0
 800052c:	633b      	str	r3, [r7, #48]	; 0x30
  RCC_OscInitStruct.HSIState = RCC_HSI_ON;
 800052e:	2301      	movs	r3, #1
 8000530:	63bb      	str	r3, [r7, #56]	; 0x38
  RCC_OscInitStruct.PLL.PLLState = RCC_PLL_ON;
 8000532:	2302      	movs	r3, #2
 8000534:	647b      	str	r3, [r7, #68]	; 0x44
  RCC_OscInitStruct.PLL.PLLSource = RCC_PLLSOURCE_HSE;
 8000536:	f44f 3380 	mov.w	r3, #65536	; 0x10000
 800053a:	64bb      	str	r3, [r7, #72]	; 0x48
  RCC_OscInitStruct.PLL.PLLMUL = RCC_PLL_MUL6;
 800053c:	f44f 1380 	mov.w	r3, #1048576	; 0x100000
 8000540:	64fb      	str	r3, [r7, #76]	; 0x4c
  if (HAL_RCC_OscConfig(&RCC_OscInitStruct) != HAL_OK)
 8000542:	f107 0328 	add.w	r3, r7, #40	; 0x28
 8000546:	4618      	mov	r0, r3
 8000548:	f000 ff66 	bl	8001418 <HAL_RCC_OscConfig>
 800054c:	4603      	mov	r3, r0
 800054e:	2b00      	cmp	r3, #0
 8000550:	bf14      	ite	ne
 8000552:	2301      	movne	r3, #1
 8000554:	2300      	moveq	r3, #0
 8000556:	b2db      	uxtb	r3, r3
 8000558:	2b00      	cmp	r3, #0
 800055a:	d001      	beq.n	8000560 <_Z18SystemClock_Configv+0x70>
  {
    Error_Handler();
 800055c:	f000 f870 	bl	8000640 <Error_Handler>
  }
  /** Initializes the CPU, AHB and APB buses clocks
  */
  RCC_ClkInitStruct.ClockType = RCC_CLOCKTYPE_HCLK|RCC_CLOCKTYPE_SYSCLK
 8000560:	230f      	movs	r3, #15
 8000562:	617b      	str	r3, [r7, #20]
                              |RCC_CLOCKTYPE_PCLK1|RCC_CLOCKTYPE_PCLK2;
  RCC_ClkInitStruct.SYSCLKSource = RCC_SYSCLKSOURCE_PLLCLK;
 8000564:	2302      	movs	r3, #2
 8000566:	61bb      	str	r3, [r7, #24]
  RCC_ClkInitStruct.AHBCLKDivider = RCC_SYSCLK_DIV1;
 8000568:	2300      	movs	r3, #0
 800056a:	61fb      	str	r3, [r7, #28]
  RCC_ClkInitStruct.APB1CLKDivider = RCC_HCLK_DIV2;
 800056c:	f44f 6380 	mov.w	r3, #1024	; 0x400
 8000570:	623b      	str	r3, [r7, #32]
  RCC_ClkInitStruct.APB2CLKDivider = RCC_HCLK_DIV2;
 8000572:	f44f 6380 	mov.w	r3, #1024	; 0x400
 8000576:	627b      	str	r3, [r7, #36]	; 0x24

  if (HAL_RCC_ClockConfig(&RCC_ClkInitStruct, FLASH_LATENCY_1) != HAL_OK)
 8000578:	f107 0314 	add.w	r3, r7, #20
 800057c:	2101      	movs	r1, #1
 800057e:	4618      	mov	r0, r3
 8000580:	f001 f996 	bl	80018b0 <HAL_RCC_ClockConfig>
 8000584:	4603      	mov	r3, r0
 8000586:	2b00      	cmp	r3, #0
 8000588:	bf14      	ite	ne
 800058a:	2301      	movne	r3, #1
 800058c:	2300      	moveq	r3, #0
 800058e:	b2db      	uxtb	r3, r3
 8000590:	2b00      	cmp	r3, #0
 8000592:	d001      	beq.n	8000598 <_Z18SystemClock_Configv+0xa8>
  {
    Error_Handler();
 8000594:	f000 f854 	bl	8000640 <Error_Handler>
  }
  PeriphClkInit.PeriphClockSelection = RCC_PERIPHCLK_USB;
 8000598:	2310      	movs	r3, #16
 800059a:	607b      	str	r3, [r7, #4]
  PeriphClkInit.UsbClockSelection = RCC_USBCLKSOURCE_PLL;
 800059c:	f44f 0380 	mov.w	r3, #4194304	; 0x400000
 80005a0:	613b      	str	r3, [r7, #16]
  if (HAL_RCCEx_PeriphCLKConfig(&PeriphClkInit) != HAL_OK)
 80005a2:	1d3b      	adds	r3, r7, #4
 80005a4:	4618      	mov	r0, r3
 80005a6:	f001 fa5b 	bl	8001a60 <HAL_RCCEx_PeriphCLKConfig>
 80005aa:	4603      	mov	r3, r0
 80005ac:	2b00      	cmp	r3, #0
 80005ae:	bf14      	ite	ne
 80005b0:	2301      	movne	r3, #1
 80005b2:	2300      	moveq	r3, #0
 80005b4:	b2db      	uxtb	r3, r3
 80005b6:	2b00      	cmp	r3, #0
 80005b8:	d001      	beq.n	80005be <_Z18SystemClock_Configv+0xce>
  {
    Error_Handler();
 80005ba:	f000 f841 	bl	8000640 <Error_Handler>
  }
}
 80005be:	bf00      	nop
 80005c0:	3750      	adds	r7, #80	; 0x50
 80005c2:	46bd      	mov	sp, r7
 80005c4:	bd80      	pop	{r7, pc}
	...

080005c8 <HAL_UART_RxCpltCallback>:

/* USER CODE BEGIN 4 */
void HAL_UART_RxCpltCallback(UART_HandleTypeDef *huart){
 80005c8:	b580      	push	{r7, lr}
 80005ca:	b084      	sub	sp, #16
 80005cc:	af00      	add	r7, sp, #0
 80005ce:	6078      	str	r0, [r7, #4]
	if(huart->Instance == USART2){
 80005d0:	687b      	ldr	r3, [r7, #4]
 80005d2:	681b      	ldr	r3, [r3, #0]
 80005d4:	4a14      	ldr	r2, [pc, #80]	; (8000628 <HAL_UART_RxCpltCallback+0x60>)
 80005d6:	4293      	cmp	r3, r2
 80005d8:	d122      	bne.n	8000620 <HAL_UART_RxCpltCallback+0x58>
		__HAL_UART_CLEAR_IDLEFLAG(&huart2);
 80005da:	2300      	movs	r3, #0
 80005dc:	60fb      	str	r3, [r7, #12]
 80005de:	4b13      	ldr	r3, [pc, #76]	; (800062c <HAL_UART_RxCpltCallback+0x64>)
 80005e0:	681b      	ldr	r3, [r3, #0]
 80005e2:	681b      	ldr	r3, [r3, #0]
 80005e4:	60fb      	str	r3, [r7, #12]
 80005e6:	4b11      	ldr	r3, [pc, #68]	; (800062c <HAL_UART_RxCpltCallback+0x64>)
 80005e8:	681b      	ldr	r3, [r3, #0]
 80005ea:	685b      	ldr	r3, [r3, #4]
 80005ec:	60fb      	str	r3, [r7, #12]
 80005ee:	68fb      	ldr	r3, [r7, #12]
		HAL_UART_DMAStop(&huart2);
 80005f0:	480e      	ldr	r0, [pc, #56]	; (800062c <HAL_UART_RxCpltCallback+0x64>)
 80005f2:	f001 fc3d 	bl	8001e70 <HAL_UART_DMAStop>

		xbee_receive(); //odebranie całej wiadomości
 80005f6:	f000 fa7f 	bl	8000af8 <xbee_receive>
		if(xbee_rx.data_flag){  //jeżeli wiadomość była danymi to ta zmienna będzie miała wartość 1
 80005fa:	4b0d      	ldr	r3, [pc, #52]	; (8000630 <HAL_UART_RxCpltCallback+0x68>)
 80005fc:	f893 3054 	ldrb.w	r3, [r3, #84]	; 0x54
 8000600:	2b00      	cmp	r3, #0
 8000602:	d008      	beq.n	8000616 <HAL_UART_RxCpltCallback+0x4e>
			TUTAJ WEDLE UZNANIA PRZECHWYTUJECIE DANE KTORE PRZYSZŁY
			macie do dyspozycji tablice 'xbee_rx.data_array' o wielkości 'DATA_ARRAY' - 30, w której są wartości
			jeżeli chcecie zatrzymać te dane musicie skopiować wartości tej tabilicy
			pobranie adresu jest złym pomysłem bo przy każdym odebraniu tablica zmienia swoją zawartosć
			*/
			if(xbee_rx.data_array[0] == 'D'){
 8000604:	4b0a      	ldr	r3, [pc, #40]	; (8000630 <HAL_UART_RxCpltCallback+0x68>)
 8000606:	f893 3036 	ldrb.w	r3, [r3, #54]	; 0x36
 800060a:	2b44      	cmp	r3, #68	; 0x44
 800060c:	d103      	bne.n	8000616 <HAL_UART_RxCpltCallback+0x4e>
				strcpy(dataIn, xbee_rx.data_array);
 800060e:	4909      	ldr	r1, [pc, #36]	; (8000634 <HAL_UART_RxCpltCallback+0x6c>)
 8000610:	4809      	ldr	r0, [pc, #36]	; (8000638 <HAL_UART_RxCpltCallback+0x70>)
 8000612:	f001 ff0b 	bl	800242c <strcpy>
			}
		}
		//tutaj zmienić tylko huart
		HAL_UART_Receive_DMA(&huart2, (uint8_t*) xbee_rx.mess_loaded, DATA_LENGTH);
 8000616:	2232      	movs	r2, #50	; 0x32
 8000618:	4908      	ldr	r1, [pc, #32]	; (800063c <HAL_UART_RxCpltCallback+0x74>)
 800061a:	4804      	ldr	r0, [pc, #16]	; (800062c <HAL_UART_RxCpltCallback+0x64>)
 800061c:	f001 fbd4 	bl	8001dc8 <HAL_UART_Receive_DMA>
	}
}
 8000620:	bf00      	nop
 8000622:	3710      	adds	r7, #16
 8000624:	46bd      	mov	sp, r7
 8000626:	bd80      	pop	{r7, pc}
 8000628:	40004400 	.word	0x40004400
 800062c:	20000224 	.word	0x20000224
 8000630:	2000008c 	.word	0x2000008c
 8000634:	200000c2 	.word	0x200000c2
 8000638:	200000ec 	.word	0x200000ec
 800063c:	20000090 	.word	0x20000090

08000640 <Error_Handler>:

/**
  * @brief  This function is executed in case of error occurrence.
  * @retval None
  */
void Error_Handler(void){
 8000640:	b480      	push	{r7}
 8000642:	af00      	add	r7, sp, #0
  \details Disables IRQ interrupts by setting the I-bit in the CPSR.
           Can only be executed in Privileged modes.
 */
__STATIC_FORCEINLINE void __disable_irq(void)
{
  __ASM volatile ("cpsid i" : : : "memory");
 8000644:	b672      	cpsid	i
}
 8000646:	bf00      	nop
  /* USER CODE BEGIN Error_Handler_Debug */
  /* User can add his own implementation to report the HAL error return state */
  __disable_irq();
  while (1)
 8000648:	e7fe      	b.n	8000648 <Error_Handler+0x8>
	...

0800064c <HAL_MspInit>:
/* USER CODE END 0 */
/**
  * Initializes the Global MSP.
  */
void HAL_MspInit(void)
{
 800064c:	b082      	sub	sp, #8
  /* USER CODE BEGIN MspInit 0 */

  /* USER CODE END MspInit 0 */

  __HAL_RCC_AFIO_CLK_ENABLE();
 800064e:	4b0e      	ldr	r3, [pc, #56]	; (8000688 <HAL_MspInit+0x3c>)
 8000650:	699a      	ldr	r2, [r3, #24]
 8000652:	f042 0201 	orr.w	r2, r2, #1
 8000656:	619a      	str	r2, [r3, #24]
 8000658:	699a      	ldr	r2, [r3, #24]
 800065a:	f002 0201 	and.w	r2, r2, #1
 800065e:	9200      	str	r2, [sp, #0]
 8000660:	9a00      	ldr	r2, [sp, #0]
  __HAL_RCC_PWR_CLK_ENABLE();
 8000662:	69da      	ldr	r2, [r3, #28]
 8000664:	f042 5280 	orr.w	r2, r2, #268435456	; 0x10000000
 8000668:	61da      	str	r2, [r3, #28]
 800066a:	69db      	ldr	r3, [r3, #28]
 800066c:	f003 5380 	and.w	r3, r3, #268435456	; 0x10000000
 8000670:	9301      	str	r3, [sp, #4]
 8000672:	9b01      	ldr	r3, [sp, #4]

  /* System interrupt init*/

  /** NOJTAG: JTAG-DP Disabled and SW-DP Enabled
  */
  __HAL_AFIO_REMAP_SWJ_NOJTAG();
 8000674:	4a05      	ldr	r2, [pc, #20]	; (800068c <HAL_MspInit+0x40>)
 8000676:	6853      	ldr	r3, [r2, #4]
 8000678:	f023 63e0 	bic.w	r3, r3, #117440512	; 0x7000000
 800067c:	f043 7300 	orr.w	r3, r3, #33554432	; 0x2000000
 8000680:	6053      	str	r3, [r2, #4]

  /* USER CODE BEGIN MspInit 1 */

  /* USER CODE END MspInit 1 */
}
 8000682:	b002      	add	sp, #8
 8000684:	4770      	bx	lr
 8000686:	bf00      	nop
 8000688:	40021000 	.word	0x40021000
 800068c:	40010000 	.word	0x40010000

08000690 <NMI_Handler>:
{
  /* USER CODE BEGIN NonMaskableInt_IRQn 0 */

  /* USER CODE END NonMaskableInt_IRQn 0 */
  /* USER CODE BEGIN NonMaskableInt_IRQn 1 */
  while (1)
 8000690:	e7fe      	b.n	8000690 <NMI_Handler>

08000692 <HardFault_Handler>:
void HardFault_Handler(void)
{
  /* USER CODE BEGIN HardFault_IRQn 0 */

  /* USER CODE END HardFault_IRQn 0 */
  while (1)
 8000692:	e7fe      	b.n	8000692 <HardFault_Handler>

08000694 <MemManage_Handler>:
void MemManage_Handler(void)
{
  /* USER CODE BEGIN MemoryManagement_IRQn 0 */

  /* USER CODE END MemoryManagement_IRQn 0 */
  while (1)
 8000694:	e7fe      	b.n	8000694 <MemManage_Handler>

08000696 <BusFault_Handler>:
void BusFault_Handler(void)
{
  /* USER CODE BEGIN BusFault_IRQn 0 */

  /* USER CODE END BusFault_IRQn 0 */
  while (1)
 8000696:	e7fe      	b.n	8000696 <BusFault_Handler>

08000698 <UsageFault_Handler>:
void UsageFault_Handler(void)
{
  /* USER CODE BEGIN UsageFault_IRQn 0 */

  /* USER CODE END UsageFault_IRQn 0 */
  while (1)
 8000698:	e7fe      	b.n	8000698 <UsageFault_Handler>

0800069a <SVC_Handler>:

  /* USER CODE END SVCall_IRQn 0 */
  /* USER CODE BEGIN SVCall_IRQn 1 */

  /* USER CODE END SVCall_IRQn 1 */
}
 800069a:	4770      	bx	lr

0800069c <DebugMon_Handler>:

  /* USER CODE END DebugMonitor_IRQn 0 */
  /* USER CODE BEGIN DebugMonitor_IRQn 1 */

  /* USER CODE END DebugMonitor_IRQn 1 */
}
 800069c:	4770      	bx	lr

0800069e <PendSV_Handler>:

  /* USER CODE END PendSV_IRQn 0 */
  /* USER CODE BEGIN PendSV_IRQn 1 */

  /* USER CODE END PendSV_IRQn 1 */
}
 800069e:	4770      	bx	lr

080006a0 <SysTick_Handler>:

/**
  * @brief This function handles System tick timer.
  */
void SysTick_Handler(void)
{
 80006a0:	b508      	push	{r3, lr}
  /* USER CODE BEGIN SysTick_IRQn 0 */

  /* USER CODE END SysTick_IRQn 0 */
  HAL_IncTick();
 80006a2:	f000 faf9 	bl	8000c98 <HAL_IncTick>
  /* USER CODE BEGIN SysTick_IRQn 1 */

  /* USER CODE END SysTick_IRQn 1 */
}
 80006a6:	bd08      	pop	{r3, pc}

080006a8 <DMA1_Channel6_IRQHandler>:

/**
  * @brief This function handles DMA1 channel6 global interrupt.
  */
void DMA1_Channel6_IRQHandler(void)
{
 80006a8:	b508      	push	{r3, lr}
  /* USER CODE BEGIN DMA1_Channel6_IRQn 0 */

  /* USER CODE END DMA1_Channel6_IRQn 0 */
  HAL_DMA_IRQHandler(&hdma_usart2_rx);
 80006aa:	4802      	ldr	r0, [pc, #8]	; (80006b4 <DMA1_Channel6_IRQHandler+0xc>)
 80006ac:	f000 fc6e 	bl	8000f8c <HAL_DMA_IRQHandler>
  /* USER CODE BEGIN DMA1_Channel6_IRQn 1 */

  /* USER CODE END DMA1_Channel6_IRQn 1 */
}
 80006b0:	bd08      	pop	{r3, pc}
 80006b2:	bf00      	nop
 80006b4:	2000015c 	.word	0x2000015c

080006b8 <DMA1_Channel7_IRQHandler>:

/**
  * @brief This function handles DMA1 channel7 global interrupt.
  */
void DMA1_Channel7_IRQHandler(void)
{
 80006b8:	b508      	push	{r3, lr}
  /* USER CODE BEGIN DMA1_Channel7_IRQn 0 */

  /* USER CODE END DMA1_Channel7_IRQn 0 */
  HAL_DMA_IRQHandler(&hdma_usart2_tx);
 80006ba:	4802      	ldr	r0, [pc, #8]	; (80006c4 <DMA1_Channel7_IRQHandler+0xc>)
 80006bc:	f000 fc66 	bl	8000f8c <HAL_DMA_IRQHandler>
  /* USER CODE BEGIN DMA1_Channel7_IRQn 1 */

  /* USER CODE END DMA1_Channel7_IRQn 1 */
}
 80006c0:	bd08      	pop	{r3, pc}
 80006c2:	bf00      	nop
 80006c4:	200001e0 	.word	0x200001e0

080006c8 <USART2_IRQHandler>:

/**
  * @brief This function handles USART2 global interrupt.
  */
void USART2_IRQHandler(void)
{
 80006c8:	b510      	push	{r4, lr}
  /* USER CODE BEGIN USART2_IRQn 0 */

  /* USER CODE END USART2_IRQn 0 */
  HAL_UART_IRQHandler(&huart2);
 80006ca:	4c07      	ldr	r4, [pc, #28]	; (80006e8 <USART2_IRQHandler+0x20>)
 80006cc:	4620      	mov	r0, r4
 80006ce:	f001 fca3 	bl	8002018 <HAL_UART_IRQHandler>
  /* USER CODE BEGIN USART2_IRQn 1 */

  if(__HAL_UART_GET_FLAG(&huart2, UART_FLAG_IDLE))
 80006d2:	6823      	ldr	r3, [r4, #0]
 80006d4:	681b      	ldr	r3, [r3, #0]
 80006d6:	f013 0f10 	tst.w	r3, #16
 80006da:	d100      	bne.n	80006de <USART2_IRQHandler+0x16>
	  HAL_UART_RxCpltCallback(&huart2);

  /* USER CODE END USART2_IRQn 1 */
}
 80006dc:	bd10      	pop	{r4, pc}
	  HAL_UART_RxCpltCallback(&huart2);
 80006de:	4620      	mov	r0, r4
 80006e0:	f7ff ff72 	bl	80005c8 <HAL_UART_RxCpltCallback>
}
 80006e4:	e7fa      	b.n	80006dc <USART2_IRQHandler+0x14>
 80006e6:	bf00      	nop
 80006e8:	20000224 	.word	0x20000224

080006ec <USART3_IRQHandler>:

/**
  * @brief This function handles USART3 global interrupt.
  */
void USART3_IRQHandler(void)
{
 80006ec:	b508      	push	{r3, lr}
  /* USER CODE BEGIN USART3_IRQn 0 */

  /* USER CODE END USART3_IRQn 0 */
  HAL_UART_IRQHandler(&huart3);
 80006ee:	4802      	ldr	r0, [pc, #8]	; (80006f8 <USART3_IRQHandler+0xc>)
 80006f0:	f001 fc92 	bl	8002018 <HAL_UART_IRQHandler>
  /* USER CODE BEGIN USART3_IRQn 1 */

  /* USER CODE END USART3_IRQn 1 */
}
 80006f4:	bd08      	pop	{r3, pc}
 80006f6:	bf00      	nop
 80006f8:	200001a0 	.word	0x200001a0

080006fc <SystemInit>:

  /* Configure the Vector Table location -------------------------------------*/
#if defined(USER_VECT_TAB_ADDRESS)
  SCB->VTOR = VECT_TAB_BASE_ADDRESS | VECT_TAB_OFFSET; /* Vector Table Relocation in Internal SRAM. */
#endif /* USER_VECT_TAB_ADDRESS */
}
 80006fc:	4770      	bx	lr
	...

08000700 <MX_USART2_UART_Init>:
DMA_HandleTypeDef hdma_usart2_tx;

/* USART2 init function */

void MX_USART2_UART_Init(void)
{
 8000700:	b508      	push	{r3, lr}
  /* USER CODE END USART2_Init 0 */

  /* USER CODE BEGIN USART2_Init 1 */

  /* USER CODE END USART2_Init 1 */
  huart2.Instance = USART2;
 8000702:	480a      	ldr	r0, [pc, #40]	; (800072c <MX_USART2_UART_Init+0x2c>)
 8000704:	4b0a      	ldr	r3, [pc, #40]	; (8000730 <MX_USART2_UART_Init+0x30>)
 8000706:	6003      	str	r3, [r0, #0]
  huart2.Init.BaudRate = 115200;
 8000708:	f44f 33e1 	mov.w	r3, #115200	; 0x1c200
 800070c:	6043      	str	r3, [r0, #4]
  huart2.Init.WordLength = UART_WORDLENGTH_8B;
 800070e:	2300      	movs	r3, #0
 8000710:	6083      	str	r3, [r0, #8]
  huart2.Init.StopBits = UART_STOPBITS_1;
 8000712:	60c3      	str	r3, [r0, #12]
  huart2.Init.Parity = UART_PARITY_NONE;
 8000714:	6103      	str	r3, [r0, #16]
  huart2.Init.Mode = UART_MODE_TX_RX;
 8000716:	220c      	movs	r2, #12
 8000718:	6142      	str	r2, [r0, #20]
  huart2.Init.HwFlowCtl = UART_HWCONTROL_NONE;
 800071a:	6183      	str	r3, [r0, #24]
  huart2.Init.OverSampling = UART_OVERSAMPLING_16;
 800071c:	61c3      	str	r3, [r0, #28]
  if (HAL_UART_Init(&huart2) != HAL_OK)
 800071e:	f001 fab1 	bl	8001c84 <HAL_UART_Init>
 8000722:	b900      	cbnz	r0, 8000726 <MX_USART2_UART_Init+0x26>
  }
  /* USER CODE BEGIN USART2_Init 2 */

  /* USER CODE END USART2_Init 2 */

}
 8000724:	bd08      	pop	{r3, pc}
    Error_Handler();
 8000726:	f7ff ff8b 	bl	8000640 <Error_Handler>
}
 800072a:	e7fb      	b.n	8000724 <MX_USART2_UART_Init+0x24>
 800072c:	20000224 	.word	0x20000224
 8000730:	40004400 	.word	0x40004400

08000734 <MX_USART3_UART_Init>:
/* USART3 init function */

void MX_USART3_UART_Init(void)
{
 8000734:	b508      	push	{r3, lr}
  /* USER CODE END USART3_Init 0 */

  /* USER CODE BEGIN USART3_Init 1 */

  /* USER CODE END USART3_Init 1 */
  huart3.Instance = USART3;
 8000736:	480a      	ldr	r0, [pc, #40]	; (8000760 <MX_USART3_UART_Init+0x2c>)
 8000738:	4b0a      	ldr	r3, [pc, #40]	; (8000764 <MX_USART3_UART_Init+0x30>)
 800073a:	6003      	str	r3, [r0, #0]
  huart3.Init.BaudRate = 115200;
 800073c:	f44f 33e1 	mov.w	r3, #115200	; 0x1c200
 8000740:	6043      	str	r3, [r0, #4]
  huart3.Init.WordLength = UART_WORDLENGTH_8B;
 8000742:	2300      	movs	r3, #0
 8000744:	6083      	str	r3, [r0, #8]
  huart3.Init.StopBits = UART_STOPBITS_1;
 8000746:	60c3      	str	r3, [r0, #12]
  huart3.Init.Parity = UART_PARITY_NONE;
 8000748:	6103      	str	r3, [r0, #16]
  huart3.Init.Mode = UART_MODE_TX_RX;
 800074a:	220c      	movs	r2, #12
 800074c:	6142      	str	r2, [r0, #20]
  huart3.Init.HwFlowCtl = UART_HWCONTROL_NONE;
 800074e:	6183      	str	r3, [r0, #24]
  huart3.Init.OverSampling = UART_OVERSAMPLING_16;
 8000750:	61c3      	str	r3, [r0, #28]
  if (HAL_UART_Init(&huart3) != HAL_OK)
 8000752:	f001 fa97 	bl	8001c84 <HAL_UART_Init>
 8000756:	b900      	cbnz	r0, 800075a <MX_USART3_UART_Init+0x26>
  }
  /* USER CODE BEGIN USART3_Init 2 */

  /* USER CODE END USART3_Init 2 */

}
 8000758:	bd08      	pop	{r3, pc}
    Error_Handler();
 800075a:	f7ff ff71 	bl	8000640 <Error_Handler>
}
 800075e:	e7fb      	b.n	8000758 <MX_USART3_UART_Init+0x24>
 8000760:	200001a0 	.word	0x200001a0
 8000764:	40004800 	.word	0x40004800

08000768 <HAL_UART_MspInit>:

void HAL_UART_MspInit(UART_HandleTypeDef* uartHandle)
{
 8000768:	b570      	push	{r4, r5, r6, lr}
 800076a:	b088      	sub	sp, #32

  GPIO_InitTypeDef GPIO_InitStruct = {0};
 800076c:	2300      	movs	r3, #0
 800076e:	9304      	str	r3, [sp, #16]
 8000770:	9305      	str	r3, [sp, #20]
 8000772:	9306      	str	r3, [sp, #24]
 8000774:	9307      	str	r3, [sp, #28]
  if(uartHandle->Instance==USART2)
 8000776:	6803      	ldr	r3, [r0, #0]
 8000778:	4a4a      	ldr	r2, [pc, #296]	; (80008a4 <HAL_UART_MspInit+0x13c>)
 800077a:	4293      	cmp	r3, r2
 800077c:	d004      	beq.n	8000788 <HAL_UART_MspInit+0x20>
    HAL_NVIC_EnableIRQ(USART2_IRQn);
  /* USER CODE BEGIN USART2_MspInit 1 */

  /* USER CODE END USART2_MspInit 1 */
  }
  else if(uartHandle->Instance==USART3)
 800077e:	4a4a      	ldr	r2, [pc, #296]	; (80008a8 <HAL_UART_MspInit+0x140>)
 8000780:	4293      	cmp	r3, r2
 8000782:	d05c      	beq.n	800083e <HAL_UART_MspInit+0xd6>
    HAL_NVIC_EnableIRQ(USART3_IRQn);
  /* USER CODE BEGIN USART3_MspInit 1 */

  /* USER CODE END USART3_MspInit 1 */
  }
}
 8000784:	b008      	add	sp, #32
 8000786:	bd70      	pop	{r4, r5, r6, pc}
 8000788:	4604      	mov	r4, r0
    __HAL_RCC_USART2_CLK_ENABLE();
 800078a:	4b48      	ldr	r3, [pc, #288]	; (80008ac <HAL_UART_MspInit+0x144>)
 800078c:	69da      	ldr	r2, [r3, #28]
 800078e:	f442 3200 	orr.w	r2, r2, #131072	; 0x20000
 8000792:	61da      	str	r2, [r3, #28]
 8000794:	69da      	ldr	r2, [r3, #28]
 8000796:	f402 3200 	and.w	r2, r2, #131072	; 0x20000
 800079a:	9200      	str	r2, [sp, #0]
 800079c:	9a00      	ldr	r2, [sp, #0]
    __HAL_RCC_GPIOA_CLK_ENABLE();
 800079e:	699a      	ldr	r2, [r3, #24]
 80007a0:	f042 0204 	orr.w	r2, r2, #4
 80007a4:	619a      	str	r2, [r3, #24]
 80007a6:	699b      	ldr	r3, [r3, #24]
 80007a8:	f003 0304 	and.w	r3, r3, #4
 80007ac:	9301      	str	r3, [sp, #4]
 80007ae:	9b01      	ldr	r3, [sp, #4]
    GPIO_InitStruct.Pin = GPIO_PIN_2;
 80007b0:	2304      	movs	r3, #4
 80007b2:	9304      	str	r3, [sp, #16]
    GPIO_InitStruct.Mode = GPIO_MODE_AF_PP;
 80007b4:	2302      	movs	r3, #2
 80007b6:	9305      	str	r3, [sp, #20]
    GPIO_InitStruct.Speed = GPIO_SPEED_FREQ_HIGH;
 80007b8:	2303      	movs	r3, #3
 80007ba:	9307      	str	r3, [sp, #28]
    HAL_GPIO_Init(GPIOA, &GPIO_InitStruct);
 80007bc:	4e3c      	ldr	r6, [pc, #240]	; (80008b0 <HAL_UART_MspInit+0x148>)
 80007be:	a904      	add	r1, sp, #16
 80007c0:	4630      	mov	r0, r6
 80007c2:	f000 fc83 	bl	80010cc <HAL_GPIO_Init>
    GPIO_InitStruct.Pin = GPIO_PIN_3;
 80007c6:	2308      	movs	r3, #8
 80007c8:	9304      	str	r3, [sp, #16]
    GPIO_InitStruct.Mode = GPIO_MODE_INPUT;
 80007ca:	2500      	movs	r5, #0
 80007cc:	9505      	str	r5, [sp, #20]
    GPIO_InitStruct.Pull = GPIO_NOPULL;
 80007ce:	9506      	str	r5, [sp, #24]
    HAL_GPIO_Init(GPIOA, &GPIO_InitStruct);
 80007d0:	a904      	add	r1, sp, #16
 80007d2:	4630      	mov	r0, r6
 80007d4:	f000 fc7a 	bl	80010cc <HAL_GPIO_Init>
    hdma_usart2_rx.Instance = DMA1_Channel6;
 80007d8:	4836      	ldr	r0, [pc, #216]	; (80008b4 <HAL_UART_MspInit+0x14c>)
 80007da:	4b37      	ldr	r3, [pc, #220]	; (80008b8 <HAL_UART_MspInit+0x150>)
 80007dc:	6003      	str	r3, [r0, #0]
    hdma_usart2_rx.Init.Direction = DMA_PERIPH_TO_MEMORY;
 80007de:	6045      	str	r5, [r0, #4]
    hdma_usart2_rx.Init.PeriphInc = DMA_PINC_DISABLE;
 80007e0:	6085      	str	r5, [r0, #8]
    hdma_usart2_rx.Init.MemInc = DMA_MINC_ENABLE;
 80007e2:	2380      	movs	r3, #128	; 0x80
 80007e4:	60c3      	str	r3, [r0, #12]
    hdma_usart2_rx.Init.PeriphDataAlignment = DMA_PDATAALIGN_BYTE;
 80007e6:	6105      	str	r5, [r0, #16]
    hdma_usart2_rx.Init.MemDataAlignment = DMA_MDATAALIGN_BYTE;
 80007e8:	6145      	str	r5, [r0, #20]
    hdma_usart2_rx.Init.Mode = DMA_NORMAL;
 80007ea:	6185      	str	r5, [r0, #24]
    hdma_usart2_rx.Init.Priority = DMA_PRIORITY_LOW;
 80007ec:	61c5      	str	r5, [r0, #28]
    if (HAL_DMA_Init(&hdma_usart2_rx) != HAL_OK)
 80007ee:	f000 fae1 	bl	8000db4 <HAL_DMA_Init>
 80007f2:	b9f0      	cbnz	r0, 8000832 <HAL_UART_MspInit+0xca>
    __HAL_LINKDMA(uartHandle,hdmarx,hdma_usart2_rx);
 80007f4:	4b2f      	ldr	r3, [pc, #188]	; (80008b4 <HAL_UART_MspInit+0x14c>)
 80007f6:	6363      	str	r3, [r4, #52]	; 0x34
 80007f8:	625c      	str	r4, [r3, #36]	; 0x24
    hdma_usart2_tx.Instance = DMA1_Channel7;
 80007fa:	4830      	ldr	r0, [pc, #192]	; (80008bc <HAL_UART_MspInit+0x154>)
 80007fc:	4b30      	ldr	r3, [pc, #192]	; (80008c0 <HAL_UART_MspInit+0x158>)
 80007fe:	6003      	str	r3, [r0, #0]
    hdma_usart2_tx.Init.Direction = DMA_MEMORY_TO_PERIPH;
 8000800:	2310      	movs	r3, #16
 8000802:	6043      	str	r3, [r0, #4]
    hdma_usart2_tx.Init.PeriphInc = DMA_PINC_DISABLE;
 8000804:	2300      	movs	r3, #0
 8000806:	6083      	str	r3, [r0, #8]
    hdma_usart2_tx.Init.MemInc = DMA_MINC_ENABLE;
 8000808:	2280      	movs	r2, #128	; 0x80
 800080a:	60c2      	str	r2, [r0, #12]
    hdma_usart2_tx.Init.PeriphDataAlignment = DMA_PDATAALIGN_BYTE;
 800080c:	6103      	str	r3, [r0, #16]
    hdma_usart2_tx.Init.MemDataAlignment = DMA_MDATAALIGN_BYTE;
 800080e:	6143      	str	r3, [r0, #20]
    hdma_usart2_tx.Init.Mode = DMA_NORMAL;
 8000810:	6183      	str	r3, [r0, #24]
    hdma_usart2_tx.Init.Priority = DMA_PRIORITY_LOW;
 8000812:	61c3      	str	r3, [r0, #28]
    if (HAL_DMA_Init(&hdma_usart2_tx) != HAL_OK)
 8000814:	f000 face 	bl	8000db4 <HAL_DMA_Init>
 8000818:	b970      	cbnz	r0, 8000838 <HAL_UART_MspInit+0xd0>
    __HAL_LINKDMA(uartHandle,hdmatx,hdma_usart2_tx);
 800081a:	4b28      	ldr	r3, [pc, #160]	; (80008bc <HAL_UART_MspInit+0x154>)
 800081c:	6323      	str	r3, [r4, #48]	; 0x30
 800081e:	625c      	str	r4, [r3, #36]	; 0x24
    HAL_NVIC_SetPriority(USART2_IRQn, 0, 0);
 8000820:	2200      	movs	r2, #0
 8000822:	4611      	mov	r1, r2
 8000824:	2026      	movs	r0, #38	; 0x26
 8000826:	f000 fa6f 	bl	8000d08 <HAL_NVIC_SetPriority>
    HAL_NVIC_EnableIRQ(USART2_IRQn);
 800082a:	2026      	movs	r0, #38	; 0x26
 800082c:	f000 fa9e 	bl	8000d6c <HAL_NVIC_EnableIRQ>
 8000830:	e7a8      	b.n	8000784 <HAL_UART_MspInit+0x1c>
      Error_Handler();
 8000832:	f7ff ff05 	bl	8000640 <Error_Handler>
 8000836:	e7dd      	b.n	80007f4 <HAL_UART_MspInit+0x8c>
      Error_Handler();
 8000838:	f7ff ff02 	bl	8000640 <Error_Handler>
 800083c:	e7ed      	b.n	800081a <HAL_UART_MspInit+0xb2>
    __HAL_RCC_USART3_CLK_ENABLE();
 800083e:	4b1b      	ldr	r3, [pc, #108]	; (80008ac <HAL_UART_MspInit+0x144>)
 8000840:	69da      	ldr	r2, [r3, #28]
 8000842:	f442 2280 	orr.w	r2, r2, #262144	; 0x40000
 8000846:	61da      	str	r2, [r3, #28]
 8000848:	69da      	ldr	r2, [r3, #28]
 800084a:	f402 2280 	and.w	r2, r2, #262144	; 0x40000
 800084e:	9202      	str	r2, [sp, #8]
 8000850:	9a02      	ldr	r2, [sp, #8]
    __HAL_RCC_GPIOB_CLK_ENABLE();
 8000852:	699a      	ldr	r2, [r3, #24]
 8000854:	f042 0208 	orr.w	r2, r2, #8
 8000858:	619a      	str	r2, [r3, #24]
 800085a:	699b      	ldr	r3, [r3, #24]
 800085c:	f003 0308 	and.w	r3, r3, #8
 8000860:	9303      	str	r3, [sp, #12]
 8000862:	9b03      	ldr	r3, [sp, #12]
    GPIO_InitStruct.Pin = GPIO_PIN_10;
 8000864:	f44f 6380 	mov.w	r3, #1024	; 0x400
 8000868:	9304      	str	r3, [sp, #16]
    GPIO_InitStruct.Mode = GPIO_MODE_AF_PP;
 800086a:	2302      	movs	r3, #2
 800086c:	9305      	str	r3, [sp, #20]
    GPIO_InitStruct.Speed = GPIO_SPEED_FREQ_HIGH;
 800086e:	2303      	movs	r3, #3
 8000870:	9307      	str	r3, [sp, #28]
    HAL_GPIO_Init(GPIOB, &GPIO_InitStruct);
 8000872:	4d14      	ldr	r5, [pc, #80]	; (80008c4 <HAL_UART_MspInit+0x15c>)
 8000874:	a904      	add	r1, sp, #16
 8000876:	4628      	mov	r0, r5
 8000878:	f000 fc28 	bl	80010cc <HAL_GPIO_Init>
    GPIO_InitStruct.Pin = GPIO_PIN_11;
 800087c:	f44f 6300 	mov.w	r3, #2048	; 0x800
 8000880:	9304      	str	r3, [sp, #16]
    GPIO_InitStruct.Mode = GPIO_MODE_INPUT;
 8000882:	2400      	movs	r4, #0
 8000884:	9405      	str	r4, [sp, #20]
    GPIO_InitStruct.Pull = GPIO_NOPULL;
 8000886:	9406      	str	r4, [sp, #24]
    HAL_GPIO_Init(GPIOB, &GPIO_InitStruct);
 8000888:	a904      	add	r1, sp, #16
 800088a:	4628      	mov	r0, r5
 800088c:	f000 fc1e 	bl	80010cc <HAL_GPIO_Init>
    HAL_NVIC_SetPriority(USART3_IRQn, 0, 0);
 8000890:	4622      	mov	r2, r4
 8000892:	4621      	mov	r1, r4
 8000894:	2027      	movs	r0, #39	; 0x27
 8000896:	f000 fa37 	bl	8000d08 <HAL_NVIC_SetPriority>
    HAL_NVIC_EnableIRQ(USART3_IRQn);
 800089a:	2027      	movs	r0, #39	; 0x27
 800089c:	f000 fa66 	bl	8000d6c <HAL_NVIC_EnableIRQ>
}
 80008a0:	e770      	b.n	8000784 <HAL_UART_MspInit+0x1c>
 80008a2:	bf00      	nop
 80008a4:	40004400 	.word	0x40004400
 80008a8:	40004800 	.word	0x40004800
 80008ac:	40021000 	.word	0x40021000
 80008b0:	40010800 	.word	0x40010800
 80008b4:	2000015c 	.word	0x2000015c
 80008b8:	4002006c 	.word	0x4002006c
 80008bc:	200001e0 	.word	0x200001e0
 80008c0:	40020080 	.word	0x40020080
 80008c4:	40010c00 	.word	0x40010c00

080008c8 <MX_USB_PCD_Init>:
PCD_HandleTypeDef hpcd_USB_FS;

/* USB init function */

void MX_USB_PCD_Init(void)
{
 80008c8:	b508      	push	{r3, lr}
  /* USER CODE END USB_Init 0 */

  /* USER CODE BEGIN USB_Init 1 */

  /* USER CODE END USB_Init 1 */
  hpcd_USB_FS.Instance = USB;
 80008ca:	4809      	ldr	r0, [pc, #36]	; (80008f0 <MX_USB_PCD_Init+0x28>)
 80008cc:	4b09      	ldr	r3, [pc, #36]	; (80008f4 <MX_USB_PCD_Init+0x2c>)
 80008ce:	6003      	str	r3, [r0, #0]
  hpcd_USB_FS.Init.dev_endpoints = 8;
 80008d0:	2308      	movs	r3, #8
 80008d2:	6043      	str	r3, [r0, #4]
  hpcd_USB_FS.Init.speed = PCD_SPEED_FULL;
 80008d4:	2302      	movs	r3, #2
 80008d6:	6083      	str	r3, [r0, #8]
  hpcd_USB_FS.Init.low_power_enable = DISABLE;
 80008d8:	2300      	movs	r3, #0
 80008da:	6183      	str	r3, [r0, #24]
  hpcd_USB_FS.Init.lpm_enable = DISABLE;
 80008dc:	61c3      	str	r3, [r0, #28]
  hpcd_USB_FS.Init.battery_charging_enable = DISABLE;
 80008de:	6203      	str	r3, [r0, #32]
  if (HAL_PCD_Init(&hpcd_USB_FS) != HAL_OK)
 80008e0:	f000 fd19 	bl	8001316 <HAL_PCD_Init>
 80008e4:	b900      	cbnz	r0, 80008e8 <MX_USB_PCD_Init+0x20>
  }
  /* USER CODE BEGIN USB_Init 2 */

  /* USER CODE END USB_Init 2 */

}
 80008e6:	bd08      	pop	{r3, pc}
    Error_Handler();
 80008e8:	f7ff feaa 	bl	8000640 <Error_Handler>
}
 80008ec:	e7fb      	b.n	80008e6 <MX_USB_PCD_Init+0x1e>
 80008ee:	bf00      	nop
 80008f0:	20000264 	.word	0x20000264
 80008f4:	40005c00 	.word	0x40005c00

080008f8 <HAL_PCD_MspInit>:

void HAL_PCD_MspInit(PCD_HandleTypeDef* pcdHandle)
{

  if(pcdHandle->Instance==USB)
 80008f8:	6802      	ldr	r2, [r0, #0]
 80008fa:	4b09      	ldr	r3, [pc, #36]	; (8000920 <HAL_PCD_MspInit+0x28>)
 80008fc:	429a      	cmp	r2, r3
 80008fe:	d000      	beq.n	8000902 <HAL_PCD_MspInit+0xa>
 8000900:	4770      	bx	lr
{
 8000902:	b082      	sub	sp, #8
  {
  /* USER CODE BEGIN USB_MspInit 0 */

  /* USER CODE END USB_MspInit 0 */
    /* USB clock enable */
    __HAL_RCC_USB_CLK_ENABLE();
 8000904:	f503 33da 	add.w	r3, r3, #111616	; 0x1b400
 8000908:	69da      	ldr	r2, [r3, #28]
 800090a:	f442 0200 	orr.w	r2, r2, #8388608	; 0x800000
 800090e:	61da      	str	r2, [r3, #28]
 8000910:	69db      	ldr	r3, [r3, #28]
 8000912:	f403 0300 	and.w	r3, r3, #8388608	; 0x800000
 8000916:	9301      	str	r3, [sp, #4]
 8000918:	9b01      	ldr	r3, [sp, #4]
  /* USER CODE BEGIN USB_MspInit 1 */

  /* USER CODE END USB_MspInit 1 */
  }
}
 800091a:	b002      	add	sp, #8
 800091c:	4770      	bx	lr
 800091e:	bf00      	nop
 8000920:	40005c00 	.word	0x40005c00

08000924 <xbee_options_init>:


//Wpisanie opcji api do tablicy
//Tutaj bez dynamicznych bo nie ma kiedy zwolnić tablicy
void xbee_options_init(uint8_t *options){
	options[0] = START_BYTE;
 8000924:	237e      	movs	r3, #126	; 0x7e
 8000926:	7003      	strb	r3, [r0, #0]
	options[1] = FRAME_TYPE;
 8000928:	2310      	movs	r3, #16
 800092a:	7043      	strb	r3, [r0, #1]
	options[2] = FRAME_ID ;
 800092c:	2300      	movs	r3, #0
 800092e:	7083      	strb	r3, [r0, #2]
	options[3] = BT_1;
 8000930:	22ff      	movs	r2, #255	; 0xff
 8000932:	70c2      	strb	r2, [r0, #3]
	options[4] = BT_2;
 8000934:	22fe      	movs	r2, #254	; 0xfe
 8000936:	7102      	strb	r2, [r0, #4]
	options[5] = BORDCAST_RADIUS;
 8000938:	7143      	strb	r3, [r0, #5]
	options[6] = OPTIONS;
 800093a:	7183      	strb	r3, [r0, #6]
}
 800093c:	4770      	bx	lr

0800093e <xbee_init>:

//Zamiana adresu na tablice
//Ogólna inicjalizacja xbee
void xbee_init(Xbee *sensor, uint64_t address, UART_HandleTypeDef *uart){
 800093e:	b5f0      	push	{r4, r5, r6, r7, lr}
 8000940:	b083      	sub	sp, #12
 8000942:	4606      	mov	r6, r0
 8000944:	4614      	mov	r4, r2
 8000946:	461f      	mov	r7, r3
	  uint8_t temp[8]; //tablica do wczytania oryginalego adresu;
	  int i, j;

	 sensor->huart = uart;
 8000948:	9b08      	ldr	r3, [sp, #32]
 800094a:	6203      	str	r3, [r0, #32]

	  xbee_options_init(sensor->options); //Inicjalizacja opcji, raz wystarczy
 800094c:	f7ff ffea 	bl	8000924 <xbee_options_init>


	  //to idzie jeszcze poprawic do jednej petli
	  for(i=0; i<8; i++){
 8000950:	7f31      	ldrb	r1, [r6, #28]
 8000952:	f10d 35ff 	add.w	r5, sp, #4294967295
 8000956:	f10d 0307 	add.w	r3, sp, #7
		  temp[i] = address;
 800095a:	b2e2      	uxtb	r2, r4
 800095c:	f805 2f01 	strb.w	r2, [r5, #1]!
		  sensor->checksum += temp[i];
 8000960:	4411      	add	r1, r2
 8000962:	b2c9      	uxtb	r1, r1

		  address /= 0x100;
 8000964:	0a24      	lsrs	r4, r4, #8
 8000966:	ea44 6407 	orr.w	r4, r4, r7, lsl #24
 800096a:	0a3f      	lsrs	r7, r7, #8
	  for(i=0; i<8; i++){
 800096c:	429d      	cmp	r5, r3
 800096e:	d1f4      	bne.n	800095a <xbee_init+0x1c>
 8000970:	7731      	strb	r1, [r6, #28]
 8000972:	f10d 0207 	add.w	r2, sp, #7
 8000976:	f106 0309 	add.w	r3, r6, #9
 800097a:	3611      	adds	r6, #17
	  }

	  //Wpisanie adresu do tablicy dynamicznej
	  for(i=7, j=0; i>=0; i--, j++){
		  sensor->address[j] = temp[i];
 800097c:	f812 1901 	ldrb.w	r1, [r2], #-1
 8000980:	f803 1b01 	strb.w	r1, [r3], #1
	  for(i=7, j=0; i>=0; i--, j++){
 8000984:	42b3      	cmp	r3, r6
 8000986:	d1f9      	bne.n	800097c <xbee_init+0x3e>
	  }
}
 8000988:	b003      	add	sp, #12
 800098a:	bdf0      	pop	{r4, r5, r6, r7, pc}

0800098c <xbee_length>:

//Obliczenie długości i wpisanie jej do tablicy
void xbee_length(Xbee *sensor){
	//Pierwszy element dlugosci to 0;
	int l;
	l = 14 + sensor->data_length;
 800098c:	6983      	ldr	r3, [r0, #24]
 800098e:	330e      	adds	r3, #14

	//Tworzymy tablice i wpisujemy wartosci
	sensor->length[0] = l/100;
 8000990:	4904      	ldr	r1, [pc, #16]	; (80009a4 <xbee_length+0x18>)
 8000992:	fb81 2103 	smull	r2, r1, r1, r3
 8000996:	17da      	asrs	r2, r3, #31
 8000998:	ebc2 1261 	rsb	r2, r2, r1, asr #5
 800099c:	71c2      	strb	r2, [r0, #7]
	sensor->length[1] = l;
 800099e:	7203      	strb	r3, [r0, #8]
}
 80009a0:	4770      	bx	lr
 80009a2:	bf00      	nop
 80009a4:	51eb851f 	.word	0x51eb851f

080009a8 <xbee_checksum_count>:

//Obliczenie chceksumy
void xbee_checksum_count(Xbee *sensor){
 80009a8:	b410      	push	{r4}
	int i=0;
	for(i=1; i<7; i++){
 80009aa:	7f03      	ldrb	r3, [r0, #28]
 80009ac:	1c42      	adds	r2, r0, #1
 80009ae:	1dc4      	adds	r4, r0, #7
		sensor->checksum += sensor->options[i];
 80009b0:	f812 1b01 	ldrb.w	r1, [r2], #1
 80009b4:	440b      	add	r3, r1
 80009b6:	b2db      	uxtb	r3, r3
	for(i=1; i<7; i++){
 80009b8:	42a2      	cmp	r2, r4
 80009ba:	d1f9      	bne.n	80009b0 <xbee_checksum_count+0x8>
 80009bc:	7703      	strb	r3, [r0, #28]
	}
	for(i=0; i<sensor->data_length; i++){
 80009be:	6983      	ldr	r3, [r0, #24]
 80009c0:	2b00      	cmp	r3, #0
 80009c2:	dd0a      	ble.n	80009da <xbee_checksum_count+0x32>
		sensor->checksum += sensor->data[i];
 80009c4:	6944      	ldr	r4, [r0, #20]
 80009c6:	1e62      	subs	r2, r4, #1
 80009c8:	441c      	add	r4, r3
 80009ca:	3c01      	subs	r4, #1
 80009cc:	7f03      	ldrb	r3, [r0, #28]
 80009ce:	f812 1f01 	ldrb.w	r1, [r2, #1]!
 80009d2:	440b      	add	r3, r1
 80009d4:	7703      	strb	r3, [r0, #28]
	for(i=0; i<sensor->data_length; i++){
 80009d6:	42a2      	cmp	r2, r4
 80009d8:	d1f8      	bne.n	80009cc <xbee_checksum_count+0x24>
	}
	sensor->checksum = 0xff - sensor->checksum;
 80009da:	7f03      	ldrb	r3, [r0, #28]
 80009dc:	43db      	mvns	r3, r3
 80009de:	7703      	strb	r3, [r0, #28]

}
 80009e0:	bc10      	pop	{r4}
 80009e2:	4770      	bx	lr

080009e4 <xbee_send>:

//Czy tutaj tworzyc tablice z cala wiadomoscia i wysłać całę odrazu
void xbee_send(Xbee *sensor){
 80009e4:	e92d 41f0 	stmdb	sp!, {r4, r5, r6, r7, r8, lr}
 80009e8:	4604      	mov	r4, r0
	int i;

		//wyslanie znaku start
		HAL_UART_Transmit(sensor->huart, &sensor->options[0], 1, 100);
 80009ea:	2364      	movs	r3, #100	; 0x64
 80009ec:	2201      	movs	r2, #1
 80009ee:	4601      	mov	r1, r0
 80009f0:	6a00      	ldr	r0, [r0, #32]
 80009f2:	f001 f976 	bl	8001ce2 <HAL_UART_Transmit>

		//wyslanie dlugosci
		for(i=0; i<2; i++){
			HAL_UART_Transmit(sensor->huart, &sensor->length[i], 1, 100);
 80009f6:	2364      	movs	r3, #100	; 0x64
 80009f8:	2201      	movs	r2, #1
 80009fa:	1de1      	adds	r1, r4, #7
 80009fc:	6a20      	ldr	r0, [r4, #32]
 80009fe:	f001 f970 	bl	8001ce2 <HAL_UART_Transmit>
 8000a02:	2364      	movs	r3, #100	; 0x64
 8000a04:	2201      	movs	r2, #1
 8000a06:	f104 0108 	add.w	r1, r4, #8
 8000a0a:	6a20      	ldr	r0, [r4, #32]
 8000a0c:	f001 f969 	bl	8001ce2 <HAL_UART_Transmit>
		}

		//wyslanie danych klatki
		HAL_UART_Transmit(sensor->huart, &sensor->options[1], 1, 100);
 8000a10:	2364      	movs	r3, #100	; 0x64
 8000a12:	2201      	movs	r2, #1
 8000a14:	18a1      	adds	r1, r4, r2
 8000a16:	6a20      	ldr	r0, [r4, #32]
 8000a18:	f001 f963 	bl	8001ce2 <HAL_UART_Transmit>
		HAL_UART_Transmit(sensor->huart, &sensor->options[2], 1, 100);
 8000a1c:	2364      	movs	r3, #100	; 0x64
 8000a1e:	2201      	movs	r2, #1
 8000a20:	1ca1      	adds	r1, r4, #2
 8000a22:	6a20      	ldr	r0, [r4, #32]
 8000a24:	f001 f95d 	bl	8001ce2 <HAL_UART_Transmit>

		//Wyslanie adresu
		for(i=0; i<8; i++){
 8000a28:	f104 0509 	add.w	r5, r4, #9
 8000a2c:	f104 0811 	add.w	r8, r4, #17
			HAL_UART_Transmit(sensor->huart, &sensor->address[i], 1, 100);
 8000a30:	2764      	movs	r7, #100	; 0x64
 8000a32:	2601      	movs	r6, #1
 8000a34:	463b      	mov	r3, r7
 8000a36:	4632      	mov	r2, r6
 8000a38:	4629      	mov	r1, r5
 8000a3a:	6a20      	ldr	r0, [r4, #32]
 8000a3c:	f001 f951 	bl	8001ce2 <HAL_UART_Transmit>
		for(i=0; i<8; i++){
 8000a40:	3501      	adds	r5, #1
 8000a42:	4545      	cmp	r5, r8
 8000a44:	d1f6      	bne.n	8000a34 <xbee_send+0x50>
 8000a46:	1ce5      	adds	r5, r4, #3
 8000a48:	f104 0807 	add.w	r8, r4, #7
		}

		//wyslanie reszty opcji
		for(i=3; i<7; i++){
			HAL_UART_Transmit(sensor->huart, &sensor->options[i], 1, 100);
 8000a4c:	2764      	movs	r7, #100	; 0x64
 8000a4e:	2601      	movs	r6, #1
 8000a50:	463b      	mov	r3, r7
 8000a52:	4632      	mov	r2, r6
 8000a54:	4629      	mov	r1, r5
 8000a56:	6a20      	ldr	r0, [r4, #32]
 8000a58:	f001 f943 	bl	8001ce2 <HAL_UART_Transmit>
		for(i=3; i<7; i++){
 8000a5c:	3501      	adds	r5, #1
 8000a5e:	4545      	cmp	r5, r8
 8000a60:	d1f6      	bne.n	8000a50 <xbee_send+0x6c>
		}

		//wyslanie danych
		for(i=0; i<sensor->data_length; i++){
 8000a62:	69a3      	ldr	r3, [r4, #24]
 8000a64:	2b00      	cmp	r3, #0
 8000a66:	dd0d      	ble.n	8000a84 <xbee_send+0xa0>
 8000a68:	2500      	movs	r5, #0
			HAL_UART_Transmit(sensor->huart, (uint8_t *) &sensor->data[i], 1, 100);
 8000a6a:	2764      	movs	r7, #100	; 0x64
 8000a6c:	2601      	movs	r6, #1
 8000a6e:	6961      	ldr	r1, [r4, #20]
 8000a70:	463b      	mov	r3, r7
 8000a72:	4632      	mov	r2, r6
 8000a74:	4429      	add	r1, r5
 8000a76:	6a20      	ldr	r0, [r4, #32]
 8000a78:	f001 f933 	bl	8001ce2 <HAL_UART_Transmit>
		for(i=0; i<sensor->data_length; i++){
 8000a7c:	3501      	adds	r5, #1
 8000a7e:	69a3      	ldr	r3, [r4, #24]
 8000a80:	42ab      	cmp	r3, r5
 8000a82:	dcf4      	bgt.n	8000a6e <xbee_send+0x8a>
		}

		//wyslanie checksumy
		HAL_UART_Transmit(sensor->huart, &sensor->checksum, 1, 100);
 8000a84:	2364      	movs	r3, #100	; 0x64
 8000a86:	2201      	movs	r2, #1
 8000a88:	f104 011c 	add.w	r1, r4, #28
 8000a8c:	6a20      	ldr	r0, [r4, #32]
 8000a8e:	f001 f928 	bl	8001ce2 <HAL_UART_Transmit>


		//Czyszczenie pamięci
		free(sensor->data);
 8000a92:	6960      	ldr	r0, [r4, #20]
 8000a94:	f001 fbe4 	bl	8002260 <free>
}
 8000a98:	e8bd 81f0 	ldmia.w	sp!, {r4, r5, r6, r7, r8, pc}

08000a9c <xbee_char_load>:
	xbee_checksum_count(&sensor);
	xbee_send(&sensor);
}

//wczytanie podanych danych do struktury
void xbee_char_load(char *data, Xbee *sensor){
 8000a9c:	b570      	push	{r4, r5, r6, lr}
 8000a9e:	4605      	mov	r5, r0
 8000aa0:	460c      	mov	r4, r1
	sensor->data_length = strlen(data); //strlen niby powinien zadziałać bez
 8000aa2:	f7ff fb55 	bl	8000150 <strlen>
 8000aa6:	4606      	mov	r6, r0
 8000aa8:	61a0      	str	r0, [r4, #24]
	sensor->data = (uint8_t*)malloc(sensor->data_length * sizeof(uint8_t));//
 8000aaa:	f001 fbd1 	bl	8002250 <malloc>
 8000aae:	6160      	str	r0, [r4, #20]

	for(int i=0; i<sensor->data_length; ++i){
 8000ab0:	2e00      	cmp	r6, #0
 8000ab2:	dd09      	ble.n	8000ac8 <xbee_char_load+0x2c>
 8000ab4:	1e68      	subs	r0, r5, #1
 8000ab6:	2300      	movs	r3, #0
		sensor->data[i] = data[i];
 8000ab8:	f810 1f01 	ldrb.w	r1, [r0, #1]!
 8000abc:	6962      	ldr	r2, [r4, #20]
 8000abe:	54d1      	strb	r1, [r2, r3]
	for(int i=0; i<sensor->data_length; ++i){
 8000ac0:	3301      	adds	r3, #1
 8000ac2:	69a2      	ldr	r2, [r4, #24]
 8000ac4:	429a      	cmp	r2, r3
 8000ac6:	dcf7      	bgt.n	8000ab8 <xbee_char_load+0x1c>
	}
}
 8000ac8:	bd70      	pop	{r4, r5, r6, pc}

08000aca <xbee_transmit_char>:
void xbee_transmit_char(Xbee sensor, char *data){
 8000aca:	b084      	sub	sp, #16
 8000acc:	b508      	push	{r3, lr}
 8000ace:	f10d 0c08 	add.w	ip, sp, #8
 8000ad2:	e88c 000f 	stmia.w	ip, {r0, r1, r2, r3}
	xbee_char_load(data, &sensor);
 8000ad6:	4661      	mov	r1, ip
 8000ad8:	980b      	ldr	r0, [sp, #44]	; 0x2c
 8000ada:	f7ff ffdf 	bl	8000a9c <xbee_char_load>
	xbee_length(&sensor);
 8000ade:	a802      	add	r0, sp, #8
 8000ae0:	f7ff ff54 	bl	800098c <xbee_length>
	xbee_checksum_count(&sensor);
 8000ae4:	a802      	add	r0, sp, #8
 8000ae6:	f7ff ff5f 	bl	80009a8 <xbee_checksum_count>
	xbee_send(&sensor);
 8000aea:	a802      	add	r0, sp, #8
 8000aec:	f7ff ff7a 	bl	80009e4 <xbee_send>
}
 8000af0:	e8bd 4008 	ldmia.w	sp!, {r3, lr}
 8000af4:	b004      	add	sp, #16
 8000af6:	4770      	bx	lr

08000af8 <xbee_receive>:
    return result;
}


///zastanowić się jak sensownie zwracać dane
void xbee_receive(){
 8000af8:	b470      	push	{r4, r5, r6}
	for(int i=0; i<length; i++){
 8000afa:	4b34      	ldr	r3, [pc, #208]	; (8000bcc <xbee_receive+0xd4>)
 8000afc:	f1a3 0435 	sub.w	r4, r3, #53	; 0x35
 8000b00:	f103 011e 	add.w	r1, r3, #30
		array[i] = 0;
 8000b04:	2200      	movs	r2, #0
 8000b06:	f803 2f01 	strb.w	r2, [r3, #1]!
	for(int i=0; i<length; i++){
 8000b0a:	428b      	cmp	r3, r1
 8000b0c:	d1fb      	bne.n	8000b06 <xbee_receive+0xe>
	xbee_clear_array(xbee_rx.data_array, DATA_ARRAY);
	xbee_rx.data_flag = 0;
 8000b0e:	4b30      	ldr	r3, [pc, #192]	; (8000bd0 <xbee_receive+0xd8>)
 8000b10:	2200      	movs	r2, #0
 8000b12:	f883 2054 	strb.w	r2, [r3, #84]	; 0x54
	//ogarnięcie długości
	xbee_rx.length = (xbee_rx.mess_loaded[1] << 8) + xbee_rx.mess_loaded[2];
 8000b16:	795a      	ldrb	r2, [r3, #5]
 8000b18:	799d      	ldrb	r5, [r3, #6]
 8000b1a:	eb05 2502 	add.w	r5, r5, r2, lsl #8
 8000b1e:	601d      	str	r5, [r3, #0]
	//długość całej tablicy
	int mess_length = xbee_rx.length + 3; //3 bo dodajemy 4 elementy ale musimy odjąć jeden bo tablice sa numerowane od 0
 8000b20:	1cee      	adds	r6, r5, #3


	//sprawdzenie checksum
	for(int i=3; i<mess_length; i++){
 8000b22:	2e03      	cmp	r6, #3
 8000b24:	dd0e      	ble.n	8000b44 <xbee_receive+0x4c>
 8000b26:	461a      	mov	r2, r3
 8000b28:	f893 3055 	ldrb.w	r3, [r3, #85]	; 0x55
 8000b2c:	3206      	adds	r2, #6
 8000b2e:	1da0      	adds	r0, r4, #6
 8000b30:	4428      	add	r0, r5
		xbee_rx.checksum += xbee_rx.mess_loaded[i];
 8000b32:	f812 1f01 	ldrb.w	r1, [r2, #1]!
 8000b36:	440b      	add	r3, r1
 8000b38:	b2db      	uxtb	r3, r3
	for(int i=3; i<mess_length; i++){
 8000b3a:	4282      	cmp	r2, r0
 8000b3c:	d1f9      	bne.n	8000b32 <xbee_receive+0x3a>
 8000b3e:	4a24      	ldr	r2, [pc, #144]	; (8000bd0 <xbee_receive+0xd8>)
 8000b40:	f882 3055 	strb.w	r3, [r2, #85]	; 0x55
	}
	xbee_rx.checksum = 0xff - xbee_rx.checksum;
 8000b44:	4a22      	ldr	r2, [pc, #136]	; (8000bd0 <xbee_receive+0xd8>)
 8000b46:	f892 3055 	ldrb.w	r3, [r2, #85]	; 0x55
 8000b4a:	43db      	mvns	r3, r3
 8000b4c:	b2db      	uxtb	r3, r3
 8000b4e:	f882 3055 	strb.w	r3, [r2, #85]	; 0x55
	//sprawdzenie czy checksum sie zgadza
	if(xbee_rx.checksum != xbee_rx.mess_loaded[mess_length]){
 8000b52:	4432      	add	r2, r6
 8000b54:	7912      	ldrb	r2, [r2, #4]
 8000b56:	429a      	cmp	r2, r3
 8000b58:	d00e      	beq.n	8000b78 <xbee_receive+0x80>
 8000b5a:	4b1e      	ldr	r3, [pc, #120]	; (8000bd4 <xbee_receive+0xdc>)
 8000b5c:	f104 0235 	add.w	r2, r4, #53	; 0x35
		array[i] = 0;
 8000b60:	2100      	movs	r1, #0
 8000b62:	f803 1f01 	strb.w	r1, [r3, #1]!
	for(int i=0; i<length; i++){
 8000b66:	429a      	cmp	r2, r3
 8000b68:	d1fb      	bne.n	8000b62 <xbee_receive+0x6a>
	xbee_rx.length = 0;
 8000b6a:	4b19      	ldr	r3, [pc, #100]	; (8000bd0 <xbee_receive+0xd8>)
 8000b6c:	2200      	movs	r2, #0
 8000b6e:	601a      	str	r2, [r3, #0]
	xbee_rx.checksum = 0;
 8000b70:	f883 2055 	strb.w	r2, [r3, #85]	; 0x55
		//debug
		//xbee_rx.data_array[k] = '\n';
		//xbee_rx.data = xbee_data_convert(xbee_rx.data_array);
	}
	xbee_clear();
}
 8000b74:	bc70      	pop	{r4, r5, r6}
 8000b76:	4770      	bx	lr
	if(xbee_rx.length == 7){
 8000b78:	2d07      	cmp	r5, #7
 8000b7a:	d01c      	beq.n	8000bb6 <xbee_receive+0xbe>
		for(i = 15, k = 0; i<mess_length; ++i, ++k){
 8000b7c:	2e0f      	cmp	r6, #15
 8000b7e:	dd08      	ble.n	8000b92 <xbee_receive+0x9a>
 8000b80:	4b15      	ldr	r3, [pc, #84]	; (8000bd8 <xbee_receive+0xe0>)
 8000b82:	1da2      	adds	r2, r4, #6
 8000b84:	4415      	add	r5, r2
			xbee_rx.data_array[k] = xbee_rx.mess_loaded[i];
 8000b86:	f813 2f01 	ldrb.w	r2, [r3, #1]!
 8000b8a:	f883 2023 	strb.w	r2, [r3, #35]	; 0x23
		for(i = 15, k = 0; i<mess_length; ++i, ++k){
 8000b8e:	42ab      	cmp	r3, r5
 8000b90:	d1f9      	bne.n	8000b86 <xbee_receive+0x8e>
		xbee_rx.data_flag = 1;
 8000b92:	4b0f      	ldr	r3, [pc, #60]	; (8000bd0 <xbee_receive+0xd8>)
 8000b94:	2201      	movs	r2, #1
 8000b96:	f883 2054 	strb.w	r2, [r3, #84]	; 0x54
	for(int i=0; i<length; i++){
 8000b9a:	4b0e      	ldr	r3, [pc, #56]	; (8000bd4 <xbee_receive+0xdc>)
 8000b9c:	f104 0235 	add.w	r2, r4, #53	; 0x35
		array[i] = 0;
 8000ba0:	2100      	movs	r1, #0
 8000ba2:	f803 1f01 	strb.w	r1, [r3, #1]!
	for(int i=0; i<length; i++){
 8000ba6:	429a      	cmp	r2, r3
 8000ba8:	d1fb      	bne.n	8000ba2 <xbee_receive+0xaa>
	xbee_rx.length = 0;
 8000baa:	4b09      	ldr	r3, [pc, #36]	; (8000bd0 <xbee_receive+0xd8>)
 8000bac:	2200      	movs	r2, #0
 8000bae:	601a      	str	r2, [r3, #0]
	xbee_rx.checksum = 0;
 8000bb0:	f883 2055 	strb.w	r2, [r3, #85]	; 0x55
}
 8000bb4:	e7de      	b.n	8000b74 <xbee_receive+0x7c>
		if(xbee_rx.mess_loaded[mess_length-1] == 0 && xbee_rx.mess_loaded[mess_length-2] == 0 && xbee_rx.mess_loaded[mess_length-3] == 0){
 8000bb6:	4a06      	ldr	r2, [pc, #24]	; (8000bd0 <xbee_receive+0xd8>)
 8000bb8:	7b53      	ldrb	r3, [r2, #13]
 8000bba:	7b11      	ldrb	r1, [r2, #12]
 8000bbc:	430b      	orrs	r3, r1
 8000bbe:	7ad2      	ldrb	r2, [r2, #11]
 8000bc0:	4313      	orrs	r3, r2
 8000bc2:	d1ea      	bne.n	8000b9a <xbee_receive+0xa2>
			xbee_rx.response = 1;
 8000bc4:	4b02      	ldr	r3, [pc, #8]	; (8000bd0 <xbee_receive+0xd8>)
 8000bc6:	2201      	movs	r2, #1
 8000bc8:	659a      	str	r2, [r3, #88]	; 0x58
 8000bca:	e7e6      	b.n	8000b9a <xbee_receive+0xa2>
 8000bcc:	200000c1 	.word	0x200000c1
 8000bd0:	2000008c 	.word	0x2000008c
 8000bd4:	2000008f 	.word	0x2000008f
 8000bd8:	2000009e 	.word	0x2000009e

08000bdc <Reset_Handler>:
  .weak Reset_Handler
  .type Reset_Handler, %function
Reset_Handler:

/* Copy the data segment initializers from flash to SRAM */
  movs r1, #0
 8000bdc:	2100      	movs	r1, #0
  b LoopCopyDataInit
 8000bde:	e003      	b.n	8000be8 <LoopCopyDataInit>

08000be0 <CopyDataInit>:

CopyDataInit:
  ldr r3, =_sidata
 8000be0:	4b0b      	ldr	r3, [pc, #44]	; (8000c10 <LoopFillZerobss+0x14>)
  ldr r3, [r3, r1]
 8000be2:	585b      	ldr	r3, [r3, r1]
  str r3, [r0, r1]
 8000be4:	5043      	str	r3, [r0, r1]
  adds r1, r1, #4
 8000be6:	3104      	adds	r1, #4

08000be8 <LoopCopyDataInit>:

LoopCopyDataInit:
  ldr r0, =_sdata
 8000be8:	480a      	ldr	r0, [pc, #40]	; (8000c14 <LoopFillZerobss+0x18>)
  ldr r3, =_edata
 8000bea:	4b0b      	ldr	r3, [pc, #44]	; (8000c18 <LoopFillZerobss+0x1c>)
  adds r2, r0, r1
 8000bec:	1842      	adds	r2, r0, r1
  cmp r2, r3
 8000bee:	429a      	cmp	r2, r3
  bcc CopyDataInit
 8000bf0:	d3f6      	bcc.n	8000be0 <CopyDataInit>
  ldr r2, =_sbss
 8000bf2:	4a0a      	ldr	r2, [pc, #40]	; (8000c1c <LoopFillZerobss+0x20>)
  b LoopFillZerobss
 8000bf4:	e002      	b.n	8000bfc <LoopFillZerobss>

08000bf6 <FillZerobss>:
/* Zero fill the bss segment. */
FillZerobss:
  movs r3, #0
 8000bf6:	2300      	movs	r3, #0
  str r3, [r2], #4
 8000bf8:	f842 3b04 	str.w	r3, [r2], #4

08000bfc <LoopFillZerobss>:

LoopFillZerobss:
  ldr r3, = _ebss
 8000bfc:	4b08      	ldr	r3, [pc, #32]	; (8000c20 <LoopFillZerobss+0x24>)
  cmp r2, r3
 8000bfe:	429a      	cmp	r2, r3
  bcc FillZerobss
 8000c00:	d3f9      	bcc.n	8000bf6 <FillZerobss>

/* Call the clock system intitialization function.*/
    bl  SystemInit
 8000c02:	f7ff fd7b 	bl	80006fc <SystemInit>
/* Call static constructors */
    bl __libc_init_array
 8000c06:	f001 faff 	bl	8002208 <__libc_init_array>
/* Call the application's entry point.*/
  bl main
 8000c0a:	f7ff fb55 	bl	80002b8 <main>
  bx lr
 8000c0e:	4770      	bx	lr
  ldr r3, =_sidata
 8000c10:	08002bf8 	.word	0x08002bf8
  ldr r0, =_sdata
 8000c14:	20000000 	.word	0x20000000
  ldr r3, =_edata
 8000c18:	20000070 	.word	0x20000070
  ldr r2, =_sbss
 8000c1c:	20000070 	.word	0x20000070
  ldr r3, = _ebss
 8000c20:	20000564 	.word	0x20000564

08000c24 <ADC1_2_IRQHandler>:
 * @retval : None
*/
    .section .text.Default_Handler,"ax",%progbits
Default_Handler:
Infinite_Loop:
  b Infinite_Loop
 8000c24:	e7fe      	b.n	8000c24 <ADC1_2_IRQHandler>
	...

08000c28 <HAL_InitTick>:
  *       implementation  in user file.
  * @param TickPriority Tick interrupt priority.
  * @retval HAL status
  */
__weak HAL_StatusTypeDef HAL_InitTick(uint32_t TickPriority)
{
 8000c28:	b510      	push	{r4, lr}
 8000c2a:	4604      	mov	r4, r0
  /* Configure the SysTick to have interrupt in 1ms time basis*/
  if (HAL_SYSTICK_Config(SystemCoreClock / (1000U / uwTickFreq)) > 0U)
 8000c2c:	4b0e      	ldr	r3, [pc, #56]	; (8000c68 <HAL_InitTick+0x40>)
 8000c2e:	7818      	ldrb	r0, [r3, #0]
 8000c30:	f44f 737a 	mov.w	r3, #1000	; 0x3e8
 8000c34:	fbb3 f3f0 	udiv	r3, r3, r0
 8000c38:	4a0c      	ldr	r2, [pc, #48]	; (8000c6c <HAL_InitTick+0x44>)
 8000c3a:	6810      	ldr	r0, [r2, #0]
 8000c3c:	fbb0 f0f3 	udiv	r0, r0, r3
 8000c40:	f000 f8a2 	bl	8000d88 <HAL_SYSTICK_Config>
 8000c44:	b968      	cbnz	r0, 8000c62 <HAL_InitTick+0x3a>
  {
    return HAL_ERROR;
  }

  /* Configure the SysTick IRQ priority */
  if (TickPriority < (1UL << __NVIC_PRIO_BITS))
 8000c46:	2c0f      	cmp	r4, #15
 8000c48:	d901      	bls.n	8000c4e <HAL_InitTick+0x26>
    HAL_NVIC_SetPriority(SysTick_IRQn, TickPriority, 0U);
    uwTickPrio = TickPriority;
  }
  else
  {
    return HAL_ERROR;
 8000c4a:	2001      	movs	r0, #1
 8000c4c:	e00a      	b.n	8000c64 <HAL_InitTick+0x3c>
    HAL_NVIC_SetPriority(SysTick_IRQn, TickPriority, 0U);
 8000c4e:	2200      	movs	r2, #0
 8000c50:	4621      	mov	r1, r4
 8000c52:	f04f 30ff 	mov.w	r0, #4294967295
 8000c56:	f000 f857 	bl	8000d08 <HAL_NVIC_SetPriority>
    uwTickPrio = TickPriority;
 8000c5a:	4b05      	ldr	r3, [pc, #20]	; (8000c70 <HAL_InitTick+0x48>)
 8000c5c:	601c      	str	r4, [r3, #0]
  }

  /* Return function status */
  return HAL_OK;
 8000c5e:	2000      	movs	r0, #0
 8000c60:	e000      	b.n	8000c64 <HAL_InitTick+0x3c>
    return HAL_ERROR;
 8000c62:	2001      	movs	r0, #1
}
 8000c64:	bd10      	pop	{r4, pc}
 8000c66:	bf00      	nop
 8000c68:	20000004 	.word	0x20000004
 8000c6c:	20000000 	.word	0x20000000
 8000c70:	20000008 	.word	0x20000008

08000c74 <HAL_Init>:
{
 8000c74:	b508      	push	{r3, lr}
  __HAL_FLASH_PREFETCH_BUFFER_ENABLE();
 8000c76:	4a07      	ldr	r2, [pc, #28]	; (8000c94 <HAL_Init+0x20>)
 8000c78:	6813      	ldr	r3, [r2, #0]
 8000c7a:	f043 0310 	orr.w	r3, r3, #16
 8000c7e:	6013      	str	r3, [r2, #0]
  HAL_NVIC_SetPriorityGrouping(NVIC_PRIORITYGROUP_4);
 8000c80:	2003      	movs	r0, #3
 8000c82:	f000 f82f 	bl	8000ce4 <HAL_NVIC_SetPriorityGrouping>
  HAL_InitTick(TICK_INT_PRIORITY);
 8000c86:	2000      	movs	r0, #0
 8000c88:	f7ff ffce 	bl	8000c28 <HAL_InitTick>
  HAL_MspInit();
 8000c8c:	f7ff fcde 	bl	800064c <HAL_MspInit>
}
 8000c90:	2000      	movs	r0, #0
 8000c92:	bd08      	pop	{r3, pc}
 8000c94:	40022000 	.word	0x40022000

08000c98 <HAL_IncTick>:
  *      implementations in user file.
  * @retval None
  */
__weak void HAL_IncTick(void)
{
  uwTick += uwTickFreq;
 8000c98:	4a03      	ldr	r2, [pc, #12]	; (8000ca8 <HAL_IncTick+0x10>)
 8000c9a:	6811      	ldr	r1, [r2, #0]
 8000c9c:	4b03      	ldr	r3, [pc, #12]	; (8000cac <HAL_IncTick+0x14>)
 8000c9e:	781b      	ldrb	r3, [r3, #0]
 8000ca0:	440b      	add	r3, r1
 8000ca2:	6013      	str	r3, [r2, #0]
}
 8000ca4:	4770      	bx	lr
 8000ca6:	bf00      	nop
 8000ca8:	20000550 	.word	0x20000550
 8000cac:	20000004 	.word	0x20000004

08000cb0 <HAL_GetTick>:
  *       implementations in user file.
  * @retval tick value
  */
__weak uint32_t HAL_GetTick(void)
{
  return uwTick;
 8000cb0:	4b01      	ldr	r3, [pc, #4]	; (8000cb8 <HAL_GetTick+0x8>)
 8000cb2:	6818      	ldr	r0, [r3, #0]
}
 8000cb4:	4770      	bx	lr
 8000cb6:	bf00      	nop
 8000cb8:	20000550 	.word	0x20000550

08000cbc <HAL_Delay>:
  *       implementations in user file.
  * @param Delay specifies the delay time length, in milliseconds.
  * @retval None
  */
__weak void HAL_Delay(uint32_t Delay)
{
 8000cbc:	b538      	push	{r3, r4, r5, lr}
 8000cbe:	4604      	mov	r4, r0
  uint32_t tickstart = HAL_GetTick();
 8000cc0:	f7ff fff6 	bl	8000cb0 <HAL_GetTick>
 8000cc4:	4605      	mov	r5, r0
  uint32_t wait = Delay;

  /* Add a freq to guarantee minimum wait */
  if (wait < HAL_MAX_DELAY)
 8000cc6:	f1b4 3fff 	cmp.w	r4, #4294967295
 8000cca:	d002      	beq.n	8000cd2 <HAL_Delay+0x16>
  {
    wait += (uint32_t)(uwTickFreq);
 8000ccc:	4b04      	ldr	r3, [pc, #16]	; (8000ce0 <HAL_Delay+0x24>)
 8000cce:	781b      	ldrb	r3, [r3, #0]
 8000cd0:	441c      	add	r4, r3
  }

  while ((HAL_GetTick() - tickstart) < wait)
 8000cd2:	f7ff ffed 	bl	8000cb0 <HAL_GetTick>
 8000cd6:	1b40      	subs	r0, r0, r5
 8000cd8:	42a0      	cmp	r0, r4
 8000cda:	d3fa      	bcc.n	8000cd2 <HAL_Delay+0x16>
  {
  }
}
 8000cdc:	bd38      	pop	{r3, r4, r5, pc}
 8000cde:	bf00      	nop
 8000ce0:	20000004 	.word	0x20000004

08000ce4 <HAL_NVIC_SetPriorityGrouping>:
__STATIC_INLINE void __NVIC_SetPriorityGrouping(uint32_t PriorityGroup)
{
  uint32_t reg_value;
  uint32_t PriorityGroupTmp = (PriorityGroup & (uint32_t)0x07UL);             /* only values 0..7 are used          */

  reg_value  =  SCB->AIRCR;                                                   /* read old register configuration    */
 8000ce4:	4907      	ldr	r1, [pc, #28]	; (8000d04 <HAL_NVIC_SetPriorityGrouping+0x20>)
 8000ce6:	68ca      	ldr	r2, [r1, #12]
  reg_value &= ~((uint32_t)(SCB_AIRCR_VECTKEY_Msk | SCB_AIRCR_PRIGROUP_Msk)); /* clear bits to change               */
  reg_value  =  (reg_value                                   |
                ((uint32_t)0x5FAUL << SCB_AIRCR_VECTKEY_Pos) |
                (PriorityGroupTmp << SCB_AIRCR_PRIGROUP_Pos) );               /* Insert write key and priority group */
 8000ce8:	0203      	lsls	r3, r0, #8
 8000cea:	f403 63e0 	and.w	r3, r3, #1792	; 0x700
  reg_value &= ~((uint32_t)(SCB_AIRCR_VECTKEY_Msk | SCB_AIRCR_PRIGROUP_Msk)); /* clear bits to change               */
 8000cee:	f422 62e0 	bic.w	r2, r2, #1792	; 0x700
 8000cf2:	0412      	lsls	r2, r2, #16
 8000cf4:	0c12      	lsrs	r2, r2, #16
                ((uint32_t)0x5FAUL << SCB_AIRCR_VECTKEY_Pos) |
 8000cf6:	4313      	orrs	r3, r2
  reg_value  =  (reg_value                                   |
 8000cf8:	f043 63bf 	orr.w	r3, r3, #100139008	; 0x5f80000
 8000cfc:	f443 3300 	orr.w	r3, r3, #131072	; 0x20000
  SCB->AIRCR =  reg_value;
 8000d00:	60cb      	str	r3, [r1, #12]
  /* Check the parameters */
  assert_param(IS_NVIC_PRIORITY_GROUP(PriorityGroup));
  
  /* Set the PRIGROUP[10:8] bits according to the PriorityGroup parameter value */
  NVIC_SetPriorityGrouping(PriorityGroup);
}
 8000d02:	4770      	bx	lr
 8000d04:	e000ed00 	.word	0xe000ed00

08000d08 <HAL_NVIC_SetPriority>:
  *         This parameter can be a value between 0 and 15
  *         A lower priority value indicates a higher priority.          
  * @retval None
  */
void HAL_NVIC_SetPriority(IRQn_Type IRQn, uint32_t PreemptPriority, uint32_t SubPriority)
{ 
 8000d08:	b430      	push	{r4, r5}
  \details Reads the priority grouping field from the NVIC Interrupt Controller.
  \return                Priority grouping field (SCB->AIRCR [10:8] PRIGROUP field).
 */
__STATIC_INLINE uint32_t __NVIC_GetPriorityGrouping(void)
{
  return ((uint32_t)((SCB->AIRCR & SCB_AIRCR_PRIGROUP_Msk) >> SCB_AIRCR_PRIGROUP_Pos));
 8000d0a:	4b16      	ldr	r3, [pc, #88]	; (8000d64 <HAL_NVIC_SetPriority+0x5c>)
 8000d0c:	68db      	ldr	r3, [r3, #12]
 8000d0e:	f3c3 2302 	ubfx	r3, r3, #8, #3
{
  uint32_t PriorityGroupTmp = (PriorityGroup & (uint32_t)0x07UL);   /* only values 0..7 are used          */
  uint32_t PreemptPriorityBits;
  uint32_t SubPriorityBits;

  PreemptPriorityBits = ((7UL - PriorityGroupTmp) > (uint32_t)(__NVIC_PRIO_BITS)) ? (uint32_t)(__NVIC_PRIO_BITS) : (uint32_t)(7UL - PriorityGroupTmp);
 8000d12:	f1c3 0407 	rsb	r4, r3, #7
 8000d16:	2c04      	cmp	r4, #4
 8000d18:	bf28      	it	cs
 8000d1a:	2404      	movcs	r4, #4
  SubPriorityBits     = ((PriorityGroupTmp + (uint32_t)(__NVIC_PRIO_BITS)) < (uint32_t)7UL) ? (uint32_t)0UL : (uint32_t)((PriorityGroupTmp - 7UL) + (uint32_t)(__NVIC_PRIO_BITS));
 8000d1c:	1d1d      	adds	r5, r3, #4
 8000d1e:	2d06      	cmp	r5, #6
 8000d20:	bf8c      	ite	hi
 8000d22:	3b03      	subhi	r3, #3
 8000d24:	2300      	movls	r3, #0

  return (
           ((PreemptPriority & (uint32_t)((1UL << (PreemptPriorityBits)) - 1UL)) << SubPriorityBits) |
 8000d26:	f04f 35ff 	mov.w	r5, #4294967295
 8000d2a:	fa05 f404 	lsl.w	r4, r5, r4
 8000d2e:	ea21 0104 	bic.w	r1, r1, r4
 8000d32:	4099      	lsls	r1, r3
           ((SubPriority     & (uint32_t)((1UL << (SubPriorityBits    )) - 1UL)))
 8000d34:	fa05 f303 	lsl.w	r3, r5, r3
 8000d38:	ea22 0203 	bic.w	r2, r2, r3
           ((PreemptPriority & (uint32_t)((1UL << (PreemptPriorityBits)) - 1UL)) << SubPriorityBits) |
 8000d3c:	4311      	orrs	r1, r2
  if ((int32_t)(IRQn) >= 0)
 8000d3e:	2800      	cmp	r0, #0
 8000d40:	db09      	blt.n	8000d56 <HAL_NVIC_SetPriority+0x4e>
    NVIC->IP[((uint32_t)IRQn)]               = (uint8_t)((priority << (8U - __NVIC_PRIO_BITS)) & (uint32_t)0xFFUL);
 8000d42:	0109      	lsls	r1, r1, #4
 8000d44:	b2c9      	uxtb	r1, r1
 8000d46:	f100 4060 	add.w	r0, r0, #3758096384	; 0xe0000000
 8000d4a:	f500 4061 	add.w	r0, r0, #57600	; 0xe100
 8000d4e:	f880 1300 	strb.w	r1, [r0, #768]	; 0x300
  assert_param(IS_NVIC_PREEMPTION_PRIORITY(PreemptPriority));
  
  prioritygroup = NVIC_GetPriorityGrouping();
  
  NVIC_SetPriority(IRQn, NVIC_EncodePriority(prioritygroup, PreemptPriority, SubPriority));
}
 8000d52:	bc30      	pop	{r4, r5}
 8000d54:	4770      	bx	lr
    SCB->SHP[(((uint32_t)IRQn) & 0xFUL)-4UL] = (uint8_t)((priority << (8U - __NVIC_PRIO_BITS)) & (uint32_t)0xFFUL);
 8000d56:	f000 000f 	and.w	r0, r0, #15
 8000d5a:	0109      	lsls	r1, r1, #4
 8000d5c:	b2c9      	uxtb	r1, r1
 8000d5e:	4b02      	ldr	r3, [pc, #8]	; (8000d68 <HAL_NVIC_SetPriority+0x60>)
 8000d60:	5419      	strb	r1, [r3, r0]
 8000d62:	e7f6      	b.n	8000d52 <HAL_NVIC_SetPriority+0x4a>
 8000d64:	e000ed00 	.word	0xe000ed00
 8000d68:	e000ed14 	.word	0xe000ed14

08000d6c <HAL_NVIC_EnableIRQ>:
  if ((int32_t)(IRQn) >= 0)
 8000d6c:	2800      	cmp	r0, #0
 8000d6e:	db08      	blt.n	8000d82 <HAL_NVIC_EnableIRQ+0x16>
    NVIC->ISER[(((uint32_t)IRQn) >> 5UL)] = (uint32_t)(1UL << (((uint32_t)IRQn) & 0x1FUL));
 8000d70:	0942      	lsrs	r2, r0, #5
 8000d72:	f000 001f 	and.w	r0, r0, #31
 8000d76:	2301      	movs	r3, #1
 8000d78:	fa03 f000 	lsl.w	r0, r3, r0
 8000d7c:	4b01      	ldr	r3, [pc, #4]	; (8000d84 <HAL_NVIC_EnableIRQ+0x18>)
 8000d7e:	f843 0022 	str.w	r0, [r3, r2, lsl #2]
  /* Check the parameters */
  assert_param(IS_NVIC_DEVICE_IRQ(IRQn));

  /* Enable interrupt */
  NVIC_EnableIRQ(IRQn);
}
 8000d82:	4770      	bx	lr
 8000d84:	e000e100 	.word	0xe000e100

08000d88 <HAL_SYSTICK_Config>:
           function <b>SysTick_Config</b> is not included. In this case, the file <b><i>device</i>.h</b>
           must contain a vendor-specific implementation of this function.
 */
__STATIC_INLINE uint32_t SysTick_Config(uint32_t ticks)
{
  if ((ticks - 1UL) > SysTick_LOAD_RELOAD_Msk)
 8000d88:	3801      	subs	r0, #1
 8000d8a:	f1b0 7f80 	cmp.w	r0, #16777216	; 0x1000000
 8000d8e:	d20a      	bcs.n	8000da6 <HAL_SYSTICK_Config+0x1e>
  {
    return (1UL);                                                   /* Reload value impossible */
  }

  SysTick->LOAD  = (uint32_t)(ticks - 1UL);                         /* set reload register */
 8000d90:	4b06      	ldr	r3, [pc, #24]	; (8000dac <HAL_SYSTICK_Config+0x24>)
 8000d92:	6058      	str	r0, [r3, #4]
    SCB->SHP[(((uint32_t)IRQn) & 0xFUL)-4UL] = (uint8_t)((priority << (8U - __NVIC_PRIO_BITS)) & (uint32_t)0xFFUL);
 8000d94:	4a06      	ldr	r2, [pc, #24]	; (8000db0 <HAL_SYSTICK_Config+0x28>)
 8000d96:	21f0      	movs	r1, #240	; 0xf0
 8000d98:	f882 1023 	strb.w	r1, [r2, #35]	; 0x23
  NVIC_SetPriority (SysTick_IRQn, (1UL << __NVIC_PRIO_BITS) - 1UL); /* set Priority for Systick Interrupt */
  SysTick->VAL   = 0UL;                                             /* Load the SysTick Counter Value */
 8000d9c:	2000      	movs	r0, #0
 8000d9e:	6098      	str	r0, [r3, #8]
  SysTick->CTRL  = SysTick_CTRL_CLKSOURCE_Msk |
 8000da0:	2207      	movs	r2, #7
 8000da2:	601a      	str	r2, [r3, #0]
                   SysTick_CTRL_TICKINT_Msk   |
                   SysTick_CTRL_ENABLE_Msk;                         /* Enable SysTick IRQ and SysTick Timer */
  return (0UL);                                                     /* Function successful */
 8000da4:	4770      	bx	lr
    return (1UL);                                                   /* Reload value impossible */
 8000da6:	2001      	movs	r0, #1
  *                  - 1  Function failed.
  */
uint32_t HAL_SYSTICK_Config(uint32_t TicksNumb)
{
   return SysTick_Config(TicksNumb);
}
 8000da8:	4770      	bx	lr
 8000daa:	bf00      	nop
 8000dac:	e000e010 	.word	0xe000e010
 8000db0:	e000ed00 	.word	0xe000ed00

08000db4 <HAL_DMA_Init>:
HAL_StatusTypeDef HAL_DMA_Init(DMA_HandleTypeDef *hdma)
{
  uint32_t tmp = 0U;

  /* Check the DMA handle allocation */
  if(hdma == NULL)
 8000db4:	b360      	cbz	r0, 8000e10 <HAL_DMA_Init+0x5c>
{
 8000db6:	b410      	push	{r4}
 8000db8:	4602      	mov	r2, r0
    hdma->ChannelIndex = (((uint32_t)hdma->Instance - (uint32_t)DMA2_Channel1) / ((uint32_t)DMA2_Channel2 - (uint32_t)DMA2_Channel1)) << 2;
    hdma->DmaBaseAddress = DMA2;
  }
#else
  /* DMA1 */
  hdma->ChannelIndex = (((uint32_t)hdma->Instance - (uint32_t)DMA1_Channel1) / ((uint32_t)DMA1_Channel2 - (uint32_t)DMA1_Channel1)) << 2;
 8000dba:	6801      	ldr	r1, [r0, #0]
 8000dbc:	4b15      	ldr	r3, [pc, #84]	; (8000e14 <HAL_DMA_Init+0x60>)
 8000dbe:	440b      	add	r3, r1
 8000dc0:	4815      	ldr	r0, [pc, #84]	; (8000e18 <HAL_DMA_Init+0x64>)
 8000dc2:	fba0 0303 	umull	r0, r3, r0, r3
 8000dc6:	091b      	lsrs	r3, r3, #4
 8000dc8:	009b      	lsls	r3, r3, #2
 8000dca:	6413      	str	r3, [r2, #64]	; 0x40
  hdma->DmaBaseAddress = DMA1;
 8000dcc:	4b13      	ldr	r3, [pc, #76]	; (8000e1c <HAL_DMA_Init+0x68>)
 8000dce:	63d3      	str	r3, [r2, #60]	; 0x3c
#endif /* DMA2 */

  /* Change DMA peripheral state */
  hdma->State = HAL_DMA_STATE_BUSY;
 8000dd0:	2302      	movs	r3, #2
 8000dd2:	f882 3021 	strb.w	r3, [r2, #33]	; 0x21

  /* Get the CR register value */
  tmp = hdma->Instance->CCR;
 8000dd6:	6808      	ldr	r0, [r1, #0]

  /* Clear PL, MSIZE, PSIZE, MINC, PINC, CIRC and DIR bits */
  tmp &= ((uint32_t)~(DMA_CCR_PL    | DMA_CCR_MSIZE  | DMA_CCR_PSIZE  | \
 8000dd8:	f420 507f 	bic.w	r0, r0, #16320	; 0x3fc0
 8000ddc:	f020 0030 	bic.w	r0, r0, #48	; 0x30
                      DMA_CCR_MINC  | DMA_CCR_PINC   | DMA_CCR_CIRC   | \
                      DMA_CCR_DIR));

  /* Prepare the DMA Channel configuration */
  tmp |=  hdma->Init.Direction        |
 8000de0:	6853      	ldr	r3, [r2, #4]
 8000de2:	6894      	ldr	r4, [r2, #8]
 8000de4:	4323      	orrs	r3, r4
          hdma->Init.PeriphInc           | hdma->Init.MemInc           |
 8000de6:	68d4      	ldr	r4, [r2, #12]
 8000de8:	4323      	orrs	r3, r4
 8000dea:	6914      	ldr	r4, [r2, #16]
 8000dec:	4323      	orrs	r3, r4
          hdma->Init.PeriphDataAlignment | hdma->Init.MemDataAlignment |
 8000dee:	6954      	ldr	r4, [r2, #20]
 8000df0:	4323      	orrs	r3, r4
 8000df2:	6994      	ldr	r4, [r2, #24]
 8000df4:	4323      	orrs	r3, r4
          hdma->Init.Mode                | hdma->Init.Priority;
 8000df6:	69d4      	ldr	r4, [r2, #28]
 8000df8:	4323      	orrs	r3, r4
  tmp |=  hdma->Init.Direction        |
 8000dfa:	4303      	orrs	r3, r0

  /* Write to DMA Channel CR register */
  hdma->Instance->CCR = tmp;
 8000dfc:	600b      	str	r3, [r1, #0]

  /* Initialise the error code */
  hdma->ErrorCode = HAL_DMA_ERROR_NONE;
 8000dfe:	2000      	movs	r0, #0
 8000e00:	6390      	str	r0, [r2, #56]	; 0x38

  /* Initialize the DMA state*/
  hdma->State = HAL_DMA_STATE_READY;
 8000e02:	2301      	movs	r3, #1
 8000e04:	f882 3021 	strb.w	r3, [r2, #33]	; 0x21
  /* Allocate lock resource and initialize it */
  hdma->Lock = HAL_UNLOCKED;
 8000e08:	f882 0020 	strb.w	r0, [r2, #32]

  return HAL_OK;
}
 8000e0c:	bc10      	pop	{r4}
 8000e0e:	4770      	bx	lr
    return HAL_ERROR;
 8000e10:	2001      	movs	r0, #1
}
 8000e12:	4770      	bx	lr
 8000e14:	bffdfff8 	.word	0xbffdfff8
 8000e18:	cccccccd 	.word	0xcccccccd
 8000e1c:	40020000 	.word	0x40020000

08000e20 <HAL_DMA_Start_IT>:
  * @param  DstAddress: The destination memory Buffer address
  * @param  DataLength: The length of data to be transferred from source to destination
  * @retval HAL status
  */
HAL_StatusTypeDef HAL_DMA_Start_IT(DMA_HandleTypeDef *hdma, uint32_t SrcAddress, uint32_t DstAddress, uint32_t DataLength)
{
 8000e20:	b470      	push	{r4, r5, r6}

  /* Check the parameters */
  assert_param(IS_DMA_BUFFER_SIZE(DataLength));

  /* Process locked */
  __HAL_LOCK(hdma);
 8000e22:	f890 4020 	ldrb.w	r4, [r0, #32]
 8000e26:	2c01      	cmp	r4, #1
 8000e28:	d042      	beq.n	8000eb0 <HAL_DMA_Start_IT+0x90>
 8000e2a:	2401      	movs	r4, #1
 8000e2c:	f880 4020 	strb.w	r4, [r0, #32]
  
  if(HAL_DMA_STATE_READY == hdma->State)
 8000e30:	f890 4021 	ldrb.w	r4, [r0, #33]	; 0x21
 8000e34:	2c01      	cmp	r4, #1
 8000e36:	d005      	beq.n	8000e44 <HAL_DMA_Start_IT+0x24>
    __HAL_DMA_ENABLE(hdma);
  }
  else
  {      
    /* Process Unlocked */
    __HAL_UNLOCK(hdma); 
 8000e38:	2300      	movs	r3, #0
 8000e3a:	f880 3020 	strb.w	r3, [r0, #32]

    /* Remain BUSY */
    status = HAL_BUSY;
 8000e3e:	2002      	movs	r0, #2
  }    
  return status;
}
 8000e40:	bc70      	pop	{r4, r5, r6}
 8000e42:	4770      	bx	lr
    hdma->State = HAL_DMA_STATE_BUSY;
 8000e44:	2402      	movs	r4, #2
 8000e46:	f880 4021 	strb.w	r4, [r0, #33]	; 0x21
    hdma->ErrorCode = HAL_DMA_ERROR_NONE;
 8000e4a:	2400      	movs	r4, #0
 8000e4c:	6384      	str	r4, [r0, #56]	; 0x38
    __HAL_DMA_DISABLE(hdma);
 8000e4e:	6805      	ldr	r5, [r0, #0]
 8000e50:	682c      	ldr	r4, [r5, #0]
 8000e52:	f024 0401 	bic.w	r4, r4, #1
 8000e56:	602c      	str	r4, [r5, #0]
  * @retval HAL status
  */
static void DMA_SetConfig(DMA_HandleTypeDef *hdma, uint32_t SrcAddress, uint32_t DstAddress, uint32_t DataLength)
{
  /* Clear all flags */
  hdma->DmaBaseAddress->IFCR = (DMA_ISR_GIF1 << hdma->ChannelIndex);
 8000e58:	6bc5      	ldr	r5, [r0, #60]	; 0x3c
 8000e5a:	6c06      	ldr	r6, [r0, #64]	; 0x40
 8000e5c:	2401      	movs	r4, #1
 8000e5e:	40b4      	lsls	r4, r6
 8000e60:	606c      	str	r4, [r5, #4]

  /* Configure DMA Channel data length */
  hdma->Instance->CNDTR = DataLength;
 8000e62:	6804      	ldr	r4, [r0, #0]
 8000e64:	6063      	str	r3, [r4, #4]

  /* Memory to Peripheral */
  if((hdma->Init.Direction) == DMA_MEMORY_TO_PERIPH)
 8000e66:	6843      	ldr	r3, [r0, #4]
 8000e68:	2b10      	cmp	r3, #16
 8000e6a:	d011      	beq.n	8000e90 <HAL_DMA_Start_IT+0x70>
  }
  /* Peripheral to Memory */
  else
  {
    /* Configure DMA Channel source address */
    hdma->Instance->CPAR = SrcAddress;
 8000e6c:	6803      	ldr	r3, [r0, #0]
 8000e6e:	6099      	str	r1, [r3, #8]

    /* Configure DMA Channel destination address */
    hdma->Instance->CMAR = DstAddress;
 8000e70:	6803      	ldr	r3, [r0, #0]
 8000e72:	60da      	str	r2, [r3, #12]
    if(NULL != hdma->XferHalfCpltCallback)
 8000e74:	6ac3      	ldr	r3, [r0, #44]	; 0x2c
 8000e76:	b183      	cbz	r3, 8000e9a <HAL_DMA_Start_IT+0x7a>
      __HAL_DMA_ENABLE_IT(hdma, (DMA_IT_TC | DMA_IT_HT | DMA_IT_TE));
 8000e78:	6802      	ldr	r2, [r0, #0]
 8000e7a:	6813      	ldr	r3, [r2, #0]
 8000e7c:	f043 030e 	orr.w	r3, r3, #14
 8000e80:	6013      	str	r3, [r2, #0]
    __HAL_DMA_ENABLE(hdma);
 8000e82:	6802      	ldr	r2, [r0, #0]
 8000e84:	6813      	ldr	r3, [r2, #0]
 8000e86:	f043 0301 	orr.w	r3, r3, #1
 8000e8a:	6013      	str	r3, [r2, #0]
  HAL_StatusTypeDef status = HAL_OK;
 8000e8c:	2000      	movs	r0, #0
 8000e8e:	e7d7      	b.n	8000e40 <HAL_DMA_Start_IT+0x20>
    hdma->Instance->CPAR = DstAddress;
 8000e90:	6803      	ldr	r3, [r0, #0]
 8000e92:	609a      	str	r2, [r3, #8]
    hdma->Instance->CMAR = SrcAddress;
 8000e94:	6803      	ldr	r3, [r0, #0]
 8000e96:	60d9      	str	r1, [r3, #12]
 8000e98:	e7ec      	b.n	8000e74 <HAL_DMA_Start_IT+0x54>
      __HAL_DMA_DISABLE_IT(hdma, DMA_IT_HT);
 8000e9a:	6802      	ldr	r2, [r0, #0]
 8000e9c:	6813      	ldr	r3, [r2, #0]
 8000e9e:	f023 0304 	bic.w	r3, r3, #4
 8000ea2:	6013      	str	r3, [r2, #0]
      __HAL_DMA_ENABLE_IT(hdma, (DMA_IT_TC | DMA_IT_TE));
 8000ea4:	6802      	ldr	r2, [r0, #0]
 8000ea6:	6813      	ldr	r3, [r2, #0]
 8000ea8:	f043 030a 	orr.w	r3, r3, #10
 8000eac:	6013      	str	r3, [r2, #0]
 8000eae:	e7e8      	b.n	8000e82 <HAL_DMA_Start_IT+0x62>
  __HAL_LOCK(hdma);
 8000eb0:	2002      	movs	r0, #2
 8000eb2:	e7c5      	b.n	8000e40 <HAL_DMA_Start_IT+0x20>

08000eb4 <HAL_DMA_Abort>:
  if(hdma->State != HAL_DMA_STATE_BUSY)
 8000eb4:	f890 3021 	ldrb.w	r3, [r0, #33]	; 0x21
 8000eb8:	2b02      	cmp	r3, #2
 8000eba:	d006      	beq.n	8000eca <HAL_DMA_Abort+0x16>
    hdma->ErrorCode = HAL_DMA_ERROR_NO_XFER;
 8000ebc:	2304      	movs	r3, #4
 8000ebe:	6383      	str	r3, [r0, #56]	; 0x38
    __HAL_UNLOCK(hdma);
 8000ec0:	2300      	movs	r3, #0
 8000ec2:	f880 3020 	strb.w	r3, [r0, #32]
    return HAL_ERROR;
 8000ec6:	2001      	movs	r0, #1
 8000ec8:	4770      	bx	lr
    __HAL_DMA_DISABLE_IT(hdma, (DMA_IT_TC | DMA_IT_HT | DMA_IT_TE));
 8000eca:	6802      	ldr	r2, [r0, #0]
 8000ecc:	6813      	ldr	r3, [r2, #0]
 8000ece:	f023 030e 	bic.w	r3, r3, #14
 8000ed2:	6013      	str	r3, [r2, #0]
    __HAL_DMA_DISABLE(hdma);
 8000ed4:	6802      	ldr	r2, [r0, #0]
 8000ed6:	6813      	ldr	r3, [r2, #0]
 8000ed8:	f023 0301 	bic.w	r3, r3, #1
 8000edc:	6013      	str	r3, [r2, #0]
    hdma->DmaBaseAddress->IFCR = (DMA_ISR_GIF1 << hdma->ChannelIndex);
 8000ede:	6bc1      	ldr	r1, [r0, #60]	; 0x3c
 8000ee0:	2201      	movs	r2, #1
 8000ee2:	6c03      	ldr	r3, [r0, #64]	; 0x40
 8000ee4:	fa02 f303 	lsl.w	r3, r2, r3
 8000ee8:	604b      	str	r3, [r1, #4]
  hdma->State = HAL_DMA_STATE_READY;
 8000eea:	f880 2021 	strb.w	r2, [r0, #33]	; 0x21
  __HAL_UNLOCK(hdma);      
 8000eee:	2300      	movs	r3, #0
 8000ef0:	f880 3020 	strb.w	r3, [r0, #32]
  return status; 
 8000ef4:	4618      	mov	r0, r3
}
 8000ef6:	4770      	bx	lr

08000ef8 <HAL_DMA_Abort_IT>:
{  
 8000ef8:	b508      	push	{r3, lr}
  if(HAL_DMA_STATE_BUSY != hdma->State)
 8000efa:	f890 3021 	ldrb.w	r3, [r0, #33]	; 0x21
 8000efe:	2b02      	cmp	r3, #2
 8000f00:	d003      	beq.n	8000f0a <HAL_DMA_Abort_IT+0x12>
    hdma->ErrorCode = HAL_DMA_ERROR_NO_XFER;
 8000f02:	2304      	movs	r3, #4
 8000f04:	6383      	str	r3, [r0, #56]	; 0x38
    status = HAL_ERROR;
 8000f06:	2001      	movs	r0, #1
}
 8000f08:	bd08      	pop	{r3, pc}
    __HAL_DMA_DISABLE_IT(hdma, (DMA_IT_TC | DMA_IT_HT | DMA_IT_TE));
 8000f0a:	6802      	ldr	r2, [r0, #0]
 8000f0c:	6813      	ldr	r3, [r2, #0]
 8000f0e:	f023 030e 	bic.w	r3, r3, #14
 8000f12:	6013      	str	r3, [r2, #0]
    __HAL_DMA_DISABLE(hdma);
 8000f14:	6802      	ldr	r2, [r0, #0]
 8000f16:	6813      	ldr	r3, [r2, #0]
 8000f18:	f023 0301 	bic.w	r3, r3, #1
 8000f1c:	6013      	str	r3, [r2, #0]
    __HAL_DMA_CLEAR_FLAG(hdma, __HAL_DMA_GET_GI_FLAG_INDEX(hdma));
 8000f1e:	6803      	ldr	r3, [r0, #0]
 8000f20:	4a18      	ldr	r2, [pc, #96]	; (8000f84 <HAL_DMA_Abort_IT+0x8c>)
 8000f22:	4293      	cmp	r3, r2
 8000f24:	d013      	beq.n	8000f4e <HAL_DMA_Abort_IT+0x56>
 8000f26:	3214      	adds	r2, #20
 8000f28:	4293      	cmp	r3, r2
 8000f2a:	d01e      	beq.n	8000f6a <HAL_DMA_Abort_IT+0x72>
 8000f2c:	3214      	adds	r2, #20
 8000f2e:	4293      	cmp	r3, r2
 8000f30:	d01d      	beq.n	8000f6e <HAL_DMA_Abort_IT+0x76>
 8000f32:	3214      	adds	r2, #20
 8000f34:	4293      	cmp	r3, r2
 8000f36:	d01d      	beq.n	8000f74 <HAL_DMA_Abort_IT+0x7c>
 8000f38:	3214      	adds	r2, #20
 8000f3a:	4293      	cmp	r3, r2
 8000f3c:	d01d      	beq.n	8000f7a <HAL_DMA_Abort_IT+0x82>
 8000f3e:	3214      	adds	r2, #20
 8000f40:	4293      	cmp	r3, r2
 8000f42:	bf0c      	ite	eq
 8000f44:	f44f 1380 	moveq.w	r3, #1048576	; 0x100000
 8000f48:	f04f 7380 	movne.w	r3, #16777216	; 0x1000000
 8000f4c:	e000      	b.n	8000f50 <HAL_DMA_Abort_IT+0x58>
 8000f4e:	2301      	movs	r3, #1
 8000f50:	4a0d      	ldr	r2, [pc, #52]	; (8000f88 <HAL_DMA_Abort_IT+0x90>)
 8000f52:	6053      	str	r3, [r2, #4]
    hdma->State = HAL_DMA_STATE_READY;
 8000f54:	2301      	movs	r3, #1
 8000f56:	f880 3021 	strb.w	r3, [r0, #33]	; 0x21
    __HAL_UNLOCK(hdma);
 8000f5a:	2300      	movs	r3, #0
 8000f5c:	f880 3020 	strb.w	r3, [r0, #32]
    if(hdma->XferAbortCallback != NULL)
 8000f60:	6b43      	ldr	r3, [r0, #52]	; 0x34
 8000f62:	b16b      	cbz	r3, 8000f80 <HAL_DMA_Abort_IT+0x88>
      hdma->XferAbortCallback(hdma);
 8000f64:	4798      	blx	r3
  HAL_StatusTypeDef status = HAL_OK;
 8000f66:	2000      	movs	r0, #0
 8000f68:	e7ce      	b.n	8000f08 <HAL_DMA_Abort_IT+0x10>
    __HAL_DMA_CLEAR_FLAG(hdma, __HAL_DMA_GET_GI_FLAG_INDEX(hdma));
 8000f6a:	2310      	movs	r3, #16
 8000f6c:	e7f0      	b.n	8000f50 <HAL_DMA_Abort_IT+0x58>
 8000f6e:	f44f 7380 	mov.w	r3, #256	; 0x100
 8000f72:	e7ed      	b.n	8000f50 <HAL_DMA_Abort_IT+0x58>
 8000f74:	f44f 5380 	mov.w	r3, #4096	; 0x1000
 8000f78:	e7ea      	b.n	8000f50 <HAL_DMA_Abort_IT+0x58>
 8000f7a:	f44f 3380 	mov.w	r3, #65536	; 0x10000
 8000f7e:	e7e7      	b.n	8000f50 <HAL_DMA_Abort_IT+0x58>
  HAL_StatusTypeDef status = HAL_OK;
 8000f80:	2000      	movs	r0, #0
 8000f82:	e7c1      	b.n	8000f08 <HAL_DMA_Abort_IT+0x10>
 8000f84:	40020008 	.word	0x40020008
 8000f88:	40020000 	.word	0x40020000

08000f8c <HAL_DMA_IRQHandler>:
{
 8000f8c:	b538      	push	{r3, r4, r5, lr}
  uint32_t flag_it = hdma->DmaBaseAddress->ISR;
 8000f8e:	6bc3      	ldr	r3, [r0, #60]	; 0x3c
 8000f90:	681a      	ldr	r2, [r3, #0]
  uint32_t source_it = hdma->Instance->CCR;
 8000f92:	6804      	ldr	r4, [r0, #0]
 8000f94:	6825      	ldr	r5, [r4, #0]
  if (((flag_it & (DMA_FLAG_HT1 << hdma->ChannelIndex)) != RESET) && ((source_it & DMA_IT_HT) != RESET))
 8000f96:	6c01      	ldr	r1, [r0, #64]	; 0x40
 8000f98:	2304      	movs	r3, #4
 8000f9a:	408b      	lsls	r3, r1
 8000f9c:	4213      	tst	r3, r2
 8000f9e:	d034      	beq.n	800100a <HAL_DMA_IRQHandler+0x7e>
 8000fa0:	f015 0f04 	tst.w	r5, #4
 8000fa4:	d031      	beq.n	800100a <HAL_DMA_IRQHandler+0x7e>
    if((hdma->Instance->CCR & DMA_CCR_CIRC) == 0U)
 8000fa6:	6823      	ldr	r3, [r4, #0]
 8000fa8:	f013 0f20 	tst.w	r3, #32
 8000fac:	d103      	bne.n	8000fb6 <HAL_DMA_IRQHandler+0x2a>
      __HAL_DMA_DISABLE_IT(hdma, DMA_IT_HT);
 8000fae:	6823      	ldr	r3, [r4, #0]
 8000fb0:	f023 0304 	bic.w	r3, r3, #4
 8000fb4:	6023      	str	r3, [r4, #0]
    __HAL_DMA_CLEAR_FLAG(hdma, __HAL_DMA_GET_HT_FLAG_INDEX(hdma));
 8000fb6:	6803      	ldr	r3, [r0, #0]
 8000fb8:	4a42      	ldr	r2, [pc, #264]	; (80010c4 <HAL_DMA_IRQHandler+0x138>)
 8000fba:	4293      	cmp	r3, r2
 8000fbc:	d013      	beq.n	8000fe6 <HAL_DMA_IRQHandler+0x5a>
 8000fbe:	3214      	adds	r2, #20
 8000fc0:	4293      	cmp	r3, r2
 8000fc2:	d017      	beq.n	8000ff4 <HAL_DMA_IRQHandler+0x68>
 8000fc4:	3214      	adds	r2, #20
 8000fc6:	4293      	cmp	r3, r2
 8000fc8:	d016      	beq.n	8000ff8 <HAL_DMA_IRQHandler+0x6c>
 8000fca:	3214      	adds	r2, #20
 8000fcc:	4293      	cmp	r3, r2
 8000fce:	d016      	beq.n	8000ffe <HAL_DMA_IRQHandler+0x72>
 8000fd0:	3214      	adds	r2, #20
 8000fd2:	4293      	cmp	r3, r2
 8000fd4:	d016      	beq.n	8001004 <HAL_DMA_IRQHandler+0x78>
 8000fd6:	3214      	adds	r2, #20
 8000fd8:	4293      	cmp	r3, r2
 8000fda:	bf0c      	ite	eq
 8000fdc:	f44f 0380 	moveq.w	r3, #4194304	; 0x400000
 8000fe0:	f04f 6380 	movne.w	r3, #67108864	; 0x4000000
 8000fe4:	e000      	b.n	8000fe8 <HAL_DMA_IRQHandler+0x5c>
 8000fe6:	2304      	movs	r3, #4
 8000fe8:	4a37      	ldr	r2, [pc, #220]	; (80010c8 <HAL_DMA_IRQHandler+0x13c>)
 8000fea:	6053      	str	r3, [r2, #4]
    if(hdma->XferHalfCpltCallback != NULL)
 8000fec:	6ac3      	ldr	r3, [r0, #44]	; 0x2c
 8000fee:	b103      	cbz	r3, 8000ff2 <HAL_DMA_IRQHandler+0x66>
      hdma->XferHalfCpltCallback(hdma);
 8000ff0:	4798      	blx	r3
}
 8000ff2:	bd38      	pop	{r3, r4, r5, pc}
    __HAL_DMA_CLEAR_FLAG(hdma, __HAL_DMA_GET_HT_FLAG_INDEX(hdma));
 8000ff4:	2340      	movs	r3, #64	; 0x40
 8000ff6:	e7f7      	b.n	8000fe8 <HAL_DMA_IRQHandler+0x5c>
 8000ff8:	f44f 6380 	mov.w	r3, #1024	; 0x400
 8000ffc:	e7f4      	b.n	8000fe8 <HAL_DMA_IRQHandler+0x5c>
 8000ffe:	f44f 4380 	mov.w	r3, #16384	; 0x4000
 8001002:	e7f1      	b.n	8000fe8 <HAL_DMA_IRQHandler+0x5c>
 8001004:	f44f 2380 	mov.w	r3, #262144	; 0x40000
 8001008:	e7ee      	b.n	8000fe8 <HAL_DMA_IRQHandler+0x5c>
  else if (((flag_it & (DMA_FLAG_TC1 << hdma->ChannelIndex)) != RESET) && ((source_it & DMA_IT_TC) != RESET))
 800100a:	2302      	movs	r3, #2
 800100c:	408b      	lsls	r3, r1
 800100e:	4213      	tst	r3, r2
 8001010:	d03b      	beq.n	800108a <HAL_DMA_IRQHandler+0xfe>
 8001012:	f015 0f02 	tst.w	r5, #2
 8001016:	d038      	beq.n	800108a <HAL_DMA_IRQHandler+0xfe>
    if((hdma->Instance->CCR & DMA_CCR_CIRC) == 0U)
 8001018:	6823      	ldr	r3, [r4, #0]
 800101a:	f013 0f20 	tst.w	r3, #32
 800101e:	d106      	bne.n	800102e <HAL_DMA_IRQHandler+0xa2>
      __HAL_DMA_DISABLE_IT(hdma, DMA_IT_TE | DMA_IT_TC);  
 8001020:	6823      	ldr	r3, [r4, #0]
 8001022:	f023 030a 	bic.w	r3, r3, #10
 8001026:	6023      	str	r3, [r4, #0]
      hdma->State = HAL_DMA_STATE_READY;
 8001028:	2301      	movs	r3, #1
 800102a:	f880 3021 	strb.w	r3, [r0, #33]	; 0x21
      __HAL_DMA_CLEAR_FLAG(hdma, __HAL_DMA_GET_TC_FLAG_INDEX(hdma));
 800102e:	6803      	ldr	r3, [r0, #0]
 8001030:	4a24      	ldr	r2, [pc, #144]	; (80010c4 <HAL_DMA_IRQHandler+0x138>)
 8001032:	4293      	cmp	r3, r2
 8001034:	d013      	beq.n	800105e <HAL_DMA_IRQHandler+0xd2>
 8001036:	3214      	adds	r2, #20
 8001038:	4293      	cmp	r3, r2
 800103a:	d01b      	beq.n	8001074 <HAL_DMA_IRQHandler+0xe8>
 800103c:	3214      	adds	r2, #20
 800103e:	4293      	cmp	r3, r2
 8001040:	d01a      	beq.n	8001078 <HAL_DMA_IRQHandler+0xec>
 8001042:	3214      	adds	r2, #20
 8001044:	4293      	cmp	r3, r2
 8001046:	d01a      	beq.n	800107e <HAL_DMA_IRQHandler+0xf2>
 8001048:	3214      	adds	r2, #20
 800104a:	4293      	cmp	r3, r2
 800104c:	d01a      	beq.n	8001084 <HAL_DMA_IRQHandler+0xf8>
 800104e:	3214      	adds	r2, #20
 8001050:	4293      	cmp	r3, r2
 8001052:	bf0c      	ite	eq
 8001054:	f44f 1300 	moveq.w	r3, #2097152	; 0x200000
 8001058:	f04f 7300 	movne.w	r3, #33554432	; 0x2000000
 800105c:	e000      	b.n	8001060 <HAL_DMA_IRQHandler+0xd4>
 800105e:	2302      	movs	r3, #2
 8001060:	4a19      	ldr	r2, [pc, #100]	; (80010c8 <HAL_DMA_IRQHandler+0x13c>)
 8001062:	6053      	str	r3, [r2, #4]
    __HAL_UNLOCK(hdma);
 8001064:	2300      	movs	r3, #0
 8001066:	f880 3020 	strb.w	r3, [r0, #32]
    if(hdma->XferCpltCallback != NULL)
 800106a:	6a83      	ldr	r3, [r0, #40]	; 0x28
 800106c:	2b00      	cmp	r3, #0
 800106e:	d0c0      	beq.n	8000ff2 <HAL_DMA_IRQHandler+0x66>
      hdma->XferCpltCallback(hdma);
 8001070:	4798      	blx	r3
 8001072:	e7be      	b.n	8000ff2 <HAL_DMA_IRQHandler+0x66>
      __HAL_DMA_CLEAR_FLAG(hdma, __HAL_DMA_GET_TC_FLAG_INDEX(hdma));
 8001074:	2320      	movs	r3, #32
 8001076:	e7f3      	b.n	8001060 <HAL_DMA_IRQHandler+0xd4>
 8001078:	f44f 7300 	mov.w	r3, #512	; 0x200
 800107c:	e7f0      	b.n	8001060 <HAL_DMA_IRQHandler+0xd4>
 800107e:	f44f 5300 	mov.w	r3, #8192	; 0x2000
 8001082:	e7ed      	b.n	8001060 <HAL_DMA_IRQHandler+0xd4>
 8001084:	f44f 3300 	mov.w	r3, #131072	; 0x20000
 8001088:	e7ea      	b.n	8001060 <HAL_DMA_IRQHandler+0xd4>
  else if (( RESET != (flag_it & (DMA_FLAG_TE1 << hdma->ChannelIndex))) && (RESET != (source_it & DMA_IT_TE)))
 800108a:	2308      	movs	r3, #8
 800108c:	fa03 f101 	lsl.w	r1, r3, r1
 8001090:	4211      	tst	r1, r2
 8001092:	d0ae      	beq.n	8000ff2 <HAL_DMA_IRQHandler+0x66>
 8001094:	f015 0f08 	tst.w	r5, #8
 8001098:	d0ab      	beq.n	8000ff2 <HAL_DMA_IRQHandler+0x66>
    __HAL_DMA_DISABLE_IT(hdma, (DMA_IT_TC | DMA_IT_HT | DMA_IT_TE));
 800109a:	6823      	ldr	r3, [r4, #0]
 800109c:	f023 030e 	bic.w	r3, r3, #14
 80010a0:	6023      	str	r3, [r4, #0]
    hdma->DmaBaseAddress->IFCR = (DMA_ISR_GIF1 << hdma->ChannelIndex);
 80010a2:	6bc1      	ldr	r1, [r0, #60]	; 0x3c
 80010a4:	2301      	movs	r3, #1
 80010a6:	6c02      	ldr	r2, [r0, #64]	; 0x40
 80010a8:	fa03 f202 	lsl.w	r2, r3, r2
 80010ac:	604a      	str	r2, [r1, #4]
    hdma->ErrorCode = HAL_DMA_ERROR_TE;
 80010ae:	6383      	str	r3, [r0, #56]	; 0x38
    hdma->State = HAL_DMA_STATE_READY;
 80010b0:	f880 3021 	strb.w	r3, [r0, #33]	; 0x21
    __HAL_UNLOCK(hdma);
 80010b4:	2300      	movs	r3, #0
 80010b6:	f880 3020 	strb.w	r3, [r0, #32]
    if (hdma->XferErrorCallback != NULL)
 80010ba:	6b03      	ldr	r3, [r0, #48]	; 0x30
 80010bc:	2b00      	cmp	r3, #0
 80010be:	d098      	beq.n	8000ff2 <HAL_DMA_IRQHandler+0x66>
      hdma->XferErrorCallback(hdma);
 80010c0:	4798      	blx	r3
  return;
 80010c2:	e796      	b.n	8000ff2 <HAL_DMA_IRQHandler+0x66>
 80010c4:	40020008 	.word	0x40020008
 80010c8:	40020000 	.word	0x40020000

080010cc <HAL_GPIO_Init>:
  * @param  GPIO_Init: pointer to a GPIO_InitTypeDef structure that contains
  *         the configuration information for the specified GPIO peripheral.
  * @retval None
  */
void HAL_GPIO_Init(GPIO_TypeDef  *GPIOx, GPIO_InitTypeDef *GPIO_Init)
{
 80010cc:	e92d 4ff0 	stmdb	sp!, {r4, r5, r6, r7, r8, r9, sl, fp, lr}
 80010d0:	b083      	sub	sp, #12
  assert_param(IS_GPIO_ALL_INSTANCE(GPIOx));
  assert_param(IS_GPIO_PIN(GPIO_Init->Pin));
  assert_param(IS_GPIO_MODE(GPIO_Init->Mode));

  /* Configure the port pins */
  while (((GPIO_Init->Pin) >> position) != 0x00u)
 80010d2:	680f      	ldr	r7, [r1, #0]
 80010d4:	2f00      	cmp	r7, #0
 80010d6:	f000 80f8 	beq.w	80012ca <HAL_GPIO_Init+0x1fe>
  uint32_t config = 0x00u;
 80010da:	2200      	movs	r2, #0
  uint32_t position = 0x00u;
 80010dc:	4613      	mov	r3, r2
      /*--------------------- EXTI Mode Configuration ------------------------*/
      /* Configure the External Interrupt or event for the current IO */
      if ((GPIO_Init->Mode & EXTI_MODE) == EXTI_MODE)
      {
        /* Enable AFIO Clock */
        __HAL_RCC_AFIO_CLK_ENABLE();
 80010de:	f8df c200 	ldr.w	ip, [pc, #512]	; 80012e0 <HAL_GPIO_Init+0x214>
        {
          SET_BIT(EXTI->FTSR, iocurrent);
        }
        else
        {
          CLEAR_BIT(EXTI->FTSR, iocurrent);
 80010e2:	4d7b      	ldr	r5, [pc, #492]	; (80012d0 <HAL_GPIO_Init+0x204>)
      switch (GPIO_Init->Mode)
 80010e4:	4e7b      	ldr	r6, [pc, #492]	; (80012d4 <HAL_GPIO_Init+0x208>)
 80010e6:	f8df e1fc 	ldr.w	lr, [pc, #508]	; 80012e4 <HAL_GPIO_Init+0x218>
 80010ea:	f8df 81fc 	ldr.w	r8, [pc, #508]	; 80012e8 <HAL_GPIO_Init+0x21c>
 80010ee:	e09a      	b.n	8001226 <HAL_GPIO_Init+0x15a>
 80010f0:	2200      	movs	r2, #0
 80010f2:	e01e      	b.n	8001132 <HAL_GPIO_Init+0x66>
 80010f4:	42b4      	cmp	r4, r6
 80010f6:	d00c      	beq.n	8001112 <HAL_GPIO_Init+0x46>
 80010f8:	d904      	bls.n	8001104 <HAL_GPIO_Init+0x38>
 80010fa:	4574      	cmp	r4, lr
 80010fc:	d009      	beq.n	8001112 <HAL_GPIO_Init+0x46>
 80010fe:	4544      	cmp	r4, r8
 8001100:	d007      	beq.n	8001112 <HAL_GPIO_Init+0x46>
 8001102:	e016      	b.n	8001132 <HAL_GPIO_Init+0x66>
 8001104:	4f74      	ldr	r7, [pc, #464]	; (80012d8 <HAL_GPIO_Init+0x20c>)
 8001106:	42bc      	cmp	r4, r7
 8001108:	d003      	beq.n	8001112 <HAL_GPIO_Init+0x46>
 800110a:	f507 2770 	add.w	r7, r7, #983040	; 0xf0000
 800110e:	42bc      	cmp	r4, r7
 8001110:	d10b      	bne.n	800112a <HAL_GPIO_Init+0x5e>
          if (GPIO_Init->Pull == GPIO_NOPULL)
 8001112:	688a      	ldr	r2, [r1, #8]
 8001114:	2a00      	cmp	r2, #0
 8001116:	f000 80ca 	beq.w	80012ae <HAL_GPIO_Init+0x1e2>
          else if (GPIO_Init->Pull == GPIO_PULLUP)
 800111a:	2a01      	cmp	r2, #1
            GPIOx->BSRR = ioposition;
 800111c:	bf0c      	ite	eq
 800111e:	f8c0 9010 	streq.w	r9, [r0, #16]
            GPIOx->BRR = ioposition;
 8001122:	f8c0 9014 	strne.w	r9, [r0, #20]
            config = GPIO_CR_MODE_INPUT + GPIO_CR_CNF_INPUT_PU_PD;
 8001126:	2208      	movs	r2, #8
 8001128:	e003      	b.n	8001132 <HAL_GPIO_Init+0x66>
      switch (GPIO_Init->Mode)
 800112a:	f5a7 1780 	sub.w	r7, r7, #1048576	; 0x100000
 800112e:	42bc      	cmp	r4, r7
 8001130:	d0ef      	beq.n	8001112 <HAL_GPIO_Init+0x46>
      configregister = (iocurrent < GPIO_PIN_8) ? &GPIOx->CRL     : &GPIOx->CRH;
 8001132:	f1ba 0fff 	cmp.w	sl, #255	; 0xff
 8001136:	f200 80bc 	bhi.w	80012b2 <HAL_GPIO_Init+0x1e6>
 800113a:	4607      	mov	r7, r0
      registeroffset = (iocurrent < GPIO_PIN_8) ? (position << 2u) : ((position - 8u) << 2u);
 800113c:	ea4f 0983 	mov.w	r9, r3, lsl #2
      MODIFY_REG((*configregister), ((GPIO_CRL_MODE0 | GPIO_CRL_CNF0) << registeroffset), (config << registeroffset));
 8001140:	683c      	ldr	r4, [r7, #0]
 8001142:	f04f 0b0f 	mov.w	fp, #15
 8001146:	fa0b fb09 	lsl.w	fp, fp, r9
 800114a:	ea24 040b 	bic.w	r4, r4, fp
 800114e:	fa02 f909 	lsl.w	r9, r2, r9
 8001152:	ea44 0409 	orr.w	r4, r4, r9
 8001156:	603c      	str	r4, [r7, #0]
      if ((GPIO_Init->Mode & EXTI_MODE) == EXTI_MODE)
 8001158:	684c      	ldr	r4, [r1, #4]
 800115a:	f014 5f80 	tst.w	r4, #268435456	; 0x10000000
 800115e:	d05d      	beq.n	800121c <HAL_GPIO_Init+0x150>
        __HAL_RCC_AFIO_CLK_ENABLE();
 8001160:	f8dc 4018 	ldr.w	r4, [ip, #24]
 8001164:	f044 0401 	orr.w	r4, r4, #1
 8001168:	f8cc 4018 	str.w	r4, [ip, #24]
 800116c:	f8dc 4018 	ldr.w	r4, [ip, #24]
 8001170:	f004 0401 	and.w	r4, r4, #1
 8001174:	9401      	str	r4, [sp, #4]
 8001176:	9c01      	ldr	r4, [sp, #4]
        temp = AFIO->EXTICR[position >> 2u];
 8001178:	f023 0403 	bic.w	r4, r3, #3
 800117c:	f104 4480 	add.w	r4, r4, #1073741824	; 0x40000000
 8001180:	f504 3480 	add.w	r4, r4, #65536	; 0x10000
 8001184:	f8d4 9008 	ldr.w	r9, [r4, #8]
        CLEAR_BIT(temp, (0x0Fu) << (4u * (position & 0x03u)));
 8001188:	f003 0703 	and.w	r7, r3, #3
 800118c:	ea4f 0b87 	mov.w	fp, r7, lsl #2
 8001190:	270f      	movs	r7, #15
 8001192:	fa07 f70b 	lsl.w	r7, r7, fp
 8001196:	ea29 0907 	bic.w	r9, r9, r7
        SET_BIT(temp, (GPIO_GET_INDEX(GPIOx)) << (4u * (position & 0x03u)));
 800119a:	4f50      	ldr	r7, [pc, #320]	; (80012dc <HAL_GPIO_Init+0x210>)
 800119c:	42b8      	cmp	r0, r7
 800119e:	f000 808e 	beq.w	80012be <HAL_GPIO_Init+0x1f2>
 80011a2:	f507 6780 	add.w	r7, r7, #1024	; 0x400
 80011a6:	42b8      	cmp	r0, r7
 80011a8:	f000 808b 	beq.w	80012c2 <HAL_GPIO_Init+0x1f6>
 80011ac:	f507 6780 	add.w	r7, r7, #1024	; 0x400
 80011b0:	42b8      	cmp	r0, r7
 80011b2:	f000 8088 	beq.w	80012c6 <HAL_GPIO_Init+0x1fa>
 80011b6:	f507 6780 	add.w	r7, r7, #1024	; 0x400
 80011ba:	42b8      	cmp	r0, r7
 80011bc:	bf0c      	ite	eq
 80011be:	2703      	moveq	r7, #3
 80011c0:	2704      	movne	r7, #4
 80011c2:	fa07 f70b 	lsl.w	r7, r7, fp
 80011c6:	ea47 0709 	orr.w	r7, r7, r9
        AFIO->EXTICR[position >> 2u] = temp;
 80011ca:	60a7      	str	r7, [r4, #8]
        if ((GPIO_Init->Mode & GPIO_MODE_IT) == GPIO_MODE_IT)
 80011cc:	684c      	ldr	r4, [r1, #4]
 80011ce:	f414 3f80 	tst.w	r4, #65536	; 0x10000
          SET_BIT(EXTI->IMR, iocurrent);
 80011d2:	682c      	ldr	r4, [r5, #0]
 80011d4:	bf14      	ite	ne
 80011d6:	ea44 040a 	orrne.w	r4, r4, sl
          CLEAR_BIT(EXTI->IMR, iocurrent);
 80011da:	ea24 040a 	biceq.w	r4, r4, sl
 80011de:	602c      	str	r4, [r5, #0]
        if ((GPIO_Init->Mode & GPIO_MODE_EVT) == GPIO_MODE_EVT)
 80011e0:	684c      	ldr	r4, [r1, #4]
 80011e2:	f414 3f00 	tst.w	r4, #131072	; 0x20000
          SET_BIT(EXTI->EMR, iocurrent);
 80011e6:	686c      	ldr	r4, [r5, #4]
 80011e8:	bf14      	ite	ne
 80011ea:	ea44 040a 	orrne.w	r4, r4, sl
          CLEAR_BIT(EXTI->EMR, iocurrent);
 80011ee:	ea24 040a 	biceq.w	r4, r4, sl
 80011f2:	606c      	str	r4, [r5, #4]
        if ((GPIO_Init->Mode & RISING_EDGE) == RISING_EDGE)
 80011f4:	684c      	ldr	r4, [r1, #4]
 80011f6:	f414 1f80 	tst.w	r4, #1048576	; 0x100000
          SET_BIT(EXTI->RTSR, iocurrent);
 80011fa:	68ac      	ldr	r4, [r5, #8]
 80011fc:	bf14      	ite	ne
 80011fe:	ea44 040a 	orrne.w	r4, r4, sl
          CLEAR_BIT(EXTI->RTSR, iocurrent);
 8001202:	ea24 040a 	biceq.w	r4, r4, sl
 8001206:	60ac      	str	r4, [r5, #8]
        if ((GPIO_Init->Mode & FALLING_EDGE) == FALLING_EDGE)
 8001208:	684c      	ldr	r4, [r1, #4]
 800120a:	f414 1f00 	tst.w	r4, #2097152	; 0x200000
          SET_BIT(EXTI->FTSR, iocurrent);
 800120e:	68ec      	ldr	r4, [r5, #12]
 8001210:	bf14      	ite	ne
 8001212:	ea44 040a 	orrne.w	r4, r4, sl
          CLEAR_BIT(EXTI->FTSR, iocurrent);
 8001216:	ea24 040a 	biceq.w	r4, r4, sl
 800121a:	60ec      	str	r4, [r5, #12]
        }
      }
    }

	position++;
 800121c:	3301      	adds	r3, #1
  while (((GPIO_Init->Pin) >> position) != 0x00u)
 800121e:	680f      	ldr	r7, [r1, #0]
 8001220:	fa37 f403 	lsrs.w	r4, r7, r3
 8001224:	d051      	beq.n	80012ca <HAL_GPIO_Init+0x1fe>
    ioposition = (0x01uL << position);
 8001226:	f04f 0901 	mov.w	r9, #1
 800122a:	fa09 f903 	lsl.w	r9, r9, r3
    iocurrent = (uint32_t)(GPIO_Init->Pin) & ioposition;
 800122e:	ea09 0a07 	and.w	sl, r9, r7
    if (iocurrent == ioposition)
 8001232:	ea39 0407 	bics.w	r4, r9, r7
 8001236:	d1f1      	bne.n	800121c <HAL_GPIO_Init+0x150>
      switch (GPIO_Init->Mode)
 8001238:	684c      	ldr	r4, [r1, #4]
 800123a:	2c12      	cmp	r4, #18
 800123c:	f63f af5a 	bhi.w	80010f4 <HAL_GPIO_Init+0x28>
 8001240:	2c12      	cmp	r4, #18
 8001242:	f63f af76 	bhi.w	8001132 <HAL_GPIO_Init+0x66>
 8001246:	a701      	add	r7, pc, #4	; (adr r7, 800124c <HAL_GPIO_Init+0x180>)
 8001248:	f857 f024 	ldr.w	pc, [r7, r4, lsl #2]
 800124c:	08001113 	.word	0x08001113
 8001250:	08001299 	.word	0x08001299
 8001254:	080012a3 	.word	0x080012a3
 8001258:	080010f1 	.word	0x080010f1
 800125c:	08001133 	.word	0x08001133
 8001260:	08001133 	.word	0x08001133
 8001264:	08001133 	.word	0x08001133
 8001268:	08001133 	.word	0x08001133
 800126c:	08001133 	.word	0x08001133
 8001270:	08001133 	.word	0x08001133
 8001274:	08001133 	.word	0x08001133
 8001278:	08001133 	.word	0x08001133
 800127c:	08001133 	.word	0x08001133
 8001280:	08001133 	.word	0x08001133
 8001284:	08001133 	.word	0x08001133
 8001288:	08001133 	.word	0x08001133
 800128c:	08001133 	.word	0x08001133
 8001290:	0800129d 	.word	0x0800129d
 8001294:	080012a9 	.word	0x080012a9
          config = GPIO_Init->Speed + GPIO_CR_CNF_GP_OUTPUT_PP;
 8001298:	68ca      	ldr	r2, [r1, #12]
          break;
 800129a:	e74a      	b.n	8001132 <HAL_GPIO_Init+0x66>
          config = GPIO_Init->Speed + GPIO_CR_CNF_GP_OUTPUT_OD;
 800129c:	68ca      	ldr	r2, [r1, #12]
 800129e:	3204      	adds	r2, #4
          break;
 80012a0:	e747      	b.n	8001132 <HAL_GPIO_Init+0x66>
          config = GPIO_Init->Speed + GPIO_CR_CNF_AF_OUTPUT_PP;
 80012a2:	68ca      	ldr	r2, [r1, #12]
 80012a4:	3208      	adds	r2, #8
          break;
 80012a6:	e744      	b.n	8001132 <HAL_GPIO_Init+0x66>
          config = GPIO_Init->Speed + GPIO_CR_CNF_AF_OUTPUT_OD;
 80012a8:	68ca      	ldr	r2, [r1, #12]
 80012aa:	320c      	adds	r2, #12
          break;
 80012ac:	e741      	b.n	8001132 <HAL_GPIO_Init+0x66>
            config = GPIO_CR_MODE_INPUT + GPIO_CR_CNF_INPUT_FLOATING;
 80012ae:	2204      	movs	r2, #4
 80012b0:	e73f      	b.n	8001132 <HAL_GPIO_Init+0x66>
      configregister = (iocurrent < GPIO_PIN_8) ? &GPIOx->CRL     : &GPIOx->CRH;
 80012b2:	1d07      	adds	r7, r0, #4
      registeroffset = (iocurrent < GPIO_PIN_8) ? (position << 2u) : ((position - 8u) << 2u);
 80012b4:	ea4f 0983 	mov.w	r9, r3, lsl #2
 80012b8:	f1a9 0920 	sub.w	r9, r9, #32
 80012bc:	e740      	b.n	8001140 <HAL_GPIO_Init+0x74>
        SET_BIT(temp, (GPIO_GET_INDEX(GPIOx)) << (4u * (position & 0x03u)));
 80012be:	2700      	movs	r7, #0
 80012c0:	e77f      	b.n	80011c2 <HAL_GPIO_Init+0xf6>
 80012c2:	2701      	movs	r7, #1
 80012c4:	e77d      	b.n	80011c2 <HAL_GPIO_Init+0xf6>
 80012c6:	2702      	movs	r7, #2
 80012c8:	e77b      	b.n	80011c2 <HAL_GPIO_Init+0xf6>
  }
}
 80012ca:	b003      	add	sp, #12
 80012cc:	e8bd 8ff0 	ldmia.w	sp!, {r4, r5, r6, r7, r8, r9, sl, fp, pc}
 80012d0:	40010400 	.word	0x40010400
 80012d4:	10220000 	.word	0x10220000
 80012d8:	10120000 	.word	0x10120000
 80012dc:	40010800 	.word	0x40010800
 80012e0:	40021000 	.word	0x40021000
 80012e4:	10310000 	.word	0x10310000
 80012e8:	10320000 	.word	0x10320000

080012ec <HAL_GPIO_ReadPin>:
  GPIO_PinState bitstatus;

  /* Check the parameters */
  assert_param(IS_GPIO_PIN(GPIO_Pin));

  if ((GPIOx->IDR & GPIO_Pin) != (uint32_t)GPIO_PIN_RESET)
 80012ec:	6883      	ldr	r3, [r0, #8]
 80012ee:	4219      	tst	r1, r3
  else
  {
    bitstatus = GPIO_PIN_RESET;
  }
  return bitstatus;
}
 80012f0:	bf14      	ite	ne
 80012f2:	2001      	movne	r0, #1
 80012f4:	2000      	moveq	r0, #0
 80012f6:	4770      	bx	lr

080012f8 <HAL_GPIO_WritePin>:
{
  /* Check the parameters */
  assert_param(IS_GPIO_PIN(GPIO_Pin));
  assert_param(IS_GPIO_PIN_ACTION(PinState));

  if (PinState != GPIO_PIN_RESET)
 80012f8:	b10a      	cbz	r2, 80012fe <HAL_GPIO_WritePin+0x6>
  {
    GPIOx->BSRR = GPIO_Pin;
 80012fa:	6101      	str	r1, [r0, #16]
 80012fc:	4770      	bx	lr
  }
  else
  {
    GPIOx->BSRR = (uint32_t)GPIO_Pin << 16u;
 80012fe:	0409      	lsls	r1, r1, #16
 8001300:	6101      	str	r1, [r0, #16]
  }
}
 8001302:	4770      	bx	lr

08001304 <HAL_GPIO_TogglePin>:

  /* Check the parameters */
  assert_param(IS_GPIO_PIN(GPIO_Pin));

  /* get current Ouput Data Register value */
  odr = GPIOx->ODR;
 8001304:	68c3      	ldr	r3, [r0, #12]

  /* Set selected pins that were at low level, and reset ones that were high */
  GPIOx->BSRR = ((odr & GPIO_Pin) << GPIO_NUMBER) | (~odr & GPIO_Pin);
 8001306:	ea01 0203 	and.w	r2, r1, r3
 800130a:	ea21 0103 	bic.w	r1, r1, r3
 800130e:	ea41 4102 	orr.w	r1, r1, r2, lsl #16
 8001312:	6101      	str	r1, [r0, #16]
}
 8001314:	4770      	bx	lr

08001316 <HAL_PCD_Init>:
  *         parameters in the PCD_InitTypeDef and initialize the associated handle.
  * @param  hpcd PCD handle
  * @retval HAL status
  */
HAL_StatusTypeDef HAL_PCD_Init(PCD_HandleTypeDef *hpcd)
{
 8001316:	b5f0      	push	{r4, r5, r6, r7, lr}
 8001318:	b087      	sub	sp, #28
  USB_OTG_GlobalTypeDef *USBx;
#endif /* defined (USB_OTG_FS) */
  uint8_t i;

  /* Check the PCD handle allocation */
  if (hpcd == NULL)
 800131a:	2800      	cmp	r0, #0
 800131c:	d07a      	beq.n	8001414 <HAL_PCD_Init+0xfe>
 800131e:	4605      	mov	r5, r0

#if defined (USB_OTG_FS)
  USBx = hpcd->Instance;
#endif /* defined (USB_OTG_FS) */

  if (hpcd->State == HAL_PCD_STATE_RESET)
 8001320:	f890 32a9 	ldrb.w	r3, [r0, #681]	; 0x2a9
 8001324:	b1db      	cbz	r3, 800135e <HAL_PCD_Init+0x48>
    /* Init the low level hardware : GPIO, CLOCK, NVIC... */
    HAL_PCD_MspInit(hpcd);
#endif /* (USE_HAL_PCD_REGISTER_CALLBACKS) */
  }

  hpcd->State = HAL_PCD_STATE_BUSY;
 8001326:	2303      	movs	r3, #3
 8001328:	f885 32a9 	strb.w	r3, [r5, #681]	; 0x2a9
    hpcd->Init.dma_enable = 0U;
  }
#endif /* defined (USB_OTG_FS) */

  /* Disable the Interrupts */
  __HAL_PCD_DISABLE(hpcd);
 800132c:	6828      	ldr	r0, [r5, #0]
 800132e:	f000 ff4a 	bl	80021c6 <USB_DisableGlobalInt>

  /*Init the Core (common init.) */
  if (USB_CoreInit(hpcd->Instance, hpcd->Init) != HAL_OK)
 8001332:	462c      	mov	r4, r5
 8001334:	f854 7b10 	ldr.w	r7, [r4], #16
 8001338:	466e      	mov	r6, sp
 800133a:	cc0f      	ldmia	r4!, {r0, r1, r2, r3}
 800133c:	c60f      	stmia	r6!, {r0, r1, r2, r3}
 800133e:	6823      	ldr	r3, [r4, #0]
 8001340:	6033      	str	r3, [r6, #0]
 8001342:	1d2b      	adds	r3, r5, #4
 8001344:	cb0e      	ldmia	r3, {r1, r2, r3}
 8001346:	4638      	mov	r0, r7
 8001348:	f000 ff36 	bl	80021b8 <USB_CoreInit>
 800134c:	4604      	mov	r4, r0
 800134e:	b158      	cbz	r0, 8001368 <HAL_PCD_Init+0x52>
  {
    hpcd->State = HAL_PCD_STATE_ERROR;
 8001350:	2302      	movs	r3, #2
 8001352:	f885 32a9 	strb.w	r3, [r5, #681]	; 0x2a9
    return HAL_ERROR;
 8001356:	2401      	movs	r4, #1
  hpcd->USB_Address = 0U;
  hpcd->State = HAL_PCD_STATE_READY;
  (void)USB_DevDisconnect(hpcd->Instance);

  return HAL_OK;
}
 8001358:	4620      	mov	r0, r4
 800135a:	b007      	add	sp, #28
 800135c:	bdf0      	pop	{r4, r5, r6, r7, pc}
    hpcd->Lock = HAL_UNLOCKED;
 800135e:	f880 32a8 	strb.w	r3, [r0, #680]	; 0x2a8
    HAL_PCD_MspInit(hpcd);
 8001362:	f7ff fac9 	bl	80008f8 <HAL_PCD_MspInit>
 8001366:	e7de      	b.n	8001326 <HAL_PCD_Init+0x10>
  (void)USB_SetCurrentMode(hpcd->Instance, USB_DEVICE_MODE);
 8001368:	2100      	movs	r1, #0
 800136a:	6828      	ldr	r0, [r5, #0]
 800136c:	f000 ff35 	bl	80021da <USB_SetCurrentMode>
  for (i = 0U; i < hpcd->Init.dev_endpoints; i++)
 8001370:	6868      	ldr	r0, [r5, #4]
 8001372:	b388      	cbz	r0, 80013d8 <HAL_PCD_Init+0xc2>
 8001374:	4623      	mov	r3, r4
    hpcd->IN_ep[i].is_in = 1U;
 8001376:	2601      	movs	r6, #1
    hpcd->IN_ep[i].type = EP_TYPE_CTRL;
 8001378:	2100      	movs	r1, #0
    hpcd->IN_ep[i].is_in = 1U;
 800137a:	eb03 0283 	add.w	r2, r3, r3, lsl #2
 800137e:	eb05 02c2 	add.w	r2, r5, r2, lsl #3
 8001382:	f882 6029 	strb.w	r6, [r2, #41]	; 0x29
    hpcd->IN_ep[i].num = i;
 8001386:	f882 3028 	strb.w	r3, [r2, #40]	; 0x28
    hpcd->IN_ep[i].tx_fifo_num = i;
 800138a:	86d3      	strh	r3, [r2, #54]	; 0x36
    hpcd->IN_ep[i].type = EP_TYPE_CTRL;
 800138c:	f882 102b 	strb.w	r1, [r2, #43]	; 0x2b
    hpcd->IN_ep[i].maxpacket = 0U;
 8001390:	6391      	str	r1, [r2, #56]	; 0x38
    hpcd->IN_ep[i].xfer_buff = 0U;
 8001392:	63d1      	str	r1, [r2, #60]	; 0x3c
    hpcd->IN_ep[i].xfer_len = 0U;
 8001394:	eb03 0283 	add.w	r2, r3, r3, lsl #2
 8001398:	eb05 02c2 	add.w	r2, r5, r2, lsl #3
 800139c:	6411      	str	r1, [r2, #64]	; 0x40
  for (i = 0U; i < hpcd->Init.dev_endpoints; i++)
 800139e:	3301      	adds	r3, #1
 80013a0:	b2db      	uxtb	r3, r3
 80013a2:	4283      	cmp	r3, r0
 80013a4:	d3e9      	bcc.n	800137a <HAL_PCD_Init+0x64>
    hpcd->OUT_ep[i].is_in = 0U;
 80013a6:	2200      	movs	r2, #0
 80013a8:	eb04 0384 	add.w	r3, r4, r4, lsl #2
 80013ac:	eb05 03c3 	add.w	r3, r5, r3, lsl #3
 80013b0:	f883 2169 	strb.w	r2, [r3, #361]	; 0x169
    hpcd->OUT_ep[i].num = i;
 80013b4:	f883 4168 	strb.w	r4, [r3, #360]	; 0x168
    hpcd->OUT_ep[i].type = EP_TYPE_CTRL;
 80013b8:	f883 216b 	strb.w	r2, [r3, #363]	; 0x16b
    hpcd->OUT_ep[i].maxpacket = 0U;
 80013bc:	f8c3 2178 	str.w	r2, [r3, #376]	; 0x178
    hpcd->OUT_ep[i].xfer_buff = 0U;
 80013c0:	f8c3 217c 	str.w	r2, [r3, #380]	; 0x17c
    hpcd->OUT_ep[i].xfer_len = 0U;
 80013c4:	eb04 0384 	add.w	r3, r4, r4, lsl #2
 80013c8:	eb05 03c3 	add.w	r3, r5, r3, lsl #3
 80013cc:	f8c3 2180 	str.w	r2, [r3, #384]	; 0x180
  for (i = 0U; i < hpcd->Init.dev_endpoints; i++)
 80013d0:	3401      	adds	r4, #1
 80013d2:	b2e4      	uxtb	r4, r4
 80013d4:	4284      	cmp	r4, r0
 80013d6:	d3e7      	bcc.n	80013a8 <HAL_PCD_Init+0x92>
  if (USB_DevInit(hpcd->Instance, hpcd->Init) != HAL_OK)
 80013d8:	462c      	mov	r4, r5
 80013da:	f854 7b10 	ldr.w	r7, [r4], #16
 80013de:	466e      	mov	r6, sp
 80013e0:	cc0f      	ldmia	r4!, {r0, r1, r2, r3}
 80013e2:	c60f      	stmia	r6!, {r0, r1, r2, r3}
 80013e4:	6823      	ldr	r3, [r4, #0]
 80013e6:	6033      	str	r3, [r6, #0]
 80013e8:	1d2b      	adds	r3, r5, #4
 80013ea:	cb0e      	ldmia	r3, {r1, r2, r3}
 80013ec:	4638      	mov	r0, r7
 80013ee:	f000 fef6 	bl	80021de <USB_DevInit>
 80013f2:	4604      	mov	r4, r0
 80013f4:	b120      	cbz	r0, 8001400 <HAL_PCD_Init+0xea>
    hpcd->State = HAL_PCD_STATE_ERROR;
 80013f6:	2302      	movs	r3, #2
 80013f8:	f885 32a9 	strb.w	r3, [r5, #681]	; 0x2a9
    return HAL_ERROR;
 80013fc:	2401      	movs	r4, #1
 80013fe:	e7ab      	b.n	8001358 <HAL_PCD_Init+0x42>
  hpcd->USB_Address = 0U;
 8001400:	2300      	movs	r3, #0
 8001402:	f885 3024 	strb.w	r3, [r5, #36]	; 0x24
  hpcd->State = HAL_PCD_STATE_READY;
 8001406:	2301      	movs	r3, #1
 8001408:	f885 32a9 	strb.w	r3, [r5, #681]	; 0x2a9
  (void)USB_DevDisconnect(hpcd->Instance);
 800140c:	6828      	ldr	r0, [r5, #0]
 800140e:	f000 fef9 	bl	8002204 <USB_DevDisconnect>
  return HAL_OK;
 8001412:	e7a1      	b.n	8001358 <HAL_PCD_Init+0x42>
    return HAL_ERROR;
 8001414:	2401      	movs	r4, #1
 8001416:	e79f      	b.n	8001358 <HAL_PCD_Init+0x42>

08001418 <HAL_RCC_OscConfig>:
{
  uint32_t tickstart;
  uint32_t pll_config;

  /* Check Null pointer */
  if (RCC_OscInitStruct == NULL)
 8001418:	2800      	cmp	r0, #0
 800141a:	f000 8201 	beq.w	8001820 <HAL_RCC_OscConfig+0x408>
{
 800141e:	e92d 41f0 	stmdb	sp!, {r4, r5, r6, r7, r8, lr}
 8001422:	b082      	sub	sp, #8
 8001424:	4604      	mov	r4, r0

  /* Check the parameters */
  assert_param(IS_RCC_OSCILLATORTYPE(RCC_OscInitStruct->OscillatorType));

  /*------------------------------- HSE Configuration ------------------------*/
  if (((RCC_OscInitStruct->OscillatorType) & RCC_OSCILLATORTYPE_HSE) == RCC_OSCILLATORTYPE_HSE)
 8001426:	6803      	ldr	r3, [r0, #0]
 8001428:	f013 0f01 	tst.w	r3, #1
 800142c:	d02c      	beq.n	8001488 <HAL_RCC_OscConfig+0x70>
  {
    /* Check the parameters */
    assert_param(IS_RCC_HSE(RCC_OscInitStruct->HSEState));

    /* When the HSE is used as system clock or clock source for PLL in these cases it is not allowed to be disabled */
    if ((__HAL_RCC_GET_SYSCLK_SOURCE() == RCC_SYSCLKSOURCE_STATUS_HSE)
 800142e:	4baa      	ldr	r3, [pc, #680]	; (80016d8 <HAL_RCC_OscConfig+0x2c0>)
 8001430:	685b      	ldr	r3, [r3, #4]
 8001432:	f003 030c 	and.w	r3, r3, #12
 8001436:	2b04      	cmp	r3, #4
 8001438:	d01d      	beq.n	8001476 <HAL_RCC_OscConfig+0x5e>
        || ((__HAL_RCC_GET_SYSCLK_SOURCE() == RCC_SYSCLKSOURCE_STATUS_PLLCLK) && (__HAL_RCC_GET_PLL_OSCSOURCE() == RCC_PLLSOURCE_HSE)))
 800143a:	4ba7      	ldr	r3, [pc, #668]	; (80016d8 <HAL_RCC_OscConfig+0x2c0>)
 800143c:	685b      	ldr	r3, [r3, #4]
 800143e:	f003 030c 	and.w	r3, r3, #12
 8001442:	2b08      	cmp	r3, #8
 8001444:	d012      	beq.n	800146c <HAL_RCC_OscConfig+0x54>
      }
    }
    else
    {
      /* Set the new HSE configuration ---------------------------------------*/
      __HAL_RCC_HSE_CONFIG(RCC_OscInitStruct->HSEState);
 8001446:	6863      	ldr	r3, [r4, #4]
 8001448:	f5b3 3f80 	cmp.w	r3, #65536	; 0x10000
 800144c:	d041      	beq.n	80014d2 <HAL_RCC_OscConfig+0xba>
 800144e:	2b00      	cmp	r3, #0
 8001450:	d155      	bne.n	80014fe <HAL_RCC_OscConfig+0xe6>
 8001452:	f103 4380 	add.w	r3, r3, #1073741824	; 0x40000000
 8001456:	f503 3304 	add.w	r3, r3, #135168	; 0x21000
 800145a:	681a      	ldr	r2, [r3, #0]
 800145c:	f422 3280 	bic.w	r2, r2, #65536	; 0x10000
 8001460:	601a      	str	r2, [r3, #0]
 8001462:	681a      	ldr	r2, [r3, #0]
 8001464:	f422 2280 	bic.w	r2, r2, #262144	; 0x40000
 8001468:	601a      	str	r2, [r3, #0]
 800146a:	e037      	b.n	80014dc <HAL_RCC_OscConfig+0xc4>
        || ((__HAL_RCC_GET_SYSCLK_SOURCE() == RCC_SYSCLKSOURCE_STATUS_PLLCLK) && (__HAL_RCC_GET_PLL_OSCSOURCE() == RCC_PLLSOURCE_HSE)))
 800146c:	4b9a      	ldr	r3, [pc, #616]	; (80016d8 <HAL_RCC_OscConfig+0x2c0>)
 800146e:	685b      	ldr	r3, [r3, #4]
 8001470:	f413 3f80 	tst.w	r3, #65536	; 0x10000
 8001474:	d0e7      	beq.n	8001446 <HAL_RCC_OscConfig+0x2e>
      if ((__HAL_RCC_GET_FLAG(RCC_FLAG_HSERDY) != RESET) && (RCC_OscInitStruct->HSEState == RCC_HSE_OFF))
 8001476:	4b98      	ldr	r3, [pc, #608]	; (80016d8 <HAL_RCC_OscConfig+0x2c0>)
 8001478:	681b      	ldr	r3, [r3, #0]
 800147a:	f413 3f00 	tst.w	r3, #131072	; 0x20000
 800147e:	d003      	beq.n	8001488 <HAL_RCC_OscConfig+0x70>
 8001480:	6863      	ldr	r3, [r4, #4]
 8001482:	2b00      	cmp	r3, #0
 8001484:	f000 81ce 	beq.w	8001824 <HAL_RCC_OscConfig+0x40c>
        }
      }
    }
  }
  /*----------------------------- HSI Configuration --------------------------*/
  if (((RCC_OscInitStruct->OscillatorType) & RCC_OSCILLATORTYPE_HSI) == RCC_OSCILLATORTYPE_HSI)
 8001488:	6823      	ldr	r3, [r4, #0]
 800148a:	f013 0f02 	tst.w	r3, #2
 800148e:	d075      	beq.n	800157c <HAL_RCC_OscConfig+0x164>
    /* Check the parameters */
    assert_param(IS_RCC_HSI(RCC_OscInitStruct->HSIState));
    assert_param(IS_RCC_CALIBRATION_VALUE(RCC_OscInitStruct->HSICalibrationValue));

    /* Check if HSI is used as system clock or as PLL source when PLL is selected as system clock */
    if ((__HAL_RCC_GET_SYSCLK_SOURCE() == RCC_SYSCLKSOURCE_STATUS_HSI)
 8001490:	4b91      	ldr	r3, [pc, #580]	; (80016d8 <HAL_RCC_OscConfig+0x2c0>)
 8001492:	685b      	ldr	r3, [r3, #4]
 8001494:	f013 0f0c 	tst.w	r3, #12
 8001498:	d05f      	beq.n	800155a <HAL_RCC_OscConfig+0x142>
        || ((__HAL_RCC_GET_SYSCLK_SOURCE() == RCC_SYSCLKSOURCE_STATUS_PLLCLK) && (__HAL_RCC_GET_PLL_OSCSOURCE() == RCC_PLLSOURCE_HSI_DIV2)))
 800149a:	4b8f      	ldr	r3, [pc, #572]	; (80016d8 <HAL_RCC_OscConfig+0x2c0>)
 800149c:	685b      	ldr	r3, [r3, #4]
 800149e:	f003 030c 	and.w	r3, r3, #12
 80014a2:	2b08      	cmp	r3, #8
 80014a4:	d054      	beq.n	8001550 <HAL_RCC_OscConfig+0x138>
      }
    }
    else
    {
      /* Check the HSI State */
      if (RCC_OscInitStruct->HSIState != RCC_HSI_OFF)
 80014a6:	6923      	ldr	r3, [r4, #16]
 80014a8:	2b00      	cmp	r3, #0
 80014aa:	f000 8089 	beq.w	80015c0 <HAL_RCC_OscConfig+0x1a8>
      {
        /* Enable the Internal High Speed oscillator (HSI). */
        __HAL_RCC_HSI_ENABLE();
 80014ae:	4b8b      	ldr	r3, [pc, #556]	; (80016dc <HAL_RCC_OscConfig+0x2c4>)
 80014b0:	2201      	movs	r2, #1
 80014b2:	601a      	str	r2, [r3, #0]

        /* Get Start Tick */
        tickstart = HAL_GetTick();
 80014b4:	f7ff fbfc 	bl	8000cb0 <HAL_GetTick>
 80014b8:	4605      	mov	r5, r0

        /* Wait till HSI is ready */
        while (__HAL_RCC_GET_FLAG(RCC_FLAG_HSIRDY) == RESET)
 80014ba:	4e87      	ldr	r6, [pc, #540]	; (80016d8 <HAL_RCC_OscConfig+0x2c0>)
 80014bc:	6833      	ldr	r3, [r6, #0]
 80014be:	f013 0f02 	tst.w	r3, #2
 80014c2:	d174      	bne.n	80015ae <HAL_RCC_OscConfig+0x196>
        {
          if ((HAL_GetTick() - tickstart) > HSI_TIMEOUT_VALUE)
 80014c4:	f7ff fbf4 	bl	8000cb0 <HAL_GetTick>
 80014c8:	1b40      	subs	r0, r0, r5
 80014ca:	2802      	cmp	r0, #2
 80014cc:	d9f6      	bls.n	80014bc <HAL_RCC_OscConfig+0xa4>
          {
            return HAL_TIMEOUT;
 80014ce:	2003      	movs	r0, #3
 80014d0:	e1ad      	b.n	800182e <HAL_RCC_OscConfig+0x416>
      __HAL_RCC_HSE_CONFIG(RCC_OscInitStruct->HSEState);
 80014d2:	4a81      	ldr	r2, [pc, #516]	; (80016d8 <HAL_RCC_OscConfig+0x2c0>)
 80014d4:	6813      	ldr	r3, [r2, #0]
 80014d6:	f443 3380 	orr.w	r3, r3, #65536	; 0x10000
 80014da:	6013      	str	r3, [r2, #0]
      if (RCC_OscInitStruct->HSEState != RCC_HSE_OFF)
 80014dc:	6863      	ldr	r3, [r4, #4]
 80014de:	b343      	cbz	r3, 8001532 <HAL_RCC_OscConfig+0x11a>
        tickstart = HAL_GetTick();
 80014e0:	f7ff fbe6 	bl	8000cb0 <HAL_GetTick>
 80014e4:	4605      	mov	r5, r0
        while (__HAL_RCC_GET_FLAG(RCC_FLAG_HSERDY) == RESET)
 80014e6:	4e7c      	ldr	r6, [pc, #496]	; (80016d8 <HAL_RCC_OscConfig+0x2c0>)
 80014e8:	6833      	ldr	r3, [r6, #0]
 80014ea:	f413 3f00 	tst.w	r3, #131072	; 0x20000
 80014ee:	d1cb      	bne.n	8001488 <HAL_RCC_OscConfig+0x70>
          if ((HAL_GetTick() - tickstart) > HSE_TIMEOUT_VALUE)
 80014f0:	f7ff fbde 	bl	8000cb0 <HAL_GetTick>
 80014f4:	1b40      	subs	r0, r0, r5
 80014f6:	2864      	cmp	r0, #100	; 0x64
 80014f8:	d9f6      	bls.n	80014e8 <HAL_RCC_OscConfig+0xd0>
            return HAL_TIMEOUT;
 80014fa:	2003      	movs	r0, #3
 80014fc:	e197      	b.n	800182e <HAL_RCC_OscConfig+0x416>
      __HAL_RCC_HSE_CONFIG(RCC_OscInitStruct->HSEState);
 80014fe:	f5b3 2fa0 	cmp.w	r3, #327680	; 0x50000
 8001502:	d009      	beq.n	8001518 <HAL_RCC_OscConfig+0x100>
 8001504:	4b74      	ldr	r3, [pc, #464]	; (80016d8 <HAL_RCC_OscConfig+0x2c0>)
 8001506:	681a      	ldr	r2, [r3, #0]
 8001508:	f422 3280 	bic.w	r2, r2, #65536	; 0x10000
 800150c:	601a      	str	r2, [r3, #0]
 800150e:	681a      	ldr	r2, [r3, #0]
 8001510:	f422 2280 	bic.w	r2, r2, #262144	; 0x40000
 8001514:	601a      	str	r2, [r3, #0]
 8001516:	e7e1      	b.n	80014dc <HAL_RCC_OscConfig+0xc4>
 8001518:	f103 4380 	add.w	r3, r3, #1073741824	; 0x40000000
 800151c:	f5a3 333c 	sub.w	r3, r3, #192512	; 0x2f000
 8001520:	681a      	ldr	r2, [r3, #0]
 8001522:	f442 2280 	orr.w	r2, r2, #262144	; 0x40000
 8001526:	601a      	str	r2, [r3, #0]
 8001528:	681a      	ldr	r2, [r3, #0]
 800152a:	f442 3280 	orr.w	r2, r2, #65536	; 0x10000
 800152e:	601a      	str	r2, [r3, #0]
 8001530:	e7d4      	b.n	80014dc <HAL_RCC_OscConfig+0xc4>
        tickstart = HAL_GetTick();
 8001532:	f7ff fbbd 	bl	8000cb0 <HAL_GetTick>
 8001536:	4605      	mov	r5, r0
        while (__HAL_RCC_GET_FLAG(RCC_FLAG_HSERDY) != RESET)
 8001538:	4e67      	ldr	r6, [pc, #412]	; (80016d8 <HAL_RCC_OscConfig+0x2c0>)
 800153a:	6833      	ldr	r3, [r6, #0]
 800153c:	f413 3f00 	tst.w	r3, #131072	; 0x20000
 8001540:	d0a2      	beq.n	8001488 <HAL_RCC_OscConfig+0x70>
          if ((HAL_GetTick() - tickstart) > HSE_TIMEOUT_VALUE)
 8001542:	f7ff fbb5 	bl	8000cb0 <HAL_GetTick>
 8001546:	1b40      	subs	r0, r0, r5
 8001548:	2864      	cmp	r0, #100	; 0x64
 800154a:	d9f6      	bls.n	800153a <HAL_RCC_OscConfig+0x122>
            return HAL_TIMEOUT;
 800154c:	2003      	movs	r0, #3
 800154e:	e16e      	b.n	800182e <HAL_RCC_OscConfig+0x416>
        || ((__HAL_RCC_GET_SYSCLK_SOURCE() == RCC_SYSCLKSOURCE_STATUS_PLLCLK) && (__HAL_RCC_GET_PLL_OSCSOURCE() == RCC_PLLSOURCE_HSI_DIV2)))
 8001550:	4b61      	ldr	r3, [pc, #388]	; (80016d8 <HAL_RCC_OscConfig+0x2c0>)
 8001552:	685b      	ldr	r3, [r3, #4]
 8001554:	f413 3f80 	tst.w	r3, #65536	; 0x10000
 8001558:	d1a5      	bne.n	80014a6 <HAL_RCC_OscConfig+0x8e>
      if ((__HAL_RCC_GET_FLAG(RCC_FLAG_HSIRDY) != RESET) && (RCC_OscInitStruct->HSIState != RCC_HSI_ON))
 800155a:	4b5f      	ldr	r3, [pc, #380]	; (80016d8 <HAL_RCC_OscConfig+0x2c0>)
 800155c:	681b      	ldr	r3, [r3, #0]
 800155e:	f013 0f02 	tst.w	r3, #2
 8001562:	d003      	beq.n	800156c <HAL_RCC_OscConfig+0x154>
 8001564:	6923      	ldr	r3, [r4, #16]
 8001566:	2b01      	cmp	r3, #1
 8001568:	f040 815e 	bne.w	8001828 <HAL_RCC_OscConfig+0x410>
        __HAL_RCC_HSI_CALIBRATIONVALUE_ADJUST(RCC_OscInitStruct->HSICalibrationValue);
 800156c:	4a5a      	ldr	r2, [pc, #360]	; (80016d8 <HAL_RCC_OscConfig+0x2c0>)
 800156e:	6813      	ldr	r3, [r2, #0]
 8001570:	6961      	ldr	r1, [r4, #20]
 8001572:	f023 03f8 	bic.w	r3, r3, #248	; 0xf8
 8001576:	ea43 03c1 	orr.w	r3, r3, r1, lsl #3
 800157a:	6013      	str	r3, [r2, #0]
        }
      }
    }
  }
  /*------------------------------ LSI Configuration -------------------------*/
  if (((RCC_OscInitStruct->OscillatorType) & RCC_OSCILLATORTYPE_LSI) == RCC_OSCILLATORTYPE_LSI)
 800157c:	6823      	ldr	r3, [r4, #0]
 800157e:	f013 0f08 	tst.w	r3, #8
 8001582:	d03c      	beq.n	80015fe <HAL_RCC_OscConfig+0x1e6>
  {
    /* Check the parameters */
    assert_param(IS_RCC_LSI(RCC_OscInitStruct->LSIState));

    /* Check the LSI State */
    if (RCC_OscInitStruct->LSIState != RCC_LSI_OFF)
 8001584:	69a3      	ldr	r3, [r4, #24]
 8001586:	2b00      	cmp	r3, #0
 8001588:	d04f      	beq.n	800162a <HAL_RCC_OscConfig+0x212>
    {
      /* Enable the Internal Low Speed oscillator (LSI). */
      __HAL_RCC_LSI_ENABLE();
 800158a:	4b55      	ldr	r3, [pc, #340]	; (80016e0 <HAL_RCC_OscConfig+0x2c8>)
 800158c:	2201      	movs	r2, #1
 800158e:	601a      	str	r2, [r3, #0]

      /* Get Start Tick */
      tickstart = HAL_GetTick();
 8001590:	f7ff fb8e 	bl	8000cb0 <HAL_GetTick>
 8001594:	4605      	mov	r5, r0

      /* Wait till LSI is ready */
      while (__HAL_RCC_GET_FLAG(RCC_FLAG_LSIRDY) == RESET)
 8001596:	4e50      	ldr	r6, [pc, #320]	; (80016d8 <HAL_RCC_OscConfig+0x2c0>)
 8001598:	6a73      	ldr	r3, [r6, #36]	; 0x24
 800159a:	f013 0f02 	tst.w	r3, #2
 800159e:	d121      	bne.n	80015e4 <HAL_RCC_OscConfig+0x1cc>
      {
        if ((HAL_GetTick() - tickstart) > LSI_TIMEOUT_VALUE)
 80015a0:	f7ff fb86 	bl	8000cb0 <HAL_GetTick>
 80015a4:	1b40      	subs	r0, r0, r5
 80015a6:	2802      	cmp	r0, #2
 80015a8:	d9f6      	bls.n	8001598 <HAL_RCC_OscConfig+0x180>
        {
          return HAL_TIMEOUT;
 80015aa:	2003      	movs	r0, #3
 80015ac:	e13f      	b.n	800182e <HAL_RCC_OscConfig+0x416>
        __HAL_RCC_HSI_CALIBRATIONVALUE_ADJUST(RCC_OscInitStruct->HSICalibrationValue);
 80015ae:	4a4a      	ldr	r2, [pc, #296]	; (80016d8 <HAL_RCC_OscConfig+0x2c0>)
 80015b0:	6813      	ldr	r3, [r2, #0]
 80015b2:	6961      	ldr	r1, [r4, #20]
 80015b4:	f023 03f8 	bic.w	r3, r3, #248	; 0xf8
 80015b8:	ea43 03c1 	orr.w	r3, r3, r1, lsl #3
 80015bc:	6013      	str	r3, [r2, #0]
 80015be:	e7dd      	b.n	800157c <HAL_RCC_OscConfig+0x164>
        __HAL_RCC_HSI_DISABLE();
 80015c0:	4b46      	ldr	r3, [pc, #280]	; (80016dc <HAL_RCC_OscConfig+0x2c4>)
 80015c2:	2200      	movs	r2, #0
 80015c4:	601a      	str	r2, [r3, #0]
        tickstart = HAL_GetTick();
 80015c6:	f7ff fb73 	bl	8000cb0 <HAL_GetTick>
 80015ca:	4605      	mov	r5, r0
        while (__HAL_RCC_GET_FLAG(RCC_FLAG_HSIRDY) != RESET)
 80015cc:	4e42      	ldr	r6, [pc, #264]	; (80016d8 <HAL_RCC_OscConfig+0x2c0>)
 80015ce:	6833      	ldr	r3, [r6, #0]
 80015d0:	f013 0f02 	tst.w	r3, #2
 80015d4:	d0d2      	beq.n	800157c <HAL_RCC_OscConfig+0x164>
          if ((HAL_GetTick() - tickstart) > HSI_TIMEOUT_VALUE)
 80015d6:	f7ff fb6b 	bl	8000cb0 <HAL_GetTick>
 80015da:	1b40      	subs	r0, r0, r5
 80015dc:	2802      	cmp	r0, #2
 80015de:	d9f6      	bls.n	80015ce <HAL_RCC_OscConfig+0x1b6>
            return HAL_TIMEOUT;
 80015e0:	2003      	movs	r0, #3
 80015e2:	e124      	b.n	800182e <HAL_RCC_OscConfig+0x416>
  * @param  mdelay: specifies the delay time length, in milliseconds.
  * @retval None
  */
static void RCC_Delay(uint32_t mdelay)
{
  __IO uint32_t Delay = mdelay * (SystemCoreClock / 8U / 1000U);
 80015e4:	4b3f      	ldr	r3, [pc, #252]	; (80016e4 <HAL_RCC_OscConfig+0x2cc>)
 80015e6:	681b      	ldr	r3, [r3, #0]
 80015e8:	4a3f      	ldr	r2, [pc, #252]	; (80016e8 <HAL_RCC_OscConfig+0x2d0>)
 80015ea:	fba2 2303 	umull	r2, r3, r2, r3
 80015ee:	0a5b      	lsrs	r3, r3, #9
 80015f0:	9301      	str	r3, [sp, #4]
  do
  {
    __NOP();
 80015f2:	bf00      	nop
  }
  while (Delay --);
 80015f4:	9b01      	ldr	r3, [sp, #4]
 80015f6:	1e5a      	subs	r2, r3, #1
 80015f8:	9201      	str	r2, [sp, #4]
 80015fa:	2b00      	cmp	r3, #0
 80015fc:	d1f9      	bne.n	80015f2 <HAL_RCC_OscConfig+0x1da>
  if (((RCC_OscInitStruct->OscillatorType) & RCC_OSCILLATORTYPE_LSE) == RCC_OSCILLATORTYPE_LSE)
 80015fe:	6823      	ldr	r3, [r4, #0]
 8001600:	f013 0f04 	tst.w	r3, #4
 8001604:	f000 809c 	beq.w	8001740 <HAL_RCC_OscConfig+0x328>
    if (__HAL_RCC_PWR_IS_CLK_DISABLED())
 8001608:	4b33      	ldr	r3, [pc, #204]	; (80016d8 <HAL_RCC_OscConfig+0x2c0>)
 800160a:	69db      	ldr	r3, [r3, #28]
 800160c:	f013 5f80 	tst.w	r3, #268435456	; 0x10000000
 8001610:	d11d      	bne.n	800164e <HAL_RCC_OscConfig+0x236>
      __HAL_RCC_PWR_CLK_ENABLE();
 8001612:	4b31      	ldr	r3, [pc, #196]	; (80016d8 <HAL_RCC_OscConfig+0x2c0>)
 8001614:	69da      	ldr	r2, [r3, #28]
 8001616:	f042 5280 	orr.w	r2, r2, #268435456	; 0x10000000
 800161a:	61da      	str	r2, [r3, #28]
 800161c:	69db      	ldr	r3, [r3, #28]
 800161e:	f003 5380 	and.w	r3, r3, #268435456	; 0x10000000
 8001622:	9300      	str	r3, [sp, #0]
 8001624:	9b00      	ldr	r3, [sp, #0]
      pwrclkchanged = SET;
 8001626:	2501      	movs	r5, #1
 8001628:	e012      	b.n	8001650 <HAL_RCC_OscConfig+0x238>
      __HAL_RCC_LSI_DISABLE();
 800162a:	4b2d      	ldr	r3, [pc, #180]	; (80016e0 <HAL_RCC_OscConfig+0x2c8>)
 800162c:	2200      	movs	r2, #0
 800162e:	601a      	str	r2, [r3, #0]
      tickstart = HAL_GetTick();
 8001630:	f7ff fb3e 	bl	8000cb0 <HAL_GetTick>
 8001634:	4605      	mov	r5, r0
      while (__HAL_RCC_GET_FLAG(RCC_FLAG_LSIRDY) != RESET)
 8001636:	4e28      	ldr	r6, [pc, #160]	; (80016d8 <HAL_RCC_OscConfig+0x2c0>)
 8001638:	6a73      	ldr	r3, [r6, #36]	; 0x24
 800163a:	f013 0f02 	tst.w	r3, #2
 800163e:	d0de      	beq.n	80015fe <HAL_RCC_OscConfig+0x1e6>
        if ((HAL_GetTick() - tickstart) > LSI_TIMEOUT_VALUE)
 8001640:	f7ff fb36 	bl	8000cb0 <HAL_GetTick>
 8001644:	1b40      	subs	r0, r0, r5
 8001646:	2802      	cmp	r0, #2
 8001648:	d9f6      	bls.n	8001638 <HAL_RCC_OscConfig+0x220>
          return HAL_TIMEOUT;
 800164a:	2003      	movs	r0, #3
 800164c:	e0ef      	b.n	800182e <HAL_RCC_OscConfig+0x416>
    FlagStatus       pwrclkchanged = RESET;
 800164e:	2500      	movs	r5, #0
    if (HAL_IS_BIT_CLR(PWR->CR, PWR_CR_DBP))
 8001650:	4b26      	ldr	r3, [pc, #152]	; (80016ec <HAL_RCC_OscConfig+0x2d4>)
 8001652:	681b      	ldr	r3, [r3, #0]
 8001654:	f413 7f80 	tst.w	r3, #256	; 0x100
 8001658:	d011      	beq.n	800167e <HAL_RCC_OscConfig+0x266>
    __HAL_RCC_LSE_CONFIG(RCC_OscInitStruct->LSEState);
 800165a:	68e3      	ldr	r3, [r4, #12]
 800165c:	2b01      	cmp	r3, #1
 800165e:	d022      	beq.n	80016a6 <HAL_RCC_OscConfig+0x28e>
 8001660:	2b00      	cmp	r3, #0
 8001662:	d145      	bne.n	80016f0 <HAL_RCC_OscConfig+0x2d8>
 8001664:	f103 4380 	add.w	r3, r3, #1073741824	; 0x40000000
 8001668:	f503 3304 	add.w	r3, r3, #135168	; 0x21000
 800166c:	6a1a      	ldr	r2, [r3, #32]
 800166e:	f022 0201 	bic.w	r2, r2, #1
 8001672:	621a      	str	r2, [r3, #32]
 8001674:	6a1a      	ldr	r2, [r3, #32]
 8001676:	f022 0204 	bic.w	r2, r2, #4
 800167a:	621a      	str	r2, [r3, #32]
 800167c:	e018      	b.n	80016b0 <HAL_RCC_OscConfig+0x298>
      SET_BIT(PWR->CR, PWR_CR_DBP);
 800167e:	4a1b      	ldr	r2, [pc, #108]	; (80016ec <HAL_RCC_OscConfig+0x2d4>)
 8001680:	6813      	ldr	r3, [r2, #0]
 8001682:	f443 7380 	orr.w	r3, r3, #256	; 0x100
 8001686:	6013      	str	r3, [r2, #0]
      tickstart = HAL_GetTick();
 8001688:	f7ff fb12 	bl	8000cb0 <HAL_GetTick>
 800168c:	4606      	mov	r6, r0
      while (HAL_IS_BIT_CLR(PWR->CR, PWR_CR_DBP))
 800168e:	4f17      	ldr	r7, [pc, #92]	; (80016ec <HAL_RCC_OscConfig+0x2d4>)
 8001690:	683b      	ldr	r3, [r7, #0]
 8001692:	f413 7f80 	tst.w	r3, #256	; 0x100
 8001696:	d1e0      	bne.n	800165a <HAL_RCC_OscConfig+0x242>
        if ((HAL_GetTick() - tickstart) > RCC_DBP_TIMEOUT_VALUE)
 8001698:	f7ff fb0a 	bl	8000cb0 <HAL_GetTick>
 800169c:	1b80      	subs	r0, r0, r6
 800169e:	2864      	cmp	r0, #100	; 0x64
 80016a0:	d9f6      	bls.n	8001690 <HAL_RCC_OscConfig+0x278>
          return HAL_TIMEOUT;
 80016a2:	2003      	movs	r0, #3
 80016a4:	e0c3      	b.n	800182e <HAL_RCC_OscConfig+0x416>
    __HAL_RCC_LSE_CONFIG(RCC_OscInitStruct->LSEState);
 80016a6:	4a0c      	ldr	r2, [pc, #48]	; (80016d8 <HAL_RCC_OscConfig+0x2c0>)
 80016a8:	6a13      	ldr	r3, [r2, #32]
 80016aa:	f043 0301 	orr.w	r3, r3, #1
 80016ae:	6213      	str	r3, [r2, #32]
    if (RCC_OscInitStruct->LSEState != RCC_LSE_OFF)
 80016b0:	68e3      	ldr	r3, [r4, #12]
 80016b2:	2b00      	cmp	r3, #0
 80016b4:	d032      	beq.n	800171c <HAL_RCC_OscConfig+0x304>
      tickstart = HAL_GetTick();
 80016b6:	f7ff fafb 	bl	8000cb0 <HAL_GetTick>
 80016ba:	4606      	mov	r6, r0
      while (__HAL_RCC_GET_FLAG(RCC_FLAG_LSERDY) == RESET)
 80016bc:	4f06      	ldr	r7, [pc, #24]	; (80016d8 <HAL_RCC_OscConfig+0x2c0>)
        if ((HAL_GetTick() - tickstart) > RCC_LSE_TIMEOUT_VALUE)
 80016be:	f241 3888 	movw	r8, #5000	; 0x1388
      while (__HAL_RCC_GET_FLAG(RCC_FLAG_LSERDY) == RESET)
 80016c2:	6a3b      	ldr	r3, [r7, #32]
 80016c4:	f013 0f02 	tst.w	r3, #2
 80016c8:	d139      	bne.n	800173e <HAL_RCC_OscConfig+0x326>
        if ((HAL_GetTick() - tickstart) > RCC_LSE_TIMEOUT_VALUE)
 80016ca:	f7ff faf1 	bl	8000cb0 <HAL_GetTick>
 80016ce:	1b80      	subs	r0, r0, r6
 80016d0:	4540      	cmp	r0, r8
 80016d2:	d9f6      	bls.n	80016c2 <HAL_RCC_OscConfig+0x2aa>
          return HAL_TIMEOUT;
 80016d4:	2003      	movs	r0, #3
 80016d6:	e0aa      	b.n	800182e <HAL_RCC_OscConfig+0x416>
 80016d8:	40021000 	.word	0x40021000
 80016dc:	42420000 	.word	0x42420000
 80016e0:	42420480 	.word	0x42420480
 80016e4:	20000000 	.word	0x20000000
 80016e8:	10624dd3 	.word	0x10624dd3
 80016ec:	40007000 	.word	0x40007000
    __HAL_RCC_LSE_CONFIG(RCC_OscInitStruct->LSEState);
 80016f0:	2b05      	cmp	r3, #5
 80016f2:	d009      	beq.n	8001708 <HAL_RCC_OscConfig+0x2f0>
 80016f4:	4b51      	ldr	r3, [pc, #324]	; (800183c <HAL_RCC_OscConfig+0x424>)
 80016f6:	6a1a      	ldr	r2, [r3, #32]
 80016f8:	f022 0201 	bic.w	r2, r2, #1
 80016fc:	621a      	str	r2, [r3, #32]
 80016fe:	6a1a      	ldr	r2, [r3, #32]
 8001700:	f022 0204 	bic.w	r2, r2, #4
 8001704:	621a      	str	r2, [r3, #32]
 8001706:	e7d3      	b.n	80016b0 <HAL_RCC_OscConfig+0x298>
 8001708:	4b4c      	ldr	r3, [pc, #304]	; (800183c <HAL_RCC_OscConfig+0x424>)
 800170a:	6a1a      	ldr	r2, [r3, #32]
 800170c:	f042 0204 	orr.w	r2, r2, #4
 8001710:	621a      	str	r2, [r3, #32]
 8001712:	6a1a      	ldr	r2, [r3, #32]
 8001714:	f042 0201 	orr.w	r2, r2, #1
 8001718:	621a      	str	r2, [r3, #32]
 800171a:	e7c9      	b.n	80016b0 <HAL_RCC_OscConfig+0x298>
      tickstart = HAL_GetTick();
 800171c:	f7ff fac8 	bl	8000cb0 <HAL_GetTick>
 8001720:	4606      	mov	r6, r0
      while (__HAL_RCC_GET_FLAG(RCC_FLAG_LSERDY) != RESET)
 8001722:	4f46      	ldr	r7, [pc, #280]	; (800183c <HAL_RCC_OscConfig+0x424>)
        if ((HAL_GetTick() - tickstart) > RCC_LSE_TIMEOUT_VALUE)
 8001724:	f241 3888 	movw	r8, #5000	; 0x1388
      while (__HAL_RCC_GET_FLAG(RCC_FLAG_LSERDY) != RESET)
 8001728:	6a3b      	ldr	r3, [r7, #32]
 800172a:	f013 0f02 	tst.w	r3, #2
 800172e:	d006      	beq.n	800173e <HAL_RCC_OscConfig+0x326>
        if ((HAL_GetTick() - tickstart) > RCC_LSE_TIMEOUT_VALUE)
 8001730:	f7ff fabe 	bl	8000cb0 <HAL_GetTick>
 8001734:	1b80      	subs	r0, r0, r6
 8001736:	4540      	cmp	r0, r8
 8001738:	d9f6      	bls.n	8001728 <HAL_RCC_OscConfig+0x310>
          return HAL_TIMEOUT;
 800173a:	2003      	movs	r0, #3
 800173c:	e077      	b.n	800182e <HAL_RCC_OscConfig+0x416>
    if (pwrclkchanged == SET)
 800173e:	b9e5      	cbnz	r5, 800177a <HAL_RCC_OscConfig+0x362>
  if ((RCC_OscInitStruct->PLL.PLLState) != RCC_PLL_NONE)
 8001740:	69e3      	ldr	r3, [r4, #28]
 8001742:	2b00      	cmp	r3, #0
 8001744:	d072      	beq.n	800182c <HAL_RCC_OscConfig+0x414>
    if (__HAL_RCC_GET_SYSCLK_SOURCE() != RCC_SYSCLKSOURCE_STATUS_PLLCLK)
 8001746:	4a3d      	ldr	r2, [pc, #244]	; (800183c <HAL_RCC_OscConfig+0x424>)
 8001748:	6852      	ldr	r2, [r2, #4]
 800174a:	f002 020c 	and.w	r2, r2, #12
 800174e:	2a08      	cmp	r2, #8
 8001750:	d056      	beq.n	8001800 <HAL_RCC_OscConfig+0x3e8>
      if ((RCC_OscInitStruct->PLL.PLLState) == RCC_PLL_ON)
 8001752:	2b02      	cmp	r3, #2
 8001754:	d017      	beq.n	8001786 <HAL_RCC_OscConfig+0x36e>
        __HAL_RCC_PLL_DISABLE();
 8001756:	4b3a      	ldr	r3, [pc, #232]	; (8001840 <HAL_RCC_OscConfig+0x428>)
 8001758:	2200      	movs	r2, #0
 800175a:	601a      	str	r2, [r3, #0]
        tickstart = HAL_GetTick();
 800175c:	f7ff faa8 	bl	8000cb0 <HAL_GetTick>
 8001760:	4604      	mov	r4, r0
        while (__HAL_RCC_GET_FLAG(RCC_FLAG_PLLRDY)  != RESET)
 8001762:	4d36      	ldr	r5, [pc, #216]	; (800183c <HAL_RCC_OscConfig+0x424>)
 8001764:	682b      	ldr	r3, [r5, #0]
 8001766:	f013 7f00 	tst.w	r3, #33554432	; 0x2000000
 800176a:	d047      	beq.n	80017fc <HAL_RCC_OscConfig+0x3e4>
          if ((HAL_GetTick() - tickstart) > PLL_TIMEOUT_VALUE)
 800176c:	f7ff faa0 	bl	8000cb0 <HAL_GetTick>
 8001770:	1b00      	subs	r0, r0, r4
 8001772:	2802      	cmp	r0, #2
 8001774:	d9f6      	bls.n	8001764 <HAL_RCC_OscConfig+0x34c>
            return HAL_TIMEOUT;
 8001776:	2003      	movs	r0, #3
 8001778:	e059      	b.n	800182e <HAL_RCC_OscConfig+0x416>
      __HAL_RCC_PWR_CLK_DISABLE();
 800177a:	4a30      	ldr	r2, [pc, #192]	; (800183c <HAL_RCC_OscConfig+0x424>)
 800177c:	69d3      	ldr	r3, [r2, #28]
 800177e:	f023 5380 	bic.w	r3, r3, #268435456	; 0x10000000
 8001782:	61d3      	str	r3, [r2, #28]
 8001784:	e7dc      	b.n	8001740 <HAL_RCC_OscConfig+0x328>
        __HAL_RCC_PLL_DISABLE();
 8001786:	4b2e      	ldr	r3, [pc, #184]	; (8001840 <HAL_RCC_OscConfig+0x428>)
 8001788:	2200      	movs	r2, #0
 800178a:	601a      	str	r2, [r3, #0]
        tickstart = HAL_GetTick();
 800178c:	f7ff fa90 	bl	8000cb0 <HAL_GetTick>
 8001790:	4605      	mov	r5, r0
        while (__HAL_RCC_GET_FLAG(RCC_FLAG_PLLRDY)  != RESET)
 8001792:	4e2a      	ldr	r6, [pc, #168]	; (800183c <HAL_RCC_OscConfig+0x424>)
 8001794:	6833      	ldr	r3, [r6, #0]
 8001796:	f013 7f00 	tst.w	r3, #33554432	; 0x2000000
 800179a:	d006      	beq.n	80017aa <HAL_RCC_OscConfig+0x392>
          if ((HAL_GetTick() - tickstart) > PLL_TIMEOUT_VALUE)
 800179c:	f7ff fa88 	bl	8000cb0 <HAL_GetTick>
 80017a0:	1b40      	subs	r0, r0, r5
 80017a2:	2802      	cmp	r0, #2
 80017a4:	d9f6      	bls.n	8001794 <HAL_RCC_OscConfig+0x37c>
            return HAL_TIMEOUT;
 80017a6:	2003      	movs	r0, #3
 80017a8:	e041      	b.n	800182e <HAL_RCC_OscConfig+0x416>
        if (RCC_OscInitStruct->PLL.PLLSource == RCC_PLLSOURCE_HSE)
 80017aa:	6a23      	ldr	r3, [r4, #32]
 80017ac:	f5b3 3f80 	cmp.w	r3, #65536	; 0x10000
 80017b0:	d01a      	beq.n	80017e8 <HAL_RCC_OscConfig+0x3d0>
        __HAL_RCC_PLL_CONFIG(RCC_OscInitStruct->PLL.PLLSource,
 80017b2:	4922      	ldr	r1, [pc, #136]	; (800183c <HAL_RCC_OscConfig+0x424>)
 80017b4:	684a      	ldr	r2, [r1, #4]
 80017b6:	6a23      	ldr	r3, [r4, #32]
 80017b8:	6a60      	ldr	r0, [r4, #36]	; 0x24
 80017ba:	4303      	orrs	r3, r0
 80017bc:	f422 1274 	bic.w	r2, r2, #3997696	; 0x3d0000
 80017c0:	4313      	orrs	r3, r2
 80017c2:	604b      	str	r3, [r1, #4]
        __HAL_RCC_PLL_ENABLE();
 80017c4:	4b1e      	ldr	r3, [pc, #120]	; (8001840 <HAL_RCC_OscConfig+0x428>)
 80017c6:	2201      	movs	r2, #1
 80017c8:	601a      	str	r2, [r3, #0]
        tickstart = HAL_GetTick();
 80017ca:	f7ff fa71 	bl	8000cb0 <HAL_GetTick>
 80017ce:	4604      	mov	r4, r0
        while (__HAL_RCC_GET_FLAG(RCC_FLAG_PLLRDY)  == RESET)
 80017d0:	4d1a      	ldr	r5, [pc, #104]	; (800183c <HAL_RCC_OscConfig+0x424>)
 80017d2:	682b      	ldr	r3, [r5, #0]
 80017d4:	f013 7f00 	tst.w	r3, #33554432	; 0x2000000
 80017d8:	d10e      	bne.n	80017f8 <HAL_RCC_OscConfig+0x3e0>
          if ((HAL_GetTick() - tickstart) > PLL_TIMEOUT_VALUE)
 80017da:	f7ff fa69 	bl	8000cb0 <HAL_GetTick>
 80017de:	1b00      	subs	r0, r0, r4
 80017e0:	2802      	cmp	r0, #2
 80017e2:	d9f6      	bls.n	80017d2 <HAL_RCC_OscConfig+0x3ba>
            return HAL_TIMEOUT;
 80017e4:	2003      	movs	r0, #3
 80017e6:	e022      	b.n	800182e <HAL_RCC_OscConfig+0x416>
          __HAL_RCC_HSE_PREDIV_CONFIG(RCC_OscInitStruct->HSEPredivValue);
 80017e8:	4a14      	ldr	r2, [pc, #80]	; (800183c <HAL_RCC_OscConfig+0x424>)
 80017ea:	6853      	ldr	r3, [r2, #4]
 80017ec:	f423 3300 	bic.w	r3, r3, #131072	; 0x20000
 80017f0:	68a1      	ldr	r1, [r4, #8]
 80017f2:	430b      	orrs	r3, r1
 80017f4:	6053      	str	r3, [r2, #4]
 80017f6:	e7dc      	b.n	80017b2 <HAL_RCC_OscConfig+0x39a>
  return HAL_OK;
 80017f8:	2000      	movs	r0, #0
 80017fa:	e018      	b.n	800182e <HAL_RCC_OscConfig+0x416>
 80017fc:	2000      	movs	r0, #0
 80017fe:	e016      	b.n	800182e <HAL_RCC_OscConfig+0x416>
      if ((RCC_OscInitStruct->PLL.PLLState) == RCC_PLL_OFF)
 8001800:	2b01      	cmp	r3, #1
 8001802:	d017      	beq.n	8001834 <HAL_RCC_OscConfig+0x41c>
        pll_config = RCC->CFGR;
 8001804:	4b0d      	ldr	r3, [pc, #52]	; (800183c <HAL_RCC_OscConfig+0x424>)
 8001806:	685b      	ldr	r3, [r3, #4]
        if ((READ_BIT(pll_config, RCC_CFGR_PLLSRC) != RCC_OscInitStruct->PLL.PLLSource) ||
 8001808:	f403 3180 	and.w	r1, r3, #65536	; 0x10000
 800180c:	6a22      	ldr	r2, [r4, #32]
 800180e:	4291      	cmp	r1, r2
 8001810:	d112      	bne.n	8001838 <HAL_RCC_OscConfig+0x420>
            (READ_BIT(pll_config, RCC_CFGR_PLLMULL) != RCC_OscInitStruct->PLL.PLLMUL))
 8001812:	f403 1370 	and.w	r3, r3, #3932160	; 0x3c0000
        if ((READ_BIT(pll_config, RCC_CFGR_PLLSRC) != RCC_OscInitStruct->PLL.PLLSource) ||
 8001816:	6a60      	ldr	r0, [r4, #36]	; 0x24
        return HAL_ERROR;
 8001818:	1a18      	subs	r0, r3, r0
 800181a:	bf18      	it	ne
 800181c:	2001      	movne	r0, #1
 800181e:	e006      	b.n	800182e <HAL_RCC_OscConfig+0x416>
    return HAL_ERROR;
 8001820:	2001      	movs	r0, #1
}
 8001822:	4770      	bx	lr
        return HAL_ERROR;
 8001824:	2001      	movs	r0, #1
 8001826:	e002      	b.n	800182e <HAL_RCC_OscConfig+0x416>
        return HAL_ERROR;
 8001828:	2001      	movs	r0, #1
 800182a:	e000      	b.n	800182e <HAL_RCC_OscConfig+0x416>
  return HAL_OK;
 800182c:	2000      	movs	r0, #0
}
 800182e:	b002      	add	sp, #8
 8001830:	e8bd 81f0 	ldmia.w	sp!, {r4, r5, r6, r7, r8, pc}
        return HAL_ERROR;
 8001834:	2001      	movs	r0, #1
 8001836:	e7fa      	b.n	800182e <HAL_RCC_OscConfig+0x416>
          return HAL_ERROR;
 8001838:	2001      	movs	r0, #1
 800183a:	e7f8      	b.n	800182e <HAL_RCC_OscConfig+0x416>
 800183c:	40021000 	.word	0x40021000
 8001840:	42420060 	.word	0x42420060

08001844 <HAL_RCC_GetSysClockFreq>:
{
 8001844:	b086      	sub	sp, #24
  const uint8_t aPLLMULFactorTable[16] = {2, 3, 4, 5, 6, 7, 8, 9, 10, 11, 12, 13, 14, 15, 16, 16};
 8001846:	4b16      	ldr	r3, [pc, #88]	; (80018a0 <HAL_RCC_GetSysClockFreq+0x5c>)
 8001848:	cb0f      	ldmia	r3, {r0, r1, r2, r3}
 800184a:	f10d 0c18 	add.w	ip, sp, #24
 800184e:	e90c 000f 	stmdb	ip, {r0, r1, r2, r3}
  const uint8_t aPredivFactorTable[2] = {1, 2};
 8001852:	f240 2301 	movw	r3, #513	; 0x201
 8001856:	f8ad 3004 	strh.w	r3, [sp, #4]
  tmpreg = RCC->CFGR;
 800185a:	4b12      	ldr	r3, [pc, #72]	; (80018a4 <HAL_RCC_GetSysClockFreq+0x60>)
 800185c:	685b      	ldr	r3, [r3, #4]
  switch (tmpreg & RCC_CFGR_SWS)
 800185e:	f003 020c 	and.w	r2, r3, #12
 8001862:	2a08      	cmp	r2, #8
 8001864:	d002      	beq.n	800186c <HAL_RCC_GetSysClockFreq+0x28>
      sysclockfreq = HSE_VALUE;
 8001866:	4810      	ldr	r0, [pc, #64]	; (80018a8 <HAL_RCC_GetSysClockFreq+0x64>)
}
 8001868:	b006      	add	sp, #24
 800186a:	4770      	bx	lr
      pllmul = aPLLMULFactorTable[(uint32_t)(tmpreg & RCC_CFGR_PLLMULL) >> RCC_CFGR_PLLMULL_Pos];
 800186c:	f3c3 4283 	ubfx	r2, r3, #18, #4
 8001870:	4462      	add	r2, ip
 8001872:	f812 2c10 	ldrb.w	r2, [r2, #-16]
      if ((tmpreg & RCC_CFGR_PLLSRC) != RCC_PLLSOURCE_HSI_DIV2)
 8001876:	f413 3f80 	tst.w	r3, #65536	; 0x10000
 800187a:	d00c      	beq.n	8001896 <HAL_RCC_GetSysClockFreq+0x52>
        prediv = aPredivFactorTable[(uint32_t)(RCC->CFGR & RCC_CFGR_PLLXTPRE) >> RCC_CFGR_PLLXTPRE_Pos];
 800187c:	4b09      	ldr	r3, [pc, #36]	; (80018a4 <HAL_RCC_GetSysClockFreq+0x60>)
 800187e:	685b      	ldr	r3, [r3, #4]
        pllclk = (uint32_t)((HSE_VALUE  * pllmul) / prediv);
 8001880:	4809      	ldr	r0, [pc, #36]	; (80018a8 <HAL_RCC_GetSysClockFreq+0x64>)
 8001882:	fb00 f002 	mul.w	r0, r0, r2
        prediv = aPredivFactorTable[(uint32_t)(RCC->CFGR & RCC_CFGR_PLLXTPRE) >> RCC_CFGR_PLLXTPRE_Pos];
 8001886:	f3c3 4340 	ubfx	r3, r3, #17, #1
 800188a:	4463      	add	r3, ip
 800188c:	f813 3c14 	ldrb.w	r3, [r3, #-20]
        pllclk = (uint32_t)((HSE_VALUE  * pllmul) / prediv);
 8001890:	fbb0 f0f3 	udiv	r0, r0, r3
 8001894:	e7e8      	b.n	8001868 <HAL_RCC_GetSysClockFreq+0x24>
        pllclk = (uint32_t)((HSI_VALUE >> 1) * pllmul);
 8001896:	4805      	ldr	r0, [pc, #20]	; (80018ac <HAL_RCC_GetSysClockFreq+0x68>)
 8001898:	fb00 f002 	mul.w	r0, r0, r2
 800189c:	e7e4      	b.n	8001868 <HAL_RCC_GetSysClockFreq+0x24>
 800189e:	bf00      	nop
 80018a0:	08002bac 	.word	0x08002bac
 80018a4:	40021000 	.word	0x40021000
 80018a8:	007a1200 	.word	0x007a1200
 80018ac:	003d0900 	.word	0x003d0900

080018b0 <HAL_RCC_ClockConfig>:
  if (RCC_ClkInitStruct == NULL)
 80018b0:	2800      	cmp	r0, #0
 80018b2:	f000 80a2 	beq.w	80019fa <HAL_RCC_ClockConfig+0x14a>
{
 80018b6:	e92d 41f0 	stmdb	sp!, {r4, r5, r6, r7, r8, lr}
 80018ba:	460d      	mov	r5, r1
 80018bc:	4604      	mov	r4, r0
  if (FLatency > __HAL_FLASH_GET_LATENCY())
 80018be:	4b53      	ldr	r3, [pc, #332]	; (8001a0c <HAL_RCC_ClockConfig+0x15c>)
 80018c0:	681b      	ldr	r3, [r3, #0]
 80018c2:	f003 0307 	and.w	r3, r3, #7
 80018c6:	428b      	cmp	r3, r1
 80018c8:	d20b      	bcs.n	80018e2 <HAL_RCC_ClockConfig+0x32>
    __HAL_FLASH_SET_LATENCY(FLatency);
 80018ca:	4a50      	ldr	r2, [pc, #320]	; (8001a0c <HAL_RCC_ClockConfig+0x15c>)
 80018cc:	6813      	ldr	r3, [r2, #0]
 80018ce:	f023 0307 	bic.w	r3, r3, #7
 80018d2:	430b      	orrs	r3, r1
 80018d4:	6013      	str	r3, [r2, #0]
    if (__HAL_FLASH_GET_LATENCY() != FLatency)
 80018d6:	6813      	ldr	r3, [r2, #0]
 80018d8:	f003 0307 	and.w	r3, r3, #7
 80018dc:	428b      	cmp	r3, r1
 80018de:	f040 808e 	bne.w	80019fe <HAL_RCC_ClockConfig+0x14e>
if (((RCC_ClkInitStruct->ClockType) & RCC_CLOCKTYPE_HCLK) == RCC_CLOCKTYPE_HCLK)
 80018e2:	6823      	ldr	r3, [r4, #0]
 80018e4:	f013 0f02 	tst.w	r3, #2
 80018e8:	d017      	beq.n	800191a <HAL_RCC_ClockConfig+0x6a>
    if (((RCC_ClkInitStruct->ClockType) & RCC_CLOCKTYPE_PCLK1) == RCC_CLOCKTYPE_PCLK1)
 80018ea:	f013 0f04 	tst.w	r3, #4
 80018ee:	d004      	beq.n	80018fa <HAL_RCC_ClockConfig+0x4a>
      MODIFY_REG(RCC->CFGR, RCC_CFGR_PPRE1, RCC_HCLK_DIV16);
 80018f0:	4a47      	ldr	r2, [pc, #284]	; (8001a10 <HAL_RCC_ClockConfig+0x160>)
 80018f2:	6853      	ldr	r3, [r2, #4]
 80018f4:	f443 63e0 	orr.w	r3, r3, #1792	; 0x700
 80018f8:	6053      	str	r3, [r2, #4]
    if (((RCC_ClkInitStruct->ClockType) & RCC_CLOCKTYPE_PCLK2) == RCC_CLOCKTYPE_PCLK2)
 80018fa:	6823      	ldr	r3, [r4, #0]
 80018fc:	f013 0f08 	tst.w	r3, #8
 8001900:	d004      	beq.n	800190c <HAL_RCC_ClockConfig+0x5c>
      MODIFY_REG(RCC->CFGR, RCC_CFGR_PPRE2, (RCC_HCLK_DIV16 << 3));
 8001902:	4a43      	ldr	r2, [pc, #268]	; (8001a10 <HAL_RCC_ClockConfig+0x160>)
 8001904:	6853      	ldr	r3, [r2, #4]
 8001906:	f443 5360 	orr.w	r3, r3, #14336	; 0x3800
 800190a:	6053      	str	r3, [r2, #4]
    MODIFY_REG(RCC->CFGR, RCC_CFGR_HPRE, RCC_ClkInitStruct->AHBCLKDivider);
 800190c:	4a40      	ldr	r2, [pc, #256]	; (8001a10 <HAL_RCC_ClockConfig+0x160>)
 800190e:	6853      	ldr	r3, [r2, #4]
 8001910:	f023 03f0 	bic.w	r3, r3, #240	; 0xf0
 8001914:	68a1      	ldr	r1, [r4, #8]
 8001916:	430b      	orrs	r3, r1
 8001918:	6053      	str	r3, [r2, #4]
  if (((RCC_ClkInitStruct->ClockType) & RCC_CLOCKTYPE_SYSCLK) == RCC_CLOCKTYPE_SYSCLK)
 800191a:	6823      	ldr	r3, [r4, #0]
 800191c:	f013 0f01 	tst.w	r3, #1
 8001920:	d031      	beq.n	8001986 <HAL_RCC_ClockConfig+0xd6>
    if (RCC_ClkInitStruct->SYSCLKSource == RCC_SYSCLKSOURCE_HSE)
 8001922:	6862      	ldr	r2, [r4, #4]
 8001924:	2a01      	cmp	r2, #1
 8001926:	d020      	beq.n	800196a <HAL_RCC_ClockConfig+0xba>
    else if (RCC_ClkInitStruct->SYSCLKSource == RCC_SYSCLKSOURCE_PLLCLK)
 8001928:	2a02      	cmp	r2, #2
 800192a:	d025      	beq.n	8001978 <HAL_RCC_ClockConfig+0xc8>
      if (__HAL_RCC_GET_FLAG(RCC_FLAG_HSIRDY) == RESET)
 800192c:	4b38      	ldr	r3, [pc, #224]	; (8001a10 <HAL_RCC_ClockConfig+0x160>)
 800192e:	681b      	ldr	r3, [r3, #0]
 8001930:	f013 0f02 	tst.w	r3, #2
 8001934:	d065      	beq.n	8001a02 <HAL_RCC_ClockConfig+0x152>
    __HAL_RCC_SYSCLK_CONFIG(RCC_ClkInitStruct->SYSCLKSource);
 8001936:	4936      	ldr	r1, [pc, #216]	; (8001a10 <HAL_RCC_ClockConfig+0x160>)
 8001938:	684b      	ldr	r3, [r1, #4]
 800193a:	f023 0303 	bic.w	r3, r3, #3
 800193e:	4313      	orrs	r3, r2
 8001940:	604b      	str	r3, [r1, #4]
    tickstart = HAL_GetTick();
 8001942:	f7ff f9b5 	bl	8000cb0 <HAL_GetTick>
 8001946:	4606      	mov	r6, r0
    while (__HAL_RCC_GET_SYSCLK_SOURCE() != (RCC_ClkInitStruct->SYSCLKSource << RCC_CFGR_SWS_Pos))
 8001948:	4f31      	ldr	r7, [pc, #196]	; (8001a10 <HAL_RCC_ClockConfig+0x160>)
      if ((HAL_GetTick() - tickstart) > CLOCKSWITCH_TIMEOUT_VALUE)
 800194a:	f241 3888 	movw	r8, #5000	; 0x1388
    while (__HAL_RCC_GET_SYSCLK_SOURCE() != (RCC_ClkInitStruct->SYSCLKSource << RCC_CFGR_SWS_Pos))
 800194e:	687b      	ldr	r3, [r7, #4]
 8001950:	f003 030c 	and.w	r3, r3, #12
 8001954:	6862      	ldr	r2, [r4, #4]
 8001956:	ebb3 0f82 	cmp.w	r3, r2, lsl #2
 800195a:	d014      	beq.n	8001986 <HAL_RCC_ClockConfig+0xd6>
      if ((HAL_GetTick() - tickstart) > CLOCKSWITCH_TIMEOUT_VALUE)
 800195c:	f7ff f9a8 	bl	8000cb0 <HAL_GetTick>
 8001960:	1b80      	subs	r0, r0, r6
 8001962:	4540      	cmp	r0, r8
 8001964:	d9f3      	bls.n	800194e <HAL_RCC_ClockConfig+0x9e>
        return HAL_TIMEOUT;
 8001966:	2003      	movs	r0, #3
 8001968:	e045      	b.n	80019f6 <HAL_RCC_ClockConfig+0x146>
      if (__HAL_RCC_GET_FLAG(RCC_FLAG_HSERDY) == RESET)
 800196a:	4b29      	ldr	r3, [pc, #164]	; (8001a10 <HAL_RCC_ClockConfig+0x160>)
 800196c:	681b      	ldr	r3, [r3, #0]
 800196e:	f413 3f00 	tst.w	r3, #131072	; 0x20000
 8001972:	d1e0      	bne.n	8001936 <HAL_RCC_ClockConfig+0x86>
        return HAL_ERROR;
 8001974:	2001      	movs	r0, #1
 8001976:	e03e      	b.n	80019f6 <HAL_RCC_ClockConfig+0x146>
      if (__HAL_RCC_GET_FLAG(RCC_FLAG_PLLRDY) == RESET)
 8001978:	4b25      	ldr	r3, [pc, #148]	; (8001a10 <HAL_RCC_ClockConfig+0x160>)
 800197a:	681b      	ldr	r3, [r3, #0]
 800197c:	f013 7f00 	tst.w	r3, #33554432	; 0x2000000
 8001980:	d1d9      	bne.n	8001936 <HAL_RCC_ClockConfig+0x86>
        return HAL_ERROR;
 8001982:	2001      	movs	r0, #1
 8001984:	e037      	b.n	80019f6 <HAL_RCC_ClockConfig+0x146>
  if (FLatency < __HAL_FLASH_GET_LATENCY())
 8001986:	4b21      	ldr	r3, [pc, #132]	; (8001a0c <HAL_RCC_ClockConfig+0x15c>)
 8001988:	681b      	ldr	r3, [r3, #0]
 800198a:	f003 0307 	and.w	r3, r3, #7
 800198e:	42ab      	cmp	r3, r5
 8001990:	d90a      	bls.n	80019a8 <HAL_RCC_ClockConfig+0xf8>
    __HAL_FLASH_SET_LATENCY(FLatency);
 8001992:	4a1e      	ldr	r2, [pc, #120]	; (8001a0c <HAL_RCC_ClockConfig+0x15c>)
 8001994:	6813      	ldr	r3, [r2, #0]
 8001996:	f023 0307 	bic.w	r3, r3, #7
 800199a:	432b      	orrs	r3, r5
 800199c:	6013      	str	r3, [r2, #0]
    if (__HAL_FLASH_GET_LATENCY() != FLatency)
 800199e:	6813      	ldr	r3, [r2, #0]
 80019a0:	f003 0307 	and.w	r3, r3, #7
 80019a4:	42ab      	cmp	r3, r5
 80019a6:	d12e      	bne.n	8001a06 <HAL_RCC_ClockConfig+0x156>
if (((RCC_ClkInitStruct->ClockType) & RCC_CLOCKTYPE_PCLK1) == RCC_CLOCKTYPE_PCLK1)
 80019a8:	6823      	ldr	r3, [r4, #0]
 80019aa:	f013 0f04 	tst.w	r3, #4
 80019ae:	d006      	beq.n	80019be <HAL_RCC_ClockConfig+0x10e>
    MODIFY_REG(RCC->CFGR, RCC_CFGR_PPRE1, RCC_ClkInitStruct->APB1CLKDivider);
 80019b0:	4a17      	ldr	r2, [pc, #92]	; (8001a10 <HAL_RCC_ClockConfig+0x160>)
 80019b2:	6853      	ldr	r3, [r2, #4]
 80019b4:	f423 63e0 	bic.w	r3, r3, #1792	; 0x700
 80019b8:	68e1      	ldr	r1, [r4, #12]
 80019ba:	430b      	orrs	r3, r1
 80019bc:	6053      	str	r3, [r2, #4]
  if (((RCC_ClkInitStruct->ClockType) & RCC_CLOCKTYPE_PCLK2) == RCC_CLOCKTYPE_PCLK2)
 80019be:	6823      	ldr	r3, [r4, #0]
 80019c0:	f013 0f08 	tst.w	r3, #8
 80019c4:	d007      	beq.n	80019d6 <HAL_RCC_ClockConfig+0x126>
    MODIFY_REG(RCC->CFGR, RCC_CFGR_PPRE2, ((RCC_ClkInitStruct->APB2CLKDivider) << 3));
 80019c6:	4a12      	ldr	r2, [pc, #72]	; (8001a10 <HAL_RCC_ClockConfig+0x160>)
 80019c8:	6853      	ldr	r3, [r2, #4]
 80019ca:	6921      	ldr	r1, [r4, #16]
 80019cc:	f423 5360 	bic.w	r3, r3, #14336	; 0x3800
 80019d0:	ea43 03c1 	orr.w	r3, r3, r1, lsl #3
 80019d4:	6053      	str	r3, [r2, #4]
  SystemCoreClock = HAL_RCC_GetSysClockFreq() >> AHBPrescTable[(RCC->CFGR & RCC_CFGR_HPRE) >> RCC_CFGR_HPRE_Pos];
 80019d6:	f7ff ff35 	bl	8001844 <HAL_RCC_GetSysClockFreq>
 80019da:	4b0d      	ldr	r3, [pc, #52]	; (8001a10 <HAL_RCC_ClockConfig+0x160>)
 80019dc:	685b      	ldr	r3, [r3, #4]
 80019de:	f3c3 1303 	ubfx	r3, r3, #4, #4
 80019e2:	4a0c      	ldr	r2, [pc, #48]	; (8001a14 <HAL_RCC_ClockConfig+0x164>)
 80019e4:	5cd3      	ldrb	r3, [r2, r3]
 80019e6:	40d8      	lsrs	r0, r3
 80019e8:	4b0b      	ldr	r3, [pc, #44]	; (8001a18 <HAL_RCC_ClockConfig+0x168>)
 80019ea:	6018      	str	r0, [r3, #0]
  HAL_InitTick(uwTickPrio);
 80019ec:	4b0b      	ldr	r3, [pc, #44]	; (8001a1c <HAL_RCC_ClockConfig+0x16c>)
 80019ee:	6818      	ldr	r0, [r3, #0]
 80019f0:	f7ff f91a 	bl	8000c28 <HAL_InitTick>
  return HAL_OK;
 80019f4:	2000      	movs	r0, #0
}
 80019f6:	e8bd 81f0 	ldmia.w	sp!, {r4, r5, r6, r7, r8, pc}
    return HAL_ERROR;
 80019fa:	2001      	movs	r0, #1
}
 80019fc:	4770      	bx	lr
    return HAL_ERROR;
 80019fe:	2001      	movs	r0, #1
 8001a00:	e7f9      	b.n	80019f6 <HAL_RCC_ClockConfig+0x146>
        return HAL_ERROR;
 8001a02:	2001      	movs	r0, #1
 8001a04:	e7f7      	b.n	80019f6 <HAL_RCC_ClockConfig+0x146>
    return HAL_ERROR;
 8001a06:	2001      	movs	r0, #1
 8001a08:	e7f5      	b.n	80019f6 <HAL_RCC_ClockConfig+0x146>
 8001a0a:	bf00      	nop
 8001a0c:	40022000 	.word	0x40022000
 8001a10:	40021000 	.word	0x40021000
 8001a14:	08002b94 	.word	0x08002b94
 8001a18:	20000000 	.word	0x20000000
 8001a1c:	20000008 	.word	0x20000008

08001a20 <HAL_RCC_GetPCLK1Freq>:
  return (HAL_RCC_GetHCLKFreq() >> APBPrescTable[(RCC->CFGR & RCC_CFGR_PPRE1) >> RCC_CFGR_PPRE1_Pos]);
 8001a20:	4b04      	ldr	r3, [pc, #16]	; (8001a34 <HAL_RCC_GetPCLK1Freq+0x14>)
 8001a22:	685b      	ldr	r3, [r3, #4]
 8001a24:	f3c3 2302 	ubfx	r3, r3, #8, #3
 8001a28:	4a03      	ldr	r2, [pc, #12]	; (8001a38 <HAL_RCC_GetPCLK1Freq+0x18>)
 8001a2a:	5cd3      	ldrb	r3, [r2, r3]
 8001a2c:	4a03      	ldr	r2, [pc, #12]	; (8001a3c <HAL_RCC_GetPCLK1Freq+0x1c>)
 8001a2e:	6810      	ldr	r0, [r2, #0]
}
 8001a30:	40d8      	lsrs	r0, r3
 8001a32:	4770      	bx	lr
 8001a34:	40021000 	.word	0x40021000
 8001a38:	08002ba4 	.word	0x08002ba4
 8001a3c:	20000000 	.word	0x20000000

08001a40 <HAL_RCC_GetPCLK2Freq>:
  return (HAL_RCC_GetHCLKFreq() >> APBPrescTable[(RCC->CFGR & RCC_CFGR_PPRE2) >> RCC_CFGR_PPRE2_Pos]);
 8001a40:	4b04      	ldr	r3, [pc, #16]	; (8001a54 <HAL_RCC_GetPCLK2Freq+0x14>)
 8001a42:	685b      	ldr	r3, [r3, #4]
 8001a44:	f3c3 23c2 	ubfx	r3, r3, #11, #3
 8001a48:	4a03      	ldr	r2, [pc, #12]	; (8001a58 <HAL_RCC_GetPCLK2Freq+0x18>)
 8001a4a:	5cd3      	ldrb	r3, [r2, r3]
 8001a4c:	4a03      	ldr	r2, [pc, #12]	; (8001a5c <HAL_RCC_GetPCLK2Freq+0x1c>)
 8001a4e:	6810      	ldr	r0, [r2, #0]
}
 8001a50:	40d8      	lsrs	r0, r3
 8001a52:	4770      	bx	lr
 8001a54:	40021000 	.word	0x40021000
 8001a58:	08002ba4 	.word	0x08002ba4
 8001a5c:	20000000 	.word	0x20000000

08001a60 <HAL_RCCEx_PeriphCLKConfig>:
  *         manually disable it.
  *
  * @retval HAL status
  */
HAL_StatusTypeDef HAL_RCCEx_PeriphCLKConfig(RCC_PeriphCLKInitTypeDef  *PeriphClkInit)
{
 8001a60:	e92d 41f0 	stmdb	sp!, {r4, r5, r6, r7, r8, lr}
 8001a64:	b082      	sub	sp, #8
 8001a66:	4604      	mov	r4, r0

  /* Check the parameters */
  assert_param(IS_RCC_PERIPHCLOCK(PeriphClkInit->PeriphClockSelection));

  /*------------------------------- RTC/LCD Configuration ------------------------*/
  if ((((PeriphClkInit->PeriphClockSelection) & RCC_PERIPHCLK_RTC) == RCC_PERIPHCLK_RTC))
 8001a68:	6803      	ldr	r3, [r0, #0]
 8001a6a:	f013 0f01 	tst.w	r3, #1
 8001a6e:	d034      	beq.n	8001ada <HAL_RCCEx_PeriphCLKConfig+0x7a>
    FlagStatus       pwrclkchanged = RESET;

    /* As soon as function is called to change RTC clock source, activation of the
       power domain is done. */
    /* Requires to enable write access to Backup Domain of necessary */
    if (__HAL_RCC_PWR_IS_CLK_DISABLED())
 8001a70:	4b3e      	ldr	r3, [pc, #248]	; (8001b6c <HAL_RCCEx_PeriphCLKConfig+0x10c>)
 8001a72:	69db      	ldr	r3, [r3, #28]
 8001a74:	f013 5f80 	tst.w	r3, #268435456	; 0x10000000
 8001a78:	d147      	bne.n	8001b0a <HAL_RCCEx_PeriphCLKConfig+0xaa>
    {
      __HAL_RCC_PWR_CLK_ENABLE();
 8001a7a:	4b3c      	ldr	r3, [pc, #240]	; (8001b6c <HAL_RCCEx_PeriphCLKConfig+0x10c>)
 8001a7c:	69da      	ldr	r2, [r3, #28]
 8001a7e:	f042 5280 	orr.w	r2, r2, #268435456	; 0x10000000
 8001a82:	61da      	str	r2, [r3, #28]
 8001a84:	69db      	ldr	r3, [r3, #28]
 8001a86:	f003 5380 	and.w	r3, r3, #268435456	; 0x10000000
 8001a8a:	9301      	str	r3, [sp, #4]
 8001a8c:	9b01      	ldr	r3, [sp, #4]
      pwrclkchanged = SET;
 8001a8e:	2501      	movs	r5, #1
    }

    if (HAL_IS_BIT_CLR(PWR->CR, PWR_CR_DBP))
 8001a90:	4b37      	ldr	r3, [pc, #220]	; (8001b70 <HAL_RCCEx_PeriphCLKConfig+0x110>)
 8001a92:	681b      	ldr	r3, [r3, #0]
 8001a94:	f413 7f80 	tst.w	r3, #256	; 0x100
 8001a98:	d039      	beq.n	8001b0e <HAL_RCCEx_PeriphCLKConfig+0xae>
        }
      }
    }

    /* Reset the Backup domain only if the RTC Clock source selection is modified from reset value */
    temp_reg = (RCC->BDCR & RCC_BDCR_RTCSEL);
 8001a9a:	4b34      	ldr	r3, [pc, #208]	; (8001b6c <HAL_RCCEx_PeriphCLKConfig+0x10c>)
 8001a9c:	6a1b      	ldr	r3, [r3, #32]
    if ((temp_reg != 0x00000000U) && (temp_reg != (PeriphClkInit->RTCClockSelection & RCC_BDCR_RTCSEL)))
 8001a9e:	f413 7340 	ands.w	r3, r3, #768	; 0x300
 8001aa2:	d011      	beq.n	8001ac8 <HAL_RCCEx_PeriphCLKConfig+0x68>
 8001aa4:	6862      	ldr	r2, [r4, #4]
 8001aa6:	f402 7240 	and.w	r2, r2, #768	; 0x300
 8001aaa:	429a      	cmp	r2, r3
 8001aac:	d00c      	beq.n	8001ac8 <HAL_RCCEx_PeriphCLKConfig+0x68>
    {
      /* Store the content of BDCR register before the reset of Backup Domain */
      temp_reg = (RCC->BDCR & ~(RCC_BDCR_RTCSEL));
 8001aae:	4a2f      	ldr	r2, [pc, #188]	; (8001b6c <HAL_RCCEx_PeriphCLKConfig+0x10c>)
 8001ab0:	6a13      	ldr	r3, [r2, #32]
 8001ab2:	f423 7040 	bic.w	r0, r3, #768	; 0x300
      /* RTC Clock selection can be changed only if the Backup Domain is reset */
      __HAL_RCC_BACKUPRESET_FORCE();
 8001ab6:	492f      	ldr	r1, [pc, #188]	; (8001b74 <HAL_RCCEx_PeriphCLKConfig+0x114>)
 8001ab8:	2601      	movs	r6, #1
 8001aba:	600e      	str	r6, [r1, #0]
      __HAL_RCC_BACKUPRESET_RELEASE();
 8001abc:	2600      	movs	r6, #0
 8001abe:	600e      	str	r6, [r1, #0]
      /* Restore the Content of BDCR register */
      RCC->BDCR = temp_reg;
 8001ac0:	6210      	str	r0, [r2, #32]

      /* Wait for LSERDY if LSE was enabled */
      if (HAL_IS_BIT_SET(temp_reg, RCC_BDCR_LSEON))
 8001ac2:	f013 0f01 	tst.w	r3, #1
 8001ac6:	d136      	bne.n	8001b36 <HAL_RCCEx_PeriphCLKConfig+0xd6>
            return HAL_TIMEOUT;
          }
        }
      }
    }
    __HAL_RCC_RTC_CONFIG(PeriphClkInit->RTCClockSelection);
 8001ac8:	4a28      	ldr	r2, [pc, #160]	; (8001b6c <HAL_RCCEx_PeriphCLKConfig+0x10c>)
 8001aca:	6a13      	ldr	r3, [r2, #32]
 8001acc:	f423 7340 	bic.w	r3, r3, #768	; 0x300
 8001ad0:	6861      	ldr	r1, [r4, #4]
 8001ad2:	430b      	orrs	r3, r1
 8001ad4:	6213      	str	r3, [r2, #32]

    /* Require to disable power clock if necessary */
    if (pwrclkchanged == SET)
 8001ad6:	2d00      	cmp	r5, #0
 8001ad8:	d13e      	bne.n	8001b58 <HAL_RCCEx_PeriphCLKConfig+0xf8>
      __HAL_RCC_PWR_CLK_DISABLE();
    }
  }

  /*------------------------------ ADC clock Configuration ------------------*/
  if (((PeriphClkInit->PeriphClockSelection) & RCC_PERIPHCLK_ADC) == RCC_PERIPHCLK_ADC)
 8001ada:	6823      	ldr	r3, [r4, #0]
 8001adc:	f013 0f02 	tst.w	r3, #2
 8001ae0:	d006      	beq.n	8001af0 <HAL_RCCEx_PeriphCLKConfig+0x90>
  {
    /* Check the parameters */
    assert_param(IS_RCC_ADCPLLCLK_DIV(PeriphClkInit->AdcClockSelection));

    /* Configure the ADC clock source */
    __HAL_RCC_ADC_CONFIG(PeriphClkInit->AdcClockSelection);
 8001ae2:	4a22      	ldr	r2, [pc, #136]	; (8001b6c <HAL_RCCEx_PeriphCLKConfig+0x10c>)
 8001ae4:	6853      	ldr	r3, [r2, #4]
 8001ae6:	f423 4340 	bic.w	r3, r3, #49152	; 0xc000
 8001aea:	68a1      	ldr	r1, [r4, #8]
 8001aec:	430b      	orrs	r3, r1
 8001aee:	6053      	str	r3, [r2, #4]

#if defined(STM32F102x6) || defined(STM32F102xB) || defined(STM32F103x6)\
 || defined(STM32F103xB) || defined(STM32F103xE) || defined(STM32F103xG)\
 || defined(STM32F105xC) || defined(STM32F107xC)
  /*------------------------------ USB clock Configuration ------------------*/
  if (((PeriphClkInit->PeriphClockSelection) & RCC_PERIPHCLK_USB) == RCC_PERIPHCLK_USB)
 8001af0:	6823      	ldr	r3, [r4, #0]
 8001af2:	f013 0f10 	tst.w	r3, #16
 8001af6:	d034      	beq.n	8001b62 <HAL_RCCEx_PeriphCLKConfig+0x102>
  {
    /* Check the parameters */
    assert_param(IS_RCC_USBPLLCLK_DIV(PeriphClkInit->UsbClockSelection));

    /* Configure the USB clock source */
    __HAL_RCC_USB_CONFIG(PeriphClkInit->UsbClockSelection);
 8001af8:	4a1c      	ldr	r2, [pc, #112]	; (8001b6c <HAL_RCCEx_PeriphCLKConfig+0x10c>)
 8001afa:	6853      	ldr	r3, [r2, #4]
 8001afc:	f423 0380 	bic.w	r3, r3, #4194304	; 0x400000
 8001b00:	68e1      	ldr	r1, [r4, #12]
 8001b02:	430b      	orrs	r3, r1
 8001b04:	6053      	str	r3, [r2, #4]
  }
#endif /* STM32F102x6 || STM32F102xB || STM32F103x6 || STM32F103xB || STM32F103xE || STM32F103xG || STM32F105xC || STM32F107xC */

  return HAL_OK;
 8001b06:	2000      	movs	r0, #0
 8001b08:	e02c      	b.n	8001b64 <HAL_RCCEx_PeriphCLKConfig+0x104>
    FlagStatus       pwrclkchanged = RESET;
 8001b0a:	2500      	movs	r5, #0
 8001b0c:	e7c0      	b.n	8001a90 <HAL_RCCEx_PeriphCLKConfig+0x30>
      SET_BIT(PWR->CR, PWR_CR_DBP);
 8001b0e:	4a18      	ldr	r2, [pc, #96]	; (8001b70 <HAL_RCCEx_PeriphCLKConfig+0x110>)
 8001b10:	6813      	ldr	r3, [r2, #0]
 8001b12:	f443 7380 	orr.w	r3, r3, #256	; 0x100
 8001b16:	6013      	str	r3, [r2, #0]
      tickstart = HAL_GetTick();
 8001b18:	f7ff f8ca 	bl	8000cb0 <HAL_GetTick>
 8001b1c:	4606      	mov	r6, r0
      while (HAL_IS_BIT_CLR(PWR->CR, PWR_CR_DBP))
 8001b1e:	4f14      	ldr	r7, [pc, #80]	; (8001b70 <HAL_RCCEx_PeriphCLKConfig+0x110>)
 8001b20:	683b      	ldr	r3, [r7, #0]
 8001b22:	f413 7f80 	tst.w	r3, #256	; 0x100
 8001b26:	d1b8      	bne.n	8001a9a <HAL_RCCEx_PeriphCLKConfig+0x3a>
        if ((HAL_GetTick() - tickstart) > RCC_DBP_TIMEOUT_VALUE)
 8001b28:	f7ff f8c2 	bl	8000cb0 <HAL_GetTick>
 8001b2c:	1b80      	subs	r0, r0, r6
 8001b2e:	2864      	cmp	r0, #100	; 0x64
 8001b30:	d9f6      	bls.n	8001b20 <HAL_RCCEx_PeriphCLKConfig+0xc0>
          return HAL_TIMEOUT;
 8001b32:	2003      	movs	r0, #3
 8001b34:	e016      	b.n	8001b64 <HAL_RCCEx_PeriphCLKConfig+0x104>
        tickstart = HAL_GetTick();
 8001b36:	f7ff f8bb 	bl	8000cb0 <HAL_GetTick>
 8001b3a:	4606      	mov	r6, r0
        while (__HAL_RCC_GET_FLAG(RCC_FLAG_LSERDY) == RESET)
 8001b3c:	4f0b      	ldr	r7, [pc, #44]	; (8001b6c <HAL_RCCEx_PeriphCLKConfig+0x10c>)
          if ((HAL_GetTick() - tickstart) > RCC_LSE_TIMEOUT_VALUE)
 8001b3e:	f241 3888 	movw	r8, #5000	; 0x1388
        while (__HAL_RCC_GET_FLAG(RCC_FLAG_LSERDY) == RESET)
 8001b42:	6a3b      	ldr	r3, [r7, #32]
 8001b44:	f013 0f02 	tst.w	r3, #2
 8001b48:	d1be      	bne.n	8001ac8 <HAL_RCCEx_PeriphCLKConfig+0x68>
          if ((HAL_GetTick() - tickstart) > RCC_LSE_TIMEOUT_VALUE)
 8001b4a:	f7ff f8b1 	bl	8000cb0 <HAL_GetTick>
 8001b4e:	1b80      	subs	r0, r0, r6
 8001b50:	4540      	cmp	r0, r8
 8001b52:	d9f6      	bls.n	8001b42 <HAL_RCCEx_PeriphCLKConfig+0xe2>
            return HAL_TIMEOUT;
 8001b54:	2003      	movs	r0, #3
 8001b56:	e005      	b.n	8001b64 <HAL_RCCEx_PeriphCLKConfig+0x104>
      __HAL_RCC_PWR_CLK_DISABLE();
 8001b58:	69d3      	ldr	r3, [r2, #28]
 8001b5a:	f023 5380 	bic.w	r3, r3, #268435456	; 0x10000000
 8001b5e:	61d3      	str	r3, [r2, #28]
 8001b60:	e7bb      	b.n	8001ada <HAL_RCCEx_PeriphCLKConfig+0x7a>
  return HAL_OK;
 8001b62:	2000      	movs	r0, #0
}
 8001b64:	b002      	add	sp, #8
 8001b66:	e8bd 81f0 	ldmia.w	sp!, {r4, r5, r6, r7, r8, pc}
 8001b6a:	bf00      	nop
 8001b6c:	40021000 	.word	0x40021000
 8001b70:	40007000 	.word	0x40007000
 8001b74:	42420440 	.word	0x42420440

08001b78 <UART_EndRxTransfer>:
  * @retval None
  */
static void UART_EndRxTransfer(UART_HandleTypeDef *huart)
{
  /* Disable RXNE, PE and ERR (Frame error, noise error, overrun error) interrupts */
  CLEAR_BIT(huart->Instance->CR1, (USART_CR1_RXNEIE | USART_CR1_PEIE));
 8001b78:	6802      	ldr	r2, [r0, #0]
 8001b7a:	68d3      	ldr	r3, [r2, #12]
 8001b7c:	f423 7390 	bic.w	r3, r3, #288	; 0x120
 8001b80:	60d3      	str	r3, [r2, #12]
  CLEAR_BIT(huart->Instance->CR3, USART_CR3_EIE);
 8001b82:	6802      	ldr	r2, [r0, #0]
 8001b84:	6953      	ldr	r3, [r2, #20]
 8001b86:	f023 0301 	bic.w	r3, r3, #1
 8001b8a:	6153      	str	r3, [r2, #20]

  /* At end of Rx process, restore huart->RxState to Ready */
  huart->RxState = HAL_UART_STATE_READY;
 8001b8c:	2320      	movs	r3, #32
 8001b8e:	f880 303a 	strb.w	r3, [r0, #58]	; 0x3a
}
 8001b92:	4770      	bx	lr

08001b94 <UART_SetConfig>:
  * @param  huart  Pointer to a UART_HandleTypeDef structure that contains
  *                the configuration information for the specified UART module.
  * @retval None
  */
static void UART_SetConfig(UART_HandleTypeDef *huart)
{
 8001b94:	b510      	push	{r4, lr}
 8001b96:	4604      	mov	r4, r0
  assert_param(IS_UART_MODE(huart->Init.Mode));

  /*-------------------------- USART CR2 Configuration -----------------------*/
  /* Configure the UART Stop Bits: Set STOP[13:12] bits
     according to huart->Init.StopBits value */
  MODIFY_REG(huart->Instance->CR2, USART_CR2_STOP, huart->Init.StopBits);
 8001b98:	6802      	ldr	r2, [r0, #0]
 8001b9a:	6913      	ldr	r3, [r2, #16]
 8001b9c:	f423 5340 	bic.w	r3, r3, #12288	; 0x3000
 8001ba0:	68c1      	ldr	r1, [r0, #12]
 8001ba2:	430b      	orrs	r3, r1
 8001ba4:	6113      	str	r3, [r2, #16]
  MODIFY_REG(huart->Instance->CR1,
             (uint32_t)(USART_CR1_M | USART_CR1_PCE | USART_CR1_PS | USART_CR1_TE | USART_CR1_RE | USART_CR1_OVER8),
             tmpreg);
#else
  tmpreg = (uint32_t)huart->Init.WordLength | huart->Init.Parity | huart->Init.Mode;
  MODIFY_REG(huart->Instance->CR1,
 8001ba6:	6801      	ldr	r1, [r0, #0]
 8001ba8:	68ca      	ldr	r2, [r1, #12]
  tmpreg = (uint32_t)huart->Init.WordLength | huart->Init.Parity | huart->Init.Mode;
 8001baa:	6883      	ldr	r3, [r0, #8]
 8001bac:	6900      	ldr	r0, [r0, #16]
 8001bae:	4303      	orrs	r3, r0
 8001bb0:	6960      	ldr	r0, [r4, #20]
 8001bb2:	4303      	orrs	r3, r0
  MODIFY_REG(huart->Instance->CR1,
 8001bb4:	f422 52b0 	bic.w	r2, r2, #5632	; 0x1600
 8001bb8:	f022 020c 	bic.w	r2, r2, #12
 8001bbc:	4313      	orrs	r3, r2
 8001bbe:	60cb      	str	r3, [r1, #12]
             tmpreg);
#endif /* USART_CR1_OVER8 */

  /*-------------------------- USART CR3 Configuration -----------------------*/
  /* Configure the UART HFC: Set CTSE and RTSE bits according to huart->Init.HwFlowCtl value */
  MODIFY_REG(huart->Instance->CR3, (USART_CR3_RTSE | USART_CR3_CTSE), huart->Init.HwFlowCtl);
 8001bc0:	6822      	ldr	r2, [r4, #0]
 8001bc2:	6953      	ldr	r3, [r2, #20]
 8001bc4:	f423 7340 	bic.w	r3, r3, #768	; 0x300
 8001bc8:	69a1      	ldr	r1, [r4, #24]
 8001bca:	430b      	orrs	r3, r1
 8001bcc:	6153      	str	r3, [r2, #20]


  if(huart->Instance == USART1)
 8001bce:	6822      	ldr	r2, [r4, #0]
 8001bd0:	4b10      	ldr	r3, [pc, #64]	; (8001c14 <UART_SetConfig+0x80>)
 8001bd2:	429a      	cmp	r2, r3
 8001bd4:	d01a      	beq.n	8001c0c <UART_SetConfig+0x78>
  {
    pclk = HAL_RCC_GetPCLK2Freq();
  }
  else
  {
    pclk = HAL_RCC_GetPCLK1Freq();
 8001bd6:	f7ff ff23 	bl	8001a20 <HAL_RCC_GetPCLK1Freq>
  else
  {
    huart->Instance->BRR = UART_BRR_SAMPLING16(pclk, huart->Init.BaudRate);
  }
#else
  huart->Instance->BRR = UART_BRR_SAMPLING16(pclk, huart->Init.BaudRate);
 8001bda:	eb00 0080 	add.w	r0, r0, r0, lsl #2
 8001bde:	eb00 0080 	add.w	r0, r0, r0, lsl #2
 8001be2:	6863      	ldr	r3, [r4, #4]
 8001be4:	009b      	lsls	r3, r3, #2
 8001be6:	fbb0 f3f3 	udiv	r3, r0, r3
 8001bea:	6824      	ldr	r4, [r4, #0]
 8001bec:	480a      	ldr	r0, [pc, #40]	; (8001c18 <UART_SetConfig+0x84>)
 8001bee:	fba0 2103 	umull	r2, r1, r0, r3
 8001bf2:	0949      	lsrs	r1, r1, #5
 8001bf4:	2264      	movs	r2, #100	; 0x64
 8001bf6:	fb02 3311 	mls	r3, r2, r1, r3
 8001bfa:	011b      	lsls	r3, r3, #4
 8001bfc:	3332      	adds	r3, #50	; 0x32
 8001bfe:	fba0 2303 	umull	r2, r3, r0, r3
 8001c02:	0109      	lsls	r1, r1, #4
 8001c04:	eb01 1353 	add.w	r3, r1, r3, lsr #5
 8001c08:	60a3      	str	r3, [r4, #8]
#endif /* USART_CR1_OVER8 */
}
 8001c0a:	bd10      	pop	{r4, pc}
    pclk = HAL_RCC_GetPCLK2Freq();
 8001c0c:	f7ff ff18 	bl	8001a40 <HAL_RCC_GetPCLK2Freq>
 8001c10:	e7e3      	b.n	8001bda <UART_SetConfig+0x46>
 8001c12:	bf00      	nop
 8001c14:	40013800 	.word	0x40013800
 8001c18:	51eb851f 	.word	0x51eb851f

08001c1c <UART_WaitOnFlagUntilTimeout>:
{
 8001c1c:	e92d 43f8 	stmdb	sp!, {r3, r4, r5, r6, r7, r8, r9, lr}
 8001c20:	4680      	mov	r8, r0
 8001c22:	460e      	mov	r6, r1
 8001c24:	4615      	mov	r5, r2
 8001c26:	4699      	mov	r9, r3
 8001c28:	9f08      	ldr	r7, [sp, #32]
  while ((__HAL_UART_GET_FLAG(huart, Flag) ? SET : RESET) == Status)
 8001c2a:	f8d8 2000 	ldr.w	r2, [r8]
 8001c2e:	6814      	ldr	r4, [r2, #0]
 8001c30:	ea36 0304 	bics.w	r3, r6, r4
 8001c34:	bf0c      	ite	eq
 8001c36:	2401      	moveq	r4, #1
 8001c38:	2400      	movne	r4, #0
 8001c3a:	42ac      	cmp	r4, r5
 8001c3c:	d11f      	bne.n	8001c7e <UART_WaitOnFlagUntilTimeout+0x62>
    if (Timeout != HAL_MAX_DELAY)
 8001c3e:	f1b7 3fff 	cmp.w	r7, #4294967295
 8001c42:	d0f4      	beq.n	8001c2e <UART_WaitOnFlagUntilTimeout+0x12>
      if ((Timeout == 0U) || ((HAL_GetTick() - Tickstart) > Timeout))
 8001c44:	b12f      	cbz	r7, 8001c52 <UART_WaitOnFlagUntilTimeout+0x36>
 8001c46:	f7ff f833 	bl	8000cb0 <HAL_GetTick>
 8001c4a:	eba0 0009 	sub.w	r0, r0, r9
 8001c4e:	42b8      	cmp	r0, r7
 8001c50:	d9eb      	bls.n	8001c2a <UART_WaitOnFlagUntilTimeout+0xe>
        CLEAR_BIT(huart->Instance->CR1, (USART_CR1_RXNEIE | USART_CR1_PEIE | USART_CR1_TXEIE));
 8001c52:	f8d8 2000 	ldr.w	r2, [r8]
 8001c56:	68d3      	ldr	r3, [r2, #12]
 8001c58:	f423 73d0 	bic.w	r3, r3, #416	; 0x1a0
 8001c5c:	60d3      	str	r3, [r2, #12]
        CLEAR_BIT(huart->Instance->CR3, USART_CR3_EIE);
 8001c5e:	f8d8 2000 	ldr.w	r2, [r8]
 8001c62:	6953      	ldr	r3, [r2, #20]
 8001c64:	f023 0301 	bic.w	r3, r3, #1
 8001c68:	6153      	str	r3, [r2, #20]
        huart->gState  = HAL_UART_STATE_READY;
 8001c6a:	2320      	movs	r3, #32
 8001c6c:	f888 3039 	strb.w	r3, [r8, #57]	; 0x39
        huart->RxState = HAL_UART_STATE_READY;
 8001c70:	f888 303a 	strb.w	r3, [r8, #58]	; 0x3a
        __HAL_UNLOCK(huart);
 8001c74:	2300      	movs	r3, #0
 8001c76:	f888 3038 	strb.w	r3, [r8, #56]	; 0x38
        return HAL_TIMEOUT;
 8001c7a:	2003      	movs	r0, #3
 8001c7c:	e000      	b.n	8001c80 <UART_WaitOnFlagUntilTimeout+0x64>
  return HAL_OK;
 8001c7e:	2000      	movs	r0, #0
}
 8001c80:	e8bd 83f8 	ldmia.w	sp!, {r3, r4, r5, r6, r7, r8, r9, pc}

08001c84 <HAL_UART_Init>:
  if (huart == NULL)
 8001c84:	b358      	cbz	r0, 8001cde <HAL_UART_Init+0x5a>
{
 8001c86:	b510      	push	{r4, lr}
 8001c88:	4604      	mov	r4, r0
  if (huart->gState == HAL_UART_STATE_RESET)
 8001c8a:	f890 3039 	ldrb.w	r3, [r0, #57]	; 0x39
 8001c8e:	b30b      	cbz	r3, 8001cd4 <HAL_UART_Init+0x50>
  huart->gState = HAL_UART_STATE_BUSY;
 8001c90:	2324      	movs	r3, #36	; 0x24
 8001c92:	f884 3039 	strb.w	r3, [r4, #57]	; 0x39
  __HAL_UART_DISABLE(huart);
 8001c96:	6822      	ldr	r2, [r4, #0]
 8001c98:	68d3      	ldr	r3, [r2, #12]
 8001c9a:	f423 5300 	bic.w	r3, r3, #8192	; 0x2000
 8001c9e:	60d3      	str	r3, [r2, #12]
  UART_SetConfig(huart);
 8001ca0:	4620      	mov	r0, r4
 8001ca2:	f7ff ff77 	bl	8001b94 <UART_SetConfig>
  CLEAR_BIT(huart->Instance->CR2, (USART_CR2_LINEN | USART_CR2_CLKEN));
 8001ca6:	6822      	ldr	r2, [r4, #0]
 8001ca8:	6913      	ldr	r3, [r2, #16]
 8001caa:	f423 4390 	bic.w	r3, r3, #18432	; 0x4800
 8001cae:	6113      	str	r3, [r2, #16]
  CLEAR_BIT(huart->Instance->CR3, (USART_CR3_SCEN | USART_CR3_HDSEL | USART_CR3_IREN));
 8001cb0:	6822      	ldr	r2, [r4, #0]
 8001cb2:	6953      	ldr	r3, [r2, #20]
 8001cb4:	f023 032a 	bic.w	r3, r3, #42	; 0x2a
 8001cb8:	6153      	str	r3, [r2, #20]
  __HAL_UART_ENABLE(huart);
 8001cba:	6822      	ldr	r2, [r4, #0]
 8001cbc:	68d3      	ldr	r3, [r2, #12]
 8001cbe:	f443 5300 	orr.w	r3, r3, #8192	; 0x2000
 8001cc2:	60d3      	str	r3, [r2, #12]
  huart->ErrorCode = HAL_UART_ERROR_NONE;
 8001cc4:	2000      	movs	r0, #0
 8001cc6:	63e0      	str	r0, [r4, #60]	; 0x3c
  huart->gState = HAL_UART_STATE_READY;
 8001cc8:	2320      	movs	r3, #32
 8001cca:	f884 3039 	strb.w	r3, [r4, #57]	; 0x39
  huart->RxState = HAL_UART_STATE_READY;
 8001cce:	f884 303a 	strb.w	r3, [r4, #58]	; 0x3a
}
 8001cd2:	bd10      	pop	{r4, pc}
    huart->Lock = HAL_UNLOCKED;
 8001cd4:	f880 3038 	strb.w	r3, [r0, #56]	; 0x38
    HAL_UART_MspInit(huart);
 8001cd8:	f7fe fd46 	bl	8000768 <HAL_UART_MspInit>
 8001cdc:	e7d8      	b.n	8001c90 <HAL_UART_Init+0xc>
    return HAL_ERROR;
 8001cde:	2001      	movs	r0, #1
}
 8001ce0:	4770      	bx	lr

08001ce2 <HAL_UART_Transmit>:
{
 8001ce2:	e92d 47f0 	stmdb	sp!, {r4, r5, r6, r7, r8, r9, sl, lr}
 8001ce6:	b082      	sub	sp, #8
 8001ce8:	461e      	mov	r6, r3
  if (huart->gState == HAL_UART_STATE_READY)
 8001cea:	f890 3039 	ldrb.w	r3, [r0, #57]	; 0x39
 8001cee:	b2db      	uxtb	r3, r3
 8001cf0:	2b20      	cmp	r3, #32
 8001cf2:	d15a      	bne.n	8001daa <HAL_UART_Transmit+0xc8>
 8001cf4:	4604      	mov	r4, r0
 8001cf6:	460d      	mov	r5, r1
 8001cf8:	4690      	mov	r8, r2
    if ((pData == NULL) || (Size == 0U))
 8001cfa:	2900      	cmp	r1, #0
 8001cfc:	d059      	beq.n	8001db2 <HAL_UART_Transmit+0xd0>
 8001cfe:	2a00      	cmp	r2, #0
 8001d00:	d059      	beq.n	8001db6 <HAL_UART_Transmit+0xd4>
    __HAL_LOCK(huart);
 8001d02:	f890 3038 	ldrb.w	r3, [r0, #56]	; 0x38
 8001d06:	2b01      	cmp	r3, #1
 8001d08:	d057      	beq.n	8001dba <HAL_UART_Transmit+0xd8>
 8001d0a:	2301      	movs	r3, #1
 8001d0c:	f880 3038 	strb.w	r3, [r0, #56]	; 0x38
    huart->ErrorCode = HAL_UART_ERROR_NONE;
 8001d10:	2300      	movs	r3, #0
 8001d12:	63c3      	str	r3, [r0, #60]	; 0x3c
    huart->gState = HAL_UART_STATE_BUSY_TX;
 8001d14:	2321      	movs	r3, #33	; 0x21
 8001d16:	f880 3039 	strb.w	r3, [r0, #57]	; 0x39
    tickstart = HAL_GetTick();
 8001d1a:	f7fe ffc9 	bl	8000cb0 <HAL_GetTick>
 8001d1e:	4607      	mov	r7, r0
    huart->TxXferSize = Size;
 8001d20:	f8a4 8024 	strh.w	r8, [r4, #36]	; 0x24
    huart->TxXferCount = Size;
 8001d24:	f8a4 8026 	strh.w	r8, [r4, #38]	; 0x26
    if ((huart->Init.WordLength == UART_WORDLENGTH_9B) && (huart->Init.Parity == UART_PARITY_NONE))
 8001d28:	68a3      	ldr	r3, [r4, #8]
 8001d2a:	f5b3 5f80 	cmp.w	r3, #4096	; 0x1000
 8001d2e:	d00c      	beq.n	8001d4a <HAL_UART_Transmit+0x68>
      pdata16bits = NULL;
 8001d30:	f04f 0a00 	mov.w	sl, #0
    __HAL_UNLOCK(huart);
 8001d34:	2300      	movs	r3, #0
 8001d36:	f884 3038 	strb.w	r3, [r4, #56]	; 0x38
    while (huart->TxXferCount > 0U)
 8001d3a:	8ce3      	ldrh	r3, [r4, #38]	; 0x26
 8001d3c:	b29b      	uxth	r3, r3
 8001d3e:	b343      	cbz	r3, 8001d92 <HAL_UART_Transmit+0xb0>
      if (UART_WaitOnFlagUntilTimeout(huart, UART_FLAG_TXE, RESET, tickstart, Timeout) != HAL_OK)
 8001d40:	f04f 0900 	mov.w	r9, #0
 8001d44:	f04f 0880 	mov.w	r8, #128	; 0x80
 8001d48:	e014      	b.n	8001d74 <HAL_UART_Transmit+0x92>
    if ((huart->Init.WordLength == UART_WORDLENGTH_9B) && (huart->Init.Parity == UART_PARITY_NONE))
 8001d4a:	6923      	ldr	r3, [r4, #16]
 8001d4c:	b913      	cbnz	r3, 8001d54 <HAL_UART_Transmit+0x72>
      pdata16bits = (uint16_t *) pData;
 8001d4e:	46aa      	mov	sl, r5
      pdata8bits  = NULL;
 8001d50:	2500      	movs	r5, #0
 8001d52:	e7ef      	b.n	8001d34 <HAL_UART_Transmit+0x52>
      pdata16bits = NULL;
 8001d54:	f04f 0a00 	mov.w	sl, #0
 8001d58:	e7ec      	b.n	8001d34 <HAL_UART_Transmit+0x52>
        huart->Instance->DR = (uint16_t)(*pdata16bits & 0x01FFU);
 8001d5a:	6822      	ldr	r2, [r4, #0]
 8001d5c:	f83a 3b02 	ldrh.w	r3, [sl], #2
 8001d60:	f3c3 0308 	ubfx	r3, r3, #0, #9
 8001d64:	6053      	str	r3, [r2, #4]
      huart->TxXferCount--;
 8001d66:	8ce2      	ldrh	r2, [r4, #38]	; 0x26
 8001d68:	3a01      	subs	r2, #1
 8001d6a:	b292      	uxth	r2, r2
 8001d6c:	84e2      	strh	r2, [r4, #38]	; 0x26
    while (huart->TxXferCount > 0U)
 8001d6e:	8ce3      	ldrh	r3, [r4, #38]	; 0x26
 8001d70:	b29b      	uxth	r3, r3
 8001d72:	b173      	cbz	r3, 8001d92 <HAL_UART_Transmit+0xb0>
      if (UART_WaitOnFlagUntilTimeout(huart, UART_FLAG_TXE, RESET, tickstart, Timeout) != HAL_OK)
 8001d74:	9600      	str	r6, [sp, #0]
 8001d76:	463b      	mov	r3, r7
 8001d78:	464a      	mov	r2, r9
 8001d7a:	4641      	mov	r1, r8
 8001d7c:	4620      	mov	r0, r4
 8001d7e:	f7ff ff4d 	bl	8001c1c <UART_WaitOnFlagUntilTimeout>
 8001d82:	b9e0      	cbnz	r0, 8001dbe <HAL_UART_Transmit+0xdc>
      if (pdata8bits == NULL)
 8001d84:	2d00      	cmp	r5, #0
 8001d86:	d0e8      	beq.n	8001d5a <HAL_UART_Transmit+0x78>
        huart->Instance->DR = (uint8_t)(*pdata8bits & 0xFFU);
 8001d88:	6823      	ldr	r3, [r4, #0]
 8001d8a:	f815 2b01 	ldrb.w	r2, [r5], #1
 8001d8e:	605a      	str	r2, [r3, #4]
        pdata8bits++;
 8001d90:	e7e9      	b.n	8001d66 <HAL_UART_Transmit+0x84>
    if (UART_WaitOnFlagUntilTimeout(huart, UART_FLAG_TC, RESET, tickstart, Timeout) != HAL_OK)
 8001d92:	9600      	str	r6, [sp, #0]
 8001d94:	463b      	mov	r3, r7
 8001d96:	2200      	movs	r2, #0
 8001d98:	2140      	movs	r1, #64	; 0x40
 8001d9a:	4620      	mov	r0, r4
 8001d9c:	f7ff ff3e 	bl	8001c1c <UART_WaitOnFlagUntilTimeout>
 8001da0:	b978      	cbnz	r0, 8001dc2 <HAL_UART_Transmit+0xe0>
    huart->gState = HAL_UART_STATE_READY;
 8001da2:	2320      	movs	r3, #32
 8001da4:	f884 3039 	strb.w	r3, [r4, #57]	; 0x39
    return HAL_OK;
 8001da8:	e000      	b.n	8001dac <HAL_UART_Transmit+0xca>
    return HAL_BUSY;
 8001daa:	2002      	movs	r0, #2
}
 8001dac:	b002      	add	sp, #8
 8001dae:	e8bd 87f0 	ldmia.w	sp!, {r4, r5, r6, r7, r8, r9, sl, pc}
      return  HAL_ERROR;
 8001db2:	2001      	movs	r0, #1
 8001db4:	e7fa      	b.n	8001dac <HAL_UART_Transmit+0xca>
 8001db6:	2001      	movs	r0, #1
 8001db8:	e7f8      	b.n	8001dac <HAL_UART_Transmit+0xca>
    __HAL_LOCK(huart);
 8001dba:	2002      	movs	r0, #2
 8001dbc:	e7f6      	b.n	8001dac <HAL_UART_Transmit+0xca>
        return HAL_TIMEOUT;
 8001dbe:	2003      	movs	r0, #3
 8001dc0:	e7f4      	b.n	8001dac <HAL_UART_Transmit+0xca>
      return HAL_TIMEOUT;
 8001dc2:	2003      	movs	r0, #3
 8001dc4:	e7f2      	b.n	8001dac <HAL_UART_Transmit+0xca>
	...

08001dc8 <HAL_UART_Receive_DMA>:
{
 8001dc8:	b530      	push	{r4, r5, lr}
 8001dca:	b083      	sub	sp, #12
 8001dcc:	4604      	mov	r4, r0
  if (huart->RxState == HAL_UART_STATE_READY)
 8001dce:	f890 003a 	ldrb.w	r0, [r0, #58]	; 0x3a
 8001dd2:	b2c0      	uxtb	r0, r0
 8001dd4:	2820      	cmp	r0, #32
 8001dd6:	d13c      	bne.n	8001e52 <HAL_UART_Receive_DMA+0x8a>
    if ((pData == NULL) || (Size == 0U))
 8001dd8:	2900      	cmp	r1, #0
 8001dda:	d03d      	beq.n	8001e58 <HAL_UART_Receive_DMA+0x90>
 8001ddc:	2a00      	cmp	r2, #0
 8001dde:	d03d      	beq.n	8001e5c <HAL_UART_Receive_DMA+0x94>
    __HAL_LOCK(huart);
 8001de0:	f894 3038 	ldrb.w	r3, [r4, #56]	; 0x38
 8001de4:	2b01      	cmp	r3, #1
 8001de6:	d03b      	beq.n	8001e60 <HAL_UART_Receive_DMA+0x98>
 8001de8:	2301      	movs	r3, #1
 8001dea:	f884 3038 	strb.w	r3, [r4, #56]	; 0x38
    huart->pRxBuffPtr = pData;
 8001dee:	62a1      	str	r1, [r4, #40]	; 0x28
    huart->RxXferSize = Size;
 8001df0:	85a2      	strh	r2, [r4, #44]	; 0x2c
    huart->ErrorCode = HAL_UART_ERROR_NONE;
 8001df2:	2500      	movs	r5, #0
 8001df4:	63e5      	str	r5, [r4, #60]	; 0x3c
    huart->RxState = HAL_UART_STATE_BUSY_RX;
 8001df6:	2322      	movs	r3, #34	; 0x22
 8001df8:	f884 303a 	strb.w	r3, [r4, #58]	; 0x3a
    huart->hdmarx->XferCpltCallback = UART_DMAReceiveCplt;
 8001dfc:	6b63      	ldr	r3, [r4, #52]	; 0x34
 8001dfe:	4819      	ldr	r0, [pc, #100]	; (8001e64 <HAL_UART_Receive_DMA+0x9c>)
 8001e00:	6298      	str	r0, [r3, #40]	; 0x28
    huart->hdmarx->XferHalfCpltCallback = UART_DMARxHalfCplt;
 8001e02:	6b63      	ldr	r3, [r4, #52]	; 0x34
 8001e04:	4818      	ldr	r0, [pc, #96]	; (8001e68 <HAL_UART_Receive_DMA+0xa0>)
 8001e06:	62d8      	str	r0, [r3, #44]	; 0x2c
    huart->hdmarx->XferErrorCallback = UART_DMAError;
 8001e08:	6b63      	ldr	r3, [r4, #52]	; 0x34
 8001e0a:	4818      	ldr	r0, [pc, #96]	; (8001e6c <HAL_UART_Receive_DMA+0xa4>)
 8001e0c:	6318      	str	r0, [r3, #48]	; 0x30
    huart->hdmarx->XferAbortCallback = NULL;
 8001e0e:	6b63      	ldr	r3, [r4, #52]	; 0x34
 8001e10:	635d      	str	r5, [r3, #52]	; 0x34
    HAL_DMA_Start_IT(huart->hdmarx, (uint32_t)&huart->Instance->DR, *(uint32_t *)tmp, Size);
 8001e12:	6820      	ldr	r0, [r4, #0]
 8001e14:	4613      	mov	r3, r2
 8001e16:	460a      	mov	r2, r1
 8001e18:	1d01      	adds	r1, r0, #4
 8001e1a:	6b60      	ldr	r0, [r4, #52]	; 0x34
 8001e1c:	f7ff f800 	bl	8000e20 <HAL_DMA_Start_IT>
    __HAL_UART_CLEAR_OREFLAG(huart);
 8001e20:	9501      	str	r5, [sp, #4]
 8001e22:	6823      	ldr	r3, [r4, #0]
 8001e24:	681a      	ldr	r2, [r3, #0]
 8001e26:	9201      	str	r2, [sp, #4]
 8001e28:	685a      	ldr	r2, [r3, #4]
 8001e2a:	9201      	str	r2, [sp, #4]
 8001e2c:	9a01      	ldr	r2, [sp, #4]
    __HAL_UNLOCK(huart);
 8001e2e:	f884 5038 	strb.w	r5, [r4, #56]	; 0x38
    SET_BIT(huart->Instance->CR1, USART_CR1_PEIE);
 8001e32:	68da      	ldr	r2, [r3, #12]
 8001e34:	f442 7280 	orr.w	r2, r2, #256	; 0x100
 8001e38:	60da      	str	r2, [r3, #12]
    SET_BIT(huart->Instance->CR3, USART_CR3_EIE);
 8001e3a:	6822      	ldr	r2, [r4, #0]
 8001e3c:	6953      	ldr	r3, [r2, #20]
 8001e3e:	f043 0301 	orr.w	r3, r3, #1
 8001e42:	6153      	str	r3, [r2, #20]
    SET_BIT(huart->Instance->CR3, USART_CR3_DMAR);
 8001e44:	6822      	ldr	r2, [r4, #0]
 8001e46:	6953      	ldr	r3, [r2, #20]
 8001e48:	f043 0340 	orr.w	r3, r3, #64	; 0x40
 8001e4c:	6153      	str	r3, [r2, #20]
    return HAL_OK;
 8001e4e:	4628      	mov	r0, r5
 8001e50:	e000      	b.n	8001e54 <HAL_UART_Receive_DMA+0x8c>
    return HAL_BUSY;
 8001e52:	2002      	movs	r0, #2
}
 8001e54:	b003      	add	sp, #12
 8001e56:	bd30      	pop	{r4, r5, pc}
      return HAL_ERROR;
 8001e58:	2001      	movs	r0, #1
 8001e5a:	e7fb      	b.n	8001e54 <HAL_UART_Receive_DMA+0x8c>
 8001e5c:	2001      	movs	r0, #1
 8001e5e:	e7f9      	b.n	8001e54 <HAL_UART_Receive_DMA+0x8c>
    __HAL_LOCK(huart);
 8001e60:	2002      	movs	r0, #2
 8001e62:	e7f7      	b.n	8001e54 <HAL_UART_Receive_DMA+0x8c>
 8001e64:	08001edd 	.word	0x08001edd
 8001e68:	08001faf 	.word	0x08001faf
 8001e6c:	08001fbb 	.word	0x08001fbb

08001e70 <HAL_UART_DMAStop>:
{
 8001e70:	b510      	push	{r4, lr}
 8001e72:	4604      	mov	r4, r0
  dmarequest = HAL_IS_BIT_SET(huart->Instance->CR3, USART_CR3_DMAT);
 8001e74:	6802      	ldr	r2, [r0, #0]
 8001e76:	6951      	ldr	r1, [r2, #20]
  if ((huart->gState == HAL_UART_STATE_BUSY_TX) && dmarequest)
 8001e78:	f890 3039 	ldrb.w	r3, [r0, #57]	; 0x39
 8001e7c:	b2db      	uxtb	r3, r3
 8001e7e:	2b21      	cmp	r3, #33	; 0x21
 8001e80:	d008      	beq.n	8001e94 <HAL_UART_DMAStop+0x24>
  dmarequest = HAL_IS_BIT_SET(huart->Instance->CR3, USART_CR3_DMAR);
 8001e82:	6822      	ldr	r2, [r4, #0]
 8001e84:	6951      	ldr	r1, [r2, #20]
  if ((huart->RxState == HAL_UART_STATE_BUSY_RX) && dmarequest)
 8001e86:	f894 303a 	ldrb.w	r3, [r4, #58]	; 0x3a
 8001e8a:	b2db      	uxtb	r3, r3
 8001e8c:	2b22      	cmp	r3, #34	; 0x22
 8001e8e:	d015      	beq.n	8001ebc <HAL_UART_DMAStop+0x4c>
}
 8001e90:	2000      	movs	r0, #0
 8001e92:	bd10      	pop	{r4, pc}
  if ((huart->gState == HAL_UART_STATE_BUSY_TX) && dmarequest)
 8001e94:	f011 0f80 	tst.w	r1, #128	; 0x80
 8001e98:	d0f3      	beq.n	8001e82 <HAL_UART_DMAStop+0x12>
    CLEAR_BIT(huart->Instance->CR3, USART_CR3_DMAT);
 8001e9a:	6953      	ldr	r3, [r2, #20]
 8001e9c:	f023 0380 	bic.w	r3, r3, #128	; 0x80
 8001ea0:	6153      	str	r3, [r2, #20]
    if (huart->hdmatx != NULL)
 8001ea2:	6b00      	ldr	r0, [r0, #48]	; 0x30
 8001ea4:	b108      	cbz	r0, 8001eaa <HAL_UART_DMAStop+0x3a>
      HAL_DMA_Abort(huart->hdmatx);
 8001ea6:	f7ff f805 	bl	8000eb4 <HAL_DMA_Abort>
  CLEAR_BIT(huart->Instance->CR1, (USART_CR1_TXEIE | USART_CR1_TCIE));
 8001eaa:	6822      	ldr	r2, [r4, #0]
 8001eac:	68d3      	ldr	r3, [r2, #12]
 8001eae:	f023 03c0 	bic.w	r3, r3, #192	; 0xc0
 8001eb2:	60d3      	str	r3, [r2, #12]
  huart->gState = HAL_UART_STATE_READY;
 8001eb4:	2320      	movs	r3, #32
 8001eb6:	f884 3039 	strb.w	r3, [r4, #57]	; 0x39
}
 8001eba:	e7e2      	b.n	8001e82 <HAL_UART_DMAStop+0x12>
  if ((huart->RxState == HAL_UART_STATE_BUSY_RX) && dmarequest)
 8001ebc:	f011 0f40 	tst.w	r1, #64	; 0x40
 8001ec0:	d0e6      	beq.n	8001e90 <HAL_UART_DMAStop+0x20>
    CLEAR_BIT(huart->Instance->CR3, USART_CR3_DMAR);
 8001ec2:	6953      	ldr	r3, [r2, #20]
 8001ec4:	f023 0340 	bic.w	r3, r3, #64	; 0x40
 8001ec8:	6153      	str	r3, [r2, #20]
    if (huart->hdmarx != NULL)
 8001eca:	6b60      	ldr	r0, [r4, #52]	; 0x34
 8001ecc:	b108      	cbz	r0, 8001ed2 <HAL_UART_DMAStop+0x62>
      HAL_DMA_Abort(huart->hdmarx);
 8001ece:	f7fe fff1 	bl	8000eb4 <HAL_DMA_Abort>
    UART_EndRxTransfer(huart);
 8001ed2:	4620      	mov	r0, r4
 8001ed4:	f7ff fe50 	bl	8001b78 <UART_EndRxTransfer>
 8001ed8:	e7da      	b.n	8001e90 <HAL_UART_DMAStop+0x20>

08001eda <HAL_UART_TxCpltCallback>:
}
 8001eda:	4770      	bx	lr

08001edc <UART_DMAReceiveCplt>:
{
 8001edc:	b508      	push	{r3, lr}
 8001ede:	4603      	mov	r3, r0
  UART_HandleTypeDef *huart = (UART_HandleTypeDef *)((DMA_HandleTypeDef *)hdma)->Parent;
 8001ee0:	6a40      	ldr	r0, [r0, #36]	; 0x24
  if ((hdma->Instance->CCR & DMA_CCR_CIRC) == 0U)
 8001ee2:	681b      	ldr	r3, [r3, #0]
 8001ee4:	681b      	ldr	r3, [r3, #0]
 8001ee6:	f013 0f20 	tst.w	r3, #32
 8001eea:	d113      	bne.n	8001f14 <UART_DMAReceiveCplt+0x38>
    huart->RxXferCount = 0U;
 8001eec:	2300      	movs	r3, #0
 8001eee:	85c3      	strh	r3, [r0, #46]	; 0x2e
    CLEAR_BIT(huart->Instance->CR1, USART_CR1_PEIE);
 8001ef0:	6802      	ldr	r2, [r0, #0]
 8001ef2:	68d3      	ldr	r3, [r2, #12]
 8001ef4:	f423 7380 	bic.w	r3, r3, #256	; 0x100
 8001ef8:	60d3      	str	r3, [r2, #12]
    CLEAR_BIT(huart->Instance->CR3, USART_CR3_EIE);
 8001efa:	6802      	ldr	r2, [r0, #0]
 8001efc:	6953      	ldr	r3, [r2, #20]
 8001efe:	f023 0301 	bic.w	r3, r3, #1
 8001f02:	6153      	str	r3, [r2, #20]
    CLEAR_BIT(huart->Instance->CR3, USART_CR3_DMAR);
 8001f04:	6802      	ldr	r2, [r0, #0]
 8001f06:	6953      	ldr	r3, [r2, #20]
 8001f08:	f023 0340 	bic.w	r3, r3, #64	; 0x40
 8001f0c:	6153      	str	r3, [r2, #20]
    huart->RxState = HAL_UART_STATE_READY;
 8001f0e:	2320      	movs	r3, #32
 8001f10:	f880 303a 	strb.w	r3, [r0, #58]	; 0x3a
  HAL_UART_RxCpltCallback(huart);
 8001f14:	f7fe fb58 	bl	80005c8 <HAL_UART_RxCpltCallback>
}
 8001f18:	bd08      	pop	{r3, pc}

08001f1a <UART_Receive_IT>:
{
 8001f1a:	b508      	push	{r3, lr}
  if (huart->RxState == HAL_UART_STATE_BUSY_RX)
 8001f1c:	f890 303a 	ldrb.w	r3, [r0, #58]	; 0x3a
 8001f20:	b2db      	uxtb	r3, r3
 8001f22:	2b22      	cmp	r3, #34	; 0x22
 8001f24:	d130      	bne.n	8001f88 <UART_Receive_IT+0x6e>
    if ((huart->Init.WordLength == UART_WORDLENGTH_9B) && (huart->Init.Parity == UART_PARITY_NONE))
 8001f26:	6883      	ldr	r3, [r0, #8]
 8001f28:	f5b3 5f80 	cmp.w	r3, #4096	; 0x1000
 8001f2c:	d006      	beq.n	8001f3c <UART_Receive_IT+0x22>
      pdata8bits = (uint8_t *) huart->pRxBuffPtr;
 8001f2e:	6a82      	ldr	r2, [r0, #40]	; 0x28
      if ((huart->Init.WordLength == UART_WORDLENGTH_9B) || ((huart->Init.WordLength == UART_WORDLENGTH_8B) && (huart->Init.Parity == UART_PARITY_NONE)))
 8001f30:	b183      	cbz	r3, 8001f54 <UART_Receive_IT+0x3a>
        *pdata8bits = (uint8_t)(huart->Instance->DR & (uint8_t)0x007F);
 8001f32:	6803      	ldr	r3, [r0, #0]
 8001f34:	685b      	ldr	r3, [r3, #4]
 8001f36:	f003 037f 	and.w	r3, r3, #127	; 0x7f
 8001f3a:	e02b      	b.n	8001f94 <UART_Receive_IT+0x7a>
    if ((huart->Init.WordLength == UART_WORDLENGTH_9B) && (huart->Init.Parity == UART_PARITY_NONE))
 8001f3c:	6903      	ldr	r3, [r0, #16]
 8001f3e:	bb2b      	cbnz	r3, 8001f8c <UART_Receive_IT+0x72>
      pdata16bits = (uint16_t *) huart->pRxBuffPtr;
 8001f40:	6a82      	ldr	r2, [r0, #40]	; 0x28
      *pdata16bits = (uint16_t)(huart->Instance->DR & (uint16_t)0x01FF);
 8001f42:	6803      	ldr	r3, [r0, #0]
 8001f44:	685b      	ldr	r3, [r3, #4]
 8001f46:	f3c3 0308 	ubfx	r3, r3, #0, #9
 8001f4a:	8013      	strh	r3, [r2, #0]
      huart->pRxBuffPtr += 2U;
 8001f4c:	6a83      	ldr	r3, [r0, #40]	; 0x28
 8001f4e:	3302      	adds	r3, #2
 8001f50:	6283      	str	r3, [r0, #40]	; 0x28
 8001f52:	e023      	b.n	8001f9c <UART_Receive_IT+0x82>
      if ((huart->Init.WordLength == UART_WORDLENGTH_9B) || ((huart->Init.WordLength == UART_WORDLENGTH_8B) && (huart->Init.Parity == UART_PARITY_NONE)))
 8001f54:	6903      	ldr	r3, [r0, #16]
 8001f56:	2b00      	cmp	r3, #0
 8001f58:	d1eb      	bne.n	8001f32 <UART_Receive_IT+0x18>
 8001f5a:	e018      	b.n	8001f8e <UART_Receive_IT+0x74>
      __HAL_UART_DISABLE_IT(huart, UART_IT_RXNE);
 8001f5c:	6802      	ldr	r2, [r0, #0]
 8001f5e:	68d3      	ldr	r3, [r2, #12]
 8001f60:	f023 0320 	bic.w	r3, r3, #32
 8001f64:	60d3      	str	r3, [r2, #12]
      __HAL_UART_DISABLE_IT(huart, UART_IT_PE);
 8001f66:	6802      	ldr	r2, [r0, #0]
 8001f68:	68d3      	ldr	r3, [r2, #12]
 8001f6a:	f423 7380 	bic.w	r3, r3, #256	; 0x100
 8001f6e:	60d3      	str	r3, [r2, #12]
      __HAL_UART_DISABLE_IT(huart, UART_IT_ERR);
 8001f70:	6802      	ldr	r2, [r0, #0]
 8001f72:	6953      	ldr	r3, [r2, #20]
 8001f74:	f023 0301 	bic.w	r3, r3, #1
 8001f78:	6153      	str	r3, [r2, #20]
      huart->RxState = HAL_UART_STATE_READY;
 8001f7a:	2320      	movs	r3, #32
 8001f7c:	f880 303a 	strb.w	r3, [r0, #58]	; 0x3a
      HAL_UART_RxCpltCallback(huart);
 8001f80:	f7fe fb22 	bl	80005c8 <HAL_UART_RxCpltCallback>
      return HAL_OK;
 8001f84:	2000      	movs	r0, #0
 8001f86:	e010      	b.n	8001faa <UART_Receive_IT+0x90>
    return HAL_BUSY;
 8001f88:	2002      	movs	r0, #2
 8001f8a:	e00e      	b.n	8001faa <UART_Receive_IT+0x90>
      pdata8bits = (uint8_t *) huart->pRxBuffPtr;
 8001f8c:	6a82      	ldr	r2, [r0, #40]	; 0x28
        *pdata8bits = (uint8_t)(huart->Instance->DR & (uint8_t)0x00FF);
 8001f8e:	6803      	ldr	r3, [r0, #0]
 8001f90:	685b      	ldr	r3, [r3, #4]
 8001f92:	b2db      	uxtb	r3, r3
 8001f94:	7013      	strb	r3, [r2, #0]
      huart->pRxBuffPtr += 1U;
 8001f96:	6a83      	ldr	r3, [r0, #40]	; 0x28
 8001f98:	3301      	adds	r3, #1
 8001f9a:	6283      	str	r3, [r0, #40]	; 0x28
    if (--huart->RxXferCount == 0U)
 8001f9c:	8dc3      	ldrh	r3, [r0, #46]	; 0x2e
 8001f9e:	3b01      	subs	r3, #1
 8001fa0:	b29b      	uxth	r3, r3
 8001fa2:	85c3      	strh	r3, [r0, #46]	; 0x2e
 8001fa4:	2b00      	cmp	r3, #0
 8001fa6:	d0d9      	beq.n	8001f5c <UART_Receive_IT+0x42>
    return HAL_OK;
 8001fa8:	2000      	movs	r0, #0
}
 8001faa:	bd08      	pop	{r3, pc}

08001fac <HAL_UART_RxHalfCpltCallback>:
}
 8001fac:	4770      	bx	lr

08001fae <UART_DMARxHalfCplt>:
{
 8001fae:	b508      	push	{r3, lr}
  HAL_UART_RxHalfCpltCallback(huart);
 8001fb0:	6a40      	ldr	r0, [r0, #36]	; 0x24
 8001fb2:	f7ff fffb 	bl	8001fac <HAL_UART_RxHalfCpltCallback>
}
 8001fb6:	bd08      	pop	{r3, pc}

08001fb8 <HAL_UART_ErrorCallback>:
}
 8001fb8:	4770      	bx	lr

08001fba <UART_DMAError>:
{
 8001fba:	b510      	push	{r4, lr}
  UART_HandleTypeDef *huart = (UART_HandleTypeDef *)((DMA_HandleTypeDef *)hdma)->Parent;
 8001fbc:	6a44      	ldr	r4, [r0, #36]	; 0x24
  dmarequest = HAL_IS_BIT_SET(huart->Instance->CR3, USART_CR3_DMAT);
 8001fbe:	6822      	ldr	r2, [r4, #0]
 8001fc0:	6951      	ldr	r1, [r2, #20]
  if ((huart->gState == HAL_UART_STATE_BUSY_TX) && dmarequest)
 8001fc2:	f894 3039 	ldrb.w	r3, [r4, #57]	; 0x39
 8001fc6:	b2db      	uxtb	r3, r3
 8001fc8:	2b21      	cmp	r3, #33	; 0x21
 8001fca:	d00e      	beq.n	8001fea <UART_DMAError+0x30>
  dmarequest = HAL_IS_BIT_SET(huart->Instance->CR3, USART_CR3_DMAR);
 8001fcc:	6823      	ldr	r3, [r4, #0]
 8001fce:	695a      	ldr	r2, [r3, #20]
  if ((huart->RxState == HAL_UART_STATE_BUSY_RX) && dmarequest)
 8001fd0:	f894 303a 	ldrb.w	r3, [r4, #58]	; 0x3a
 8001fd4:	b2db      	uxtb	r3, r3
 8001fd6:	2b22      	cmp	r3, #34	; 0x22
 8001fd8:	d014      	beq.n	8002004 <UART_DMAError+0x4a>
  huart->ErrorCode |= HAL_UART_ERROR_DMA;
 8001fda:	6be3      	ldr	r3, [r4, #60]	; 0x3c
 8001fdc:	f043 0310 	orr.w	r3, r3, #16
 8001fe0:	63e3      	str	r3, [r4, #60]	; 0x3c
  HAL_UART_ErrorCallback(huart);
 8001fe2:	4620      	mov	r0, r4
 8001fe4:	f7ff ffe8 	bl	8001fb8 <HAL_UART_ErrorCallback>
}
 8001fe8:	bd10      	pop	{r4, pc}
  if ((huart->gState == HAL_UART_STATE_BUSY_TX) && dmarequest)
 8001fea:	f011 0f80 	tst.w	r1, #128	; 0x80
 8001fee:	d0ed      	beq.n	8001fcc <UART_DMAError+0x12>
    huart->TxXferCount = 0x00U;
 8001ff0:	2300      	movs	r3, #0
 8001ff2:	84e3      	strh	r3, [r4, #38]	; 0x26
  CLEAR_BIT(huart->Instance->CR1, (USART_CR1_TXEIE | USART_CR1_TCIE));
 8001ff4:	68d3      	ldr	r3, [r2, #12]
 8001ff6:	f023 03c0 	bic.w	r3, r3, #192	; 0xc0
 8001ffa:	60d3      	str	r3, [r2, #12]
  huart->gState = HAL_UART_STATE_READY;
 8001ffc:	2320      	movs	r3, #32
 8001ffe:	f884 3039 	strb.w	r3, [r4, #57]	; 0x39
}
 8002002:	e7e3      	b.n	8001fcc <UART_DMAError+0x12>
  if ((huart->RxState == HAL_UART_STATE_BUSY_RX) && dmarequest)
 8002004:	f012 0f40 	tst.w	r2, #64	; 0x40
 8002008:	d0e7      	beq.n	8001fda <UART_DMAError+0x20>
    huart->RxXferCount = 0x00U;
 800200a:	2300      	movs	r3, #0
 800200c:	85e3      	strh	r3, [r4, #46]	; 0x2e
    UART_EndRxTransfer(huart);
 800200e:	4620      	mov	r0, r4
 8002010:	f7ff fdb2 	bl	8001b78 <UART_EndRxTransfer>
 8002014:	e7e1      	b.n	8001fda <UART_DMAError+0x20>
	...

08002018 <HAL_UART_IRQHandler>:
{
 8002018:	b538      	push	{r3, r4, r5, lr}
 800201a:	4604      	mov	r4, r0
  uint32_t isrflags   = READ_REG(huart->Instance->SR);
 800201c:	6802      	ldr	r2, [r0, #0]
 800201e:	6813      	ldr	r3, [r2, #0]
  uint32_t cr1its     = READ_REG(huart->Instance->CR1);
 8002020:	68d0      	ldr	r0, [r2, #12]
  uint32_t cr3its     = READ_REG(huart->Instance->CR3);
 8002022:	6951      	ldr	r1, [r2, #20]
  if (errorflags == RESET)
 8002024:	f013 0f0f 	tst.w	r3, #15
 8002028:	d109      	bne.n	800203e <HAL_UART_IRQHandler+0x26>
    if (((isrflags & USART_SR_RXNE) != RESET) && ((cr1its & USART_CR1_RXNEIE) != RESET))
 800202a:	f013 0f20 	tst.w	r3, #32
 800202e:	d00c      	beq.n	800204a <HAL_UART_IRQHandler+0x32>
 8002030:	f010 0f20 	tst.w	r0, #32
 8002034:	d009      	beq.n	800204a <HAL_UART_IRQHandler+0x32>
      UART_Receive_IT(huart);
 8002036:	4620      	mov	r0, r4
 8002038:	f7ff ff6f 	bl	8001f1a <UART_Receive_IT>
      return;
 800203c:	e012      	b.n	8002064 <HAL_UART_IRQHandler+0x4c>
  if ((errorflags != RESET) && (((cr3its & USART_CR3_EIE) != RESET) || ((cr1its & (USART_CR1_RXNEIE | USART_CR1_PEIE)) != RESET)))
 800203e:	f001 0101 	and.w	r1, r1, #1
 8002042:	f400 7590 	and.w	r5, r0, #288	; 0x120
 8002046:	430d      	orrs	r5, r1
 8002048:	d10d      	bne.n	8002066 <HAL_UART_IRQHandler+0x4e>
  if (((isrflags & USART_SR_TXE) != RESET) && ((cr1its & USART_CR1_TXEIE) != RESET))
 800204a:	f013 0f80 	tst.w	r3, #128	; 0x80
 800204e:	d002      	beq.n	8002056 <HAL_UART_IRQHandler+0x3e>
 8002050:	f010 0f80 	tst.w	r0, #128	; 0x80
 8002054:	d170      	bne.n	8002138 <HAL_UART_IRQHandler+0x120>
  if (((isrflags & USART_SR_TC) != RESET) && ((cr1its & USART_CR1_TCIE) != RESET))
 8002056:	f013 0f40 	tst.w	r3, #64	; 0x40
 800205a:	d003      	beq.n	8002064 <HAL_UART_IRQHandler+0x4c>
 800205c:	f010 0f40 	tst.w	r0, #64	; 0x40
 8002060:	f040 8095 	bne.w	800218e <HAL_UART_IRQHandler+0x176>
}
 8002064:	bd38      	pop	{r3, r4, r5, pc}
    if (((isrflags & USART_SR_PE) != RESET) && ((cr1its & USART_CR1_PEIE) != RESET))
 8002066:	f013 0f01 	tst.w	r3, #1
 800206a:	d006      	beq.n	800207a <HAL_UART_IRQHandler+0x62>
 800206c:	f410 7f80 	tst.w	r0, #256	; 0x100
 8002070:	d003      	beq.n	800207a <HAL_UART_IRQHandler+0x62>
      huart->ErrorCode |= HAL_UART_ERROR_PE;
 8002072:	6be2      	ldr	r2, [r4, #60]	; 0x3c
 8002074:	f042 0201 	orr.w	r2, r2, #1
 8002078:	63e2      	str	r2, [r4, #60]	; 0x3c
    if (((isrflags & USART_SR_NE) != RESET) && ((cr3its & USART_CR3_EIE) != RESET))
 800207a:	f013 0f04 	tst.w	r3, #4
 800207e:	d00b      	beq.n	8002098 <HAL_UART_IRQHandler+0x80>
 8002080:	b191      	cbz	r1, 80020a8 <HAL_UART_IRQHandler+0x90>
      huart->ErrorCode |= HAL_UART_ERROR_NE;
 8002082:	6be2      	ldr	r2, [r4, #60]	; 0x3c
 8002084:	f042 0202 	orr.w	r2, r2, #2
 8002088:	63e2      	str	r2, [r4, #60]	; 0x3c
    if (((isrflags & USART_SR_FE) != RESET) && ((cr3its & USART_CR3_EIE) != RESET))
 800208a:	f013 0f02 	tst.w	r3, #2
 800208e:	d107      	bne.n	80020a0 <HAL_UART_IRQHandler+0x88>
    if (((isrflags & USART_SR_ORE) != RESET) && (((cr1its & USART_CR1_RXNEIE) != RESET) || ((cr3its & USART_CR3_EIE) != RESET)))
 8002090:	f013 0f08 	tst.w	r3, #8
 8002094:	d10f      	bne.n	80020b6 <HAL_UART_IRQHandler+0x9e>
 8002096:	e012      	b.n	80020be <HAL_UART_IRQHandler+0xa6>
    if (((isrflags & USART_SR_FE) != RESET) && ((cr3its & USART_CR3_EIE) != RESET))
 8002098:	f013 0f02 	tst.w	r3, #2
 800209c:	d004      	beq.n	80020a8 <HAL_UART_IRQHandler+0x90>
 800209e:	b119      	cbz	r1, 80020a8 <HAL_UART_IRQHandler+0x90>
      huart->ErrorCode |= HAL_UART_ERROR_FE;
 80020a0:	6be2      	ldr	r2, [r4, #60]	; 0x3c
 80020a2:	f042 0204 	orr.w	r2, r2, #4
 80020a6:	63e2      	str	r2, [r4, #60]	; 0x3c
    if (((isrflags & USART_SR_ORE) != RESET) && (((cr1its & USART_CR1_RXNEIE) != RESET) || ((cr3its & USART_CR3_EIE) != RESET)))
 80020a8:	f013 0f08 	tst.w	r3, #8
 80020ac:	d007      	beq.n	80020be <HAL_UART_IRQHandler+0xa6>
 80020ae:	f000 0220 	and.w	r2, r0, #32
 80020b2:	430a      	orrs	r2, r1
 80020b4:	d003      	beq.n	80020be <HAL_UART_IRQHandler+0xa6>
      huart->ErrorCode |= HAL_UART_ERROR_ORE;
 80020b6:	6be2      	ldr	r2, [r4, #60]	; 0x3c
 80020b8:	f042 0208 	orr.w	r2, r2, #8
 80020bc:	63e2      	str	r2, [r4, #60]	; 0x3c
    if (huart->ErrorCode != HAL_UART_ERROR_NONE)
 80020be:	6be2      	ldr	r2, [r4, #60]	; 0x3c
 80020c0:	2a00      	cmp	r2, #0
 80020c2:	d0cf      	beq.n	8002064 <HAL_UART_IRQHandler+0x4c>
      if (((isrflags & USART_SR_RXNE) != RESET) && ((cr1its & USART_CR1_RXNEIE) != RESET))
 80020c4:	f013 0f20 	tst.w	r3, #32
 80020c8:	d002      	beq.n	80020d0 <HAL_UART_IRQHandler+0xb8>
 80020ca:	f010 0f20 	tst.w	r0, #32
 80020ce:	d10e      	bne.n	80020ee <HAL_UART_IRQHandler+0xd6>
      dmarequest = HAL_IS_BIT_SET(huart->Instance->CR3, USART_CR3_DMAR);
 80020d0:	6823      	ldr	r3, [r4, #0]
 80020d2:	695a      	ldr	r2, [r3, #20]
      if (((huart->ErrorCode & HAL_UART_ERROR_ORE) != RESET) || dmarequest)
 80020d4:	6be3      	ldr	r3, [r4, #60]	; 0x3c
      dmarequest = HAL_IS_BIT_SET(huart->Instance->CR3, USART_CR3_DMAR);
 80020d6:	f002 0240 	and.w	r2, r2, #64	; 0x40
      if (((huart->ErrorCode & HAL_UART_ERROR_ORE) != RESET) || dmarequest)
 80020da:	f003 0308 	and.w	r3, r3, #8
 80020de:	4313      	orrs	r3, r2
 80020e0:	d109      	bne.n	80020f6 <HAL_UART_IRQHandler+0xde>
        HAL_UART_ErrorCallback(huart);
 80020e2:	4620      	mov	r0, r4
 80020e4:	f7ff ff68 	bl	8001fb8 <HAL_UART_ErrorCallback>
        huart->ErrorCode = HAL_UART_ERROR_NONE;
 80020e8:	2300      	movs	r3, #0
 80020ea:	63e3      	str	r3, [r4, #60]	; 0x3c
 80020ec:	e7ba      	b.n	8002064 <HAL_UART_IRQHandler+0x4c>
        UART_Receive_IT(huart);
 80020ee:	4620      	mov	r0, r4
 80020f0:	f7ff ff13 	bl	8001f1a <UART_Receive_IT>
 80020f4:	e7ec      	b.n	80020d0 <HAL_UART_IRQHandler+0xb8>
        UART_EndRxTransfer(huart);
 80020f6:	4620      	mov	r0, r4
 80020f8:	f7ff fd3e 	bl	8001b78 <UART_EndRxTransfer>
        if (HAL_IS_BIT_SET(huart->Instance->CR3, USART_CR3_DMAR))
 80020fc:	6823      	ldr	r3, [r4, #0]
 80020fe:	695a      	ldr	r2, [r3, #20]
 8002100:	f012 0f40 	tst.w	r2, #64	; 0x40
 8002104:	d014      	beq.n	8002130 <HAL_UART_IRQHandler+0x118>
          CLEAR_BIT(huart->Instance->CR3, USART_CR3_DMAR);
 8002106:	695a      	ldr	r2, [r3, #20]
 8002108:	f022 0240 	bic.w	r2, r2, #64	; 0x40
 800210c:	615a      	str	r2, [r3, #20]
          if (huart->hdmarx != NULL)
 800210e:	6b63      	ldr	r3, [r4, #52]	; 0x34
 8002110:	b153      	cbz	r3, 8002128 <HAL_UART_IRQHandler+0x110>
            huart->hdmarx->XferAbortCallback = UART_DMAAbortOnError;
 8002112:	4a24      	ldr	r2, [pc, #144]	; (80021a4 <HAL_UART_IRQHandler+0x18c>)
 8002114:	635a      	str	r2, [r3, #52]	; 0x34
            if (HAL_DMA_Abort_IT(huart->hdmarx) != HAL_OK)
 8002116:	6b60      	ldr	r0, [r4, #52]	; 0x34
 8002118:	f7fe feee 	bl	8000ef8 <HAL_DMA_Abort_IT>
 800211c:	2800      	cmp	r0, #0
 800211e:	d0a1      	beq.n	8002064 <HAL_UART_IRQHandler+0x4c>
              huart->hdmarx->XferAbortCallback(huart->hdmarx);
 8002120:	6b60      	ldr	r0, [r4, #52]	; 0x34
 8002122:	6b43      	ldr	r3, [r0, #52]	; 0x34
 8002124:	4798      	blx	r3
 8002126:	e79d      	b.n	8002064 <HAL_UART_IRQHandler+0x4c>
            HAL_UART_ErrorCallback(huart);
 8002128:	4620      	mov	r0, r4
 800212a:	f7ff ff45 	bl	8001fb8 <HAL_UART_ErrorCallback>
 800212e:	e799      	b.n	8002064 <HAL_UART_IRQHandler+0x4c>
          HAL_UART_ErrorCallback(huart);
 8002130:	4620      	mov	r0, r4
 8002132:	f7ff ff41 	bl	8001fb8 <HAL_UART_ErrorCallback>
 8002136:	e795      	b.n	8002064 <HAL_UART_IRQHandler+0x4c>
  if (huart->gState == HAL_UART_STATE_BUSY_TX)
 8002138:	f894 3039 	ldrb.w	r3, [r4, #57]	; 0x39
 800213c:	b2db      	uxtb	r3, r3
 800213e:	2b21      	cmp	r3, #33	; 0x21
 8002140:	d190      	bne.n	8002064 <HAL_UART_IRQHandler+0x4c>
    if ((huart->Init.WordLength == UART_WORDLENGTH_9B) && (huart->Init.Parity == UART_PARITY_NONE))
 8002142:	68a3      	ldr	r3, [r4, #8]
 8002144:	f5b3 5f80 	cmp.w	r3, #4096	; 0x1000
 8002148:	d015      	beq.n	8002176 <HAL_UART_IRQHandler+0x15e>
      huart->Instance->DR = (uint8_t)(*huart->pTxBuffPtr++ & (uint8_t)0x00FF);
 800214a:	6a23      	ldr	r3, [r4, #32]
 800214c:	1c59      	adds	r1, r3, #1
 800214e:	6221      	str	r1, [r4, #32]
 8002150:	781b      	ldrb	r3, [r3, #0]
 8002152:	6053      	str	r3, [r2, #4]
    if (--huart->TxXferCount == 0U)
 8002154:	8ce3      	ldrh	r3, [r4, #38]	; 0x26
 8002156:	3b01      	subs	r3, #1
 8002158:	b29b      	uxth	r3, r3
 800215a:	84e3      	strh	r3, [r4, #38]	; 0x26
 800215c:	2b00      	cmp	r3, #0
 800215e:	d181      	bne.n	8002064 <HAL_UART_IRQHandler+0x4c>
      __HAL_UART_DISABLE_IT(huart, UART_IT_TXE);
 8002160:	6822      	ldr	r2, [r4, #0]
 8002162:	68d3      	ldr	r3, [r2, #12]
 8002164:	f023 0380 	bic.w	r3, r3, #128	; 0x80
 8002168:	60d3      	str	r3, [r2, #12]
      __HAL_UART_ENABLE_IT(huart, UART_IT_TC);
 800216a:	6822      	ldr	r2, [r4, #0]
 800216c:	68d3      	ldr	r3, [r2, #12]
 800216e:	f043 0340 	orr.w	r3, r3, #64	; 0x40
 8002172:	60d3      	str	r3, [r2, #12]
 8002174:	e776      	b.n	8002064 <HAL_UART_IRQHandler+0x4c>
    if ((huart->Init.WordLength == UART_WORDLENGTH_9B) && (huart->Init.Parity == UART_PARITY_NONE))
 8002176:	6923      	ldr	r3, [r4, #16]
 8002178:	2b00      	cmp	r3, #0
 800217a:	d1e6      	bne.n	800214a <HAL_UART_IRQHandler+0x132>
      huart->Instance->DR = (uint16_t)(*tmp & (uint16_t)0x01FF);
 800217c:	6a23      	ldr	r3, [r4, #32]
 800217e:	881b      	ldrh	r3, [r3, #0]
 8002180:	f3c3 0308 	ubfx	r3, r3, #0, #9
 8002184:	6053      	str	r3, [r2, #4]
      huart->pTxBuffPtr += 2U;
 8002186:	6a23      	ldr	r3, [r4, #32]
 8002188:	3302      	adds	r3, #2
 800218a:	6223      	str	r3, [r4, #32]
 800218c:	e7e2      	b.n	8002154 <HAL_UART_IRQHandler+0x13c>
  __HAL_UART_DISABLE_IT(huart, UART_IT_TC);
 800218e:	68d3      	ldr	r3, [r2, #12]
 8002190:	f023 0340 	bic.w	r3, r3, #64	; 0x40
 8002194:	60d3      	str	r3, [r2, #12]
  huart->gState = HAL_UART_STATE_READY;
 8002196:	2320      	movs	r3, #32
 8002198:	f884 3039 	strb.w	r3, [r4, #57]	; 0x39
  HAL_UART_TxCpltCallback(huart);
 800219c:	4620      	mov	r0, r4
 800219e:	f7ff fe9c 	bl	8001eda <HAL_UART_TxCpltCallback>
  return HAL_OK;
 80021a2:	e75f      	b.n	8002064 <HAL_UART_IRQHandler+0x4c>
 80021a4:	080021a9 	.word	0x080021a9

080021a8 <UART_DMAAbortOnError>:
{
 80021a8:	b508      	push	{r3, lr}
  UART_HandleTypeDef *huart = (UART_HandleTypeDef *)((DMA_HandleTypeDef *)hdma)->Parent;
 80021aa:	6a40      	ldr	r0, [r0, #36]	; 0x24
  huart->RxXferCount = 0x00U;
 80021ac:	2300      	movs	r3, #0
 80021ae:	85c3      	strh	r3, [r0, #46]	; 0x2e
  huart->TxXferCount = 0x00U;
 80021b0:	84c3      	strh	r3, [r0, #38]	; 0x26
  HAL_UART_ErrorCallback(huart);
 80021b2:	f7ff ff01 	bl	8001fb8 <HAL_UART_ErrorCallback>
}
 80021b6:	bd08      	pop	{r3, pc}

080021b8 <USB_CoreInit>:
  * @param  cfg pointer to a USB_CfgTypeDef structure that contains
  *         the configuration information for the specified USBx peripheral.
  * @retval HAL status
  */
HAL_StatusTypeDef USB_CoreInit(USB_TypeDef *USBx, USB_CfgTypeDef cfg)
{
 80021b8:	b084      	sub	sp, #16
 80021ba:	a801      	add	r0, sp, #4
 80021bc:	e880 000e 	stmia.w	r0, {r1, r2, r3}
              only by USB OTG FS peripheral.
            - This function is added to ensure compatibility across platforms.
   */

  return HAL_OK;
}
 80021c0:	2000      	movs	r0, #0
 80021c2:	b004      	add	sp, #16
 80021c4:	4770      	bx	lr

080021c6 <USB_DisableGlobalInt>:
                   USB_CNTR_SUSPM | USB_CNTR_ERRM |
                   USB_CNTR_SOFM | USB_CNTR_ESOFM |
                   USB_CNTR_RESETM;

  /* Clear interrupt mask */
  USBx->CNTR &= (uint16_t)(~winterruptmask);
 80021c6:	f8b0 3040 	ldrh.w	r3, [r0, #64]	; 0x40
 80021ca:	f423 537c 	bic.w	r3, r3, #16128	; 0x3f00
 80021ce:	045b      	lsls	r3, r3, #17
 80021d0:	0c5b      	lsrs	r3, r3, #17
 80021d2:	f8a0 3040 	strh.w	r3, [r0, #64]	; 0x40

  return HAL_OK;
}
 80021d6:	2000      	movs	r0, #0
 80021d8:	4770      	bx	lr

080021da <USB_SetCurrentMode>:
  /* NOTE : - This function is not required by USB Device FS peripheral, it is used
              only by USB OTG FS peripheral.
            - This function is added to ensure compatibility across platforms.
   */
  return HAL_OK;
}
 80021da:	2000      	movs	r0, #0
 80021dc:	4770      	bx	lr

080021de <USB_DevInit>:
  * @param  cfg  pointer to a USB_CfgTypeDef structure that contains
  *         the configuration information for the specified USBx peripheral.
  * @retval HAL status
  */
HAL_StatusTypeDef USB_DevInit(USB_TypeDef *USBx, USB_CfgTypeDef cfg)
{
 80021de:	b084      	sub	sp, #16
 80021e0:	b410      	push	{r4}
 80021e2:	4604      	mov	r4, r0
 80021e4:	a802      	add	r0, sp, #8
 80021e6:	e880 000e 	stmia.w	r0, {r1, r2, r3}
  /* Prevent unused argument(s) compilation warning */
  UNUSED(cfg);

  /* Init Device */
  /* CNTR_FRES = 1 */
  USBx->CNTR = (uint16_t)USB_CNTR_FRES;
 80021ea:	2301      	movs	r3, #1
 80021ec:	f8a4 3040 	strh.w	r3, [r4, #64]	; 0x40

  /* CNTR_FRES = 0 */
  USBx->CNTR = 0U;
 80021f0:	2000      	movs	r0, #0
 80021f2:	f8a4 0040 	strh.w	r0, [r4, #64]	; 0x40

  /* Clear pending interrupts */
  USBx->ISTR = 0U;
 80021f6:	f8a4 0044 	strh.w	r0, [r4, #68]	; 0x44

  /*Set Btable Address*/
  USBx->BTABLE = BTABLE_ADDRESS;
 80021fa:	f8a4 0050 	strh.w	r0, [r4, #80]	; 0x50

  return HAL_OK;
}
 80021fe:	bc10      	pop	{r4}
 8002200:	b004      	add	sp, #16
 8002202:	4770      	bx	lr

08002204 <USB_DevDisconnect>:
              only by USB OTG FS peripheral.
            - This function is added to ensure compatibility across platforms.
   */

  return HAL_OK;
}
 8002204:	2000      	movs	r0, #0
 8002206:	4770      	bx	lr

08002208 <__libc_init_array>:
 8002208:	b570      	push	{r4, r5, r6, lr}
 800220a:	2600      	movs	r6, #0
 800220c:	4d0c      	ldr	r5, [pc, #48]	; (8002240 <__libc_init_array+0x38>)
 800220e:	4c0d      	ldr	r4, [pc, #52]	; (8002244 <__libc_init_array+0x3c>)
 8002210:	1b64      	subs	r4, r4, r5
 8002212:	10a4      	asrs	r4, r4, #2
 8002214:	42a6      	cmp	r6, r4
 8002216:	d109      	bne.n	800222c <__libc_init_array+0x24>
 8002218:	f000 fc94 	bl	8002b44 <_init>
 800221c:	2600      	movs	r6, #0
 800221e:	4d0a      	ldr	r5, [pc, #40]	; (8002248 <__libc_init_array+0x40>)
 8002220:	4c0a      	ldr	r4, [pc, #40]	; (800224c <__libc_init_array+0x44>)
 8002222:	1b64      	subs	r4, r4, r5
 8002224:	10a4      	asrs	r4, r4, #2
 8002226:	42a6      	cmp	r6, r4
 8002228:	d105      	bne.n	8002236 <__libc_init_array+0x2e>
 800222a:	bd70      	pop	{r4, r5, r6, pc}
 800222c:	f855 3b04 	ldr.w	r3, [r5], #4
 8002230:	4798      	blx	r3
 8002232:	3601      	adds	r6, #1
 8002234:	e7ee      	b.n	8002214 <__libc_init_array+0xc>
 8002236:	f855 3b04 	ldr.w	r3, [r5], #4
 800223a:	4798      	blx	r3
 800223c:	3601      	adds	r6, #1
 800223e:	e7f2      	b.n	8002226 <__libc_init_array+0x1e>
 8002240:	08002bf0 	.word	0x08002bf0
 8002244:	08002bf0 	.word	0x08002bf0
 8002248:	08002bf0 	.word	0x08002bf0
 800224c:	08002bf4 	.word	0x08002bf4

08002250 <malloc>:
 8002250:	4b02      	ldr	r3, [pc, #8]	; (800225c <malloc+0xc>)
 8002252:	4601      	mov	r1, r0
 8002254:	6818      	ldr	r0, [r3, #0]
 8002256:	f000 b85f 	b.w	8002318 <_malloc_r>
 800225a:	bf00      	nop
 800225c:	2000000c 	.word	0x2000000c

08002260 <free>:
 8002260:	4b02      	ldr	r3, [pc, #8]	; (800226c <free+0xc>)
 8002262:	4601      	mov	r1, r0
 8002264:	6818      	ldr	r0, [r3, #0]
 8002266:	f000 b80b 	b.w	8002280 <_free_r>
 800226a:	bf00      	nop
 800226c:	2000000c 	.word	0x2000000c

08002270 <memset>:
 8002270:	4603      	mov	r3, r0
 8002272:	4402      	add	r2, r0
 8002274:	4293      	cmp	r3, r2
 8002276:	d100      	bne.n	800227a <memset+0xa>
 8002278:	4770      	bx	lr
 800227a:	f803 1b01 	strb.w	r1, [r3], #1
 800227e:	e7f9      	b.n	8002274 <memset+0x4>

08002280 <_free_r>:
 8002280:	b538      	push	{r3, r4, r5, lr}
 8002282:	4605      	mov	r5, r0
 8002284:	2900      	cmp	r1, #0
 8002286:	d043      	beq.n	8002310 <_free_r+0x90>
 8002288:	f851 3c04 	ldr.w	r3, [r1, #-4]
 800228c:	1f0c      	subs	r4, r1, #4
 800228e:	2b00      	cmp	r3, #0
 8002290:	bfb8      	it	lt
 8002292:	18e4      	addlt	r4, r4, r3
 8002294:	f000 f8e4 	bl	8002460 <__malloc_lock>
 8002298:	4a1e      	ldr	r2, [pc, #120]	; (8002314 <_free_r+0x94>)
 800229a:	6813      	ldr	r3, [r2, #0]
 800229c:	4610      	mov	r0, r2
 800229e:	b933      	cbnz	r3, 80022ae <_free_r+0x2e>
 80022a0:	6063      	str	r3, [r4, #4]
 80022a2:	6014      	str	r4, [r2, #0]
 80022a4:	4628      	mov	r0, r5
 80022a6:	e8bd 4038 	ldmia.w	sp!, {r3, r4, r5, lr}
 80022aa:	f000 b8df 	b.w	800246c <__malloc_unlock>
 80022ae:	42a3      	cmp	r3, r4
 80022b0:	d90a      	bls.n	80022c8 <_free_r+0x48>
 80022b2:	6821      	ldr	r1, [r4, #0]
 80022b4:	1862      	adds	r2, r4, r1
 80022b6:	4293      	cmp	r3, r2
 80022b8:	bf01      	itttt	eq
 80022ba:	681a      	ldreq	r2, [r3, #0]
 80022bc:	685b      	ldreq	r3, [r3, #4]
 80022be:	1852      	addeq	r2, r2, r1
 80022c0:	6022      	streq	r2, [r4, #0]
 80022c2:	6063      	str	r3, [r4, #4]
 80022c4:	6004      	str	r4, [r0, #0]
 80022c6:	e7ed      	b.n	80022a4 <_free_r+0x24>
 80022c8:	461a      	mov	r2, r3
 80022ca:	685b      	ldr	r3, [r3, #4]
 80022cc:	b10b      	cbz	r3, 80022d2 <_free_r+0x52>
 80022ce:	42a3      	cmp	r3, r4
 80022d0:	d9fa      	bls.n	80022c8 <_free_r+0x48>
 80022d2:	6811      	ldr	r1, [r2, #0]
 80022d4:	1850      	adds	r0, r2, r1
 80022d6:	42a0      	cmp	r0, r4
 80022d8:	d10b      	bne.n	80022f2 <_free_r+0x72>
 80022da:	6820      	ldr	r0, [r4, #0]
 80022dc:	4401      	add	r1, r0
 80022de:	1850      	adds	r0, r2, r1
 80022e0:	4283      	cmp	r3, r0
 80022e2:	6011      	str	r1, [r2, #0]
 80022e4:	d1de      	bne.n	80022a4 <_free_r+0x24>
 80022e6:	6818      	ldr	r0, [r3, #0]
 80022e8:	685b      	ldr	r3, [r3, #4]
 80022ea:	4401      	add	r1, r0
 80022ec:	6011      	str	r1, [r2, #0]
 80022ee:	6053      	str	r3, [r2, #4]
 80022f0:	e7d8      	b.n	80022a4 <_free_r+0x24>
 80022f2:	d902      	bls.n	80022fa <_free_r+0x7a>
 80022f4:	230c      	movs	r3, #12
 80022f6:	602b      	str	r3, [r5, #0]
 80022f8:	e7d4      	b.n	80022a4 <_free_r+0x24>
 80022fa:	6820      	ldr	r0, [r4, #0]
 80022fc:	1821      	adds	r1, r4, r0
 80022fe:	428b      	cmp	r3, r1
 8002300:	bf01      	itttt	eq
 8002302:	6819      	ldreq	r1, [r3, #0]
 8002304:	685b      	ldreq	r3, [r3, #4]
 8002306:	1809      	addeq	r1, r1, r0
 8002308:	6021      	streq	r1, [r4, #0]
 800230a:	6063      	str	r3, [r4, #4]
 800230c:	6054      	str	r4, [r2, #4]
 800230e:	e7c9      	b.n	80022a4 <_free_r+0x24>
 8002310:	bd38      	pop	{r3, r4, r5, pc}
 8002312:	bf00      	nop
 8002314:	20000150 	.word	0x20000150

08002318 <_malloc_r>:
 8002318:	b5f8      	push	{r3, r4, r5, r6, r7, lr}
 800231a:	1ccd      	adds	r5, r1, #3
 800231c:	f025 0503 	bic.w	r5, r5, #3
 8002320:	3508      	adds	r5, #8
 8002322:	2d0c      	cmp	r5, #12
 8002324:	bf38      	it	cc
 8002326:	250c      	movcc	r5, #12
 8002328:	2d00      	cmp	r5, #0
 800232a:	4606      	mov	r6, r0
 800232c:	db01      	blt.n	8002332 <_malloc_r+0x1a>
 800232e:	42a9      	cmp	r1, r5
 8002330:	d903      	bls.n	800233a <_malloc_r+0x22>
 8002332:	230c      	movs	r3, #12
 8002334:	6033      	str	r3, [r6, #0]
 8002336:	2000      	movs	r0, #0
 8002338:	bdf8      	pop	{r3, r4, r5, r6, r7, pc}
 800233a:	f000 f891 	bl	8002460 <__malloc_lock>
 800233e:	4921      	ldr	r1, [pc, #132]	; (80023c4 <_malloc_r+0xac>)
 8002340:	680a      	ldr	r2, [r1, #0]
 8002342:	4614      	mov	r4, r2
 8002344:	b99c      	cbnz	r4, 800236e <_malloc_r+0x56>
 8002346:	4f20      	ldr	r7, [pc, #128]	; (80023c8 <_malloc_r+0xb0>)
 8002348:	683b      	ldr	r3, [r7, #0]
 800234a:	b923      	cbnz	r3, 8002356 <_malloc_r+0x3e>
 800234c:	4621      	mov	r1, r4
 800234e:	4630      	mov	r0, r6
 8002350:	f000 f83c 	bl	80023cc <_sbrk_r>
 8002354:	6038      	str	r0, [r7, #0]
 8002356:	4629      	mov	r1, r5
 8002358:	4630      	mov	r0, r6
 800235a:	f000 f837 	bl	80023cc <_sbrk_r>
 800235e:	1c43      	adds	r3, r0, #1
 8002360:	d123      	bne.n	80023aa <_malloc_r+0x92>
 8002362:	230c      	movs	r3, #12
 8002364:	4630      	mov	r0, r6
 8002366:	6033      	str	r3, [r6, #0]
 8002368:	f000 f880 	bl	800246c <__malloc_unlock>
 800236c:	e7e3      	b.n	8002336 <_malloc_r+0x1e>
 800236e:	6823      	ldr	r3, [r4, #0]
 8002370:	1b5b      	subs	r3, r3, r5
 8002372:	d417      	bmi.n	80023a4 <_malloc_r+0x8c>
 8002374:	2b0b      	cmp	r3, #11
 8002376:	d903      	bls.n	8002380 <_malloc_r+0x68>
 8002378:	6023      	str	r3, [r4, #0]
 800237a:	441c      	add	r4, r3
 800237c:	6025      	str	r5, [r4, #0]
 800237e:	e004      	b.n	800238a <_malloc_r+0x72>
 8002380:	6863      	ldr	r3, [r4, #4]
 8002382:	42a2      	cmp	r2, r4
 8002384:	bf0c      	ite	eq
 8002386:	600b      	streq	r3, [r1, #0]
 8002388:	6053      	strne	r3, [r2, #4]
 800238a:	4630      	mov	r0, r6
 800238c:	f000 f86e 	bl	800246c <__malloc_unlock>
 8002390:	f104 000b 	add.w	r0, r4, #11
 8002394:	1d23      	adds	r3, r4, #4
 8002396:	f020 0007 	bic.w	r0, r0, #7
 800239a:	1ac2      	subs	r2, r0, r3
 800239c:	d0cc      	beq.n	8002338 <_malloc_r+0x20>
 800239e:	1a1b      	subs	r3, r3, r0
 80023a0:	50a3      	str	r3, [r4, r2]
 80023a2:	e7c9      	b.n	8002338 <_malloc_r+0x20>
 80023a4:	4622      	mov	r2, r4
 80023a6:	6864      	ldr	r4, [r4, #4]
 80023a8:	e7cc      	b.n	8002344 <_malloc_r+0x2c>
 80023aa:	1cc4      	adds	r4, r0, #3
 80023ac:	f024 0403 	bic.w	r4, r4, #3
 80023b0:	42a0      	cmp	r0, r4
 80023b2:	d0e3      	beq.n	800237c <_malloc_r+0x64>
 80023b4:	1a21      	subs	r1, r4, r0
 80023b6:	4630      	mov	r0, r6
 80023b8:	f000 f808 	bl	80023cc <_sbrk_r>
 80023bc:	3001      	adds	r0, #1
 80023be:	d1dd      	bne.n	800237c <_malloc_r+0x64>
 80023c0:	e7cf      	b.n	8002362 <_malloc_r+0x4a>
 80023c2:	bf00      	nop
 80023c4:	20000150 	.word	0x20000150
 80023c8:	20000154 	.word	0x20000154

080023cc <_sbrk_r>:
 80023cc:	b538      	push	{r3, r4, r5, lr}
 80023ce:	2300      	movs	r3, #0
 80023d0:	4d05      	ldr	r5, [pc, #20]	; (80023e8 <_sbrk_r+0x1c>)
 80023d2:	4604      	mov	r4, r0
 80023d4:	4608      	mov	r0, r1
 80023d6:	602b      	str	r3, [r5, #0]
 80023d8:	f000 fba6 	bl	8002b28 <_sbrk>
 80023dc:	1c43      	adds	r3, r0, #1
 80023de:	d102      	bne.n	80023e6 <_sbrk_r+0x1a>
 80023e0:	682b      	ldr	r3, [r5, #0]
 80023e2:	b103      	cbz	r3, 80023e6 <_sbrk_r+0x1a>
 80023e4:	6023      	str	r3, [r4, #0]
 80023e6:	bd38      	pop	{r3, r4, r5, pc}
 80023e8:	20000554 	.word	0x20000554

080023ec <siprintf>:
 80023ec:	b40e      	push	{r1, r2, r3}
 80023ee:	f06f 4100 	mvn.w	r1, #2147483648	; 0x80000000
 80023f2:	b500      	push	{lr}
 80023f4:	b09c      	sub	sp, #112	; 0x70
 80023f6:	ab1d      	add	r3, sp, #116	; 0x74
 80023f8:	9002      	str	r0, [sp, #8]
 80023fa:	9006      	str	r0, [sp, #24]
 80023fc:	9107      	str	r1, [sp, #28]
 80023fe:	9104      	str	r1, [sp, #16]
 8002400:	4808      	ldr	r0, [pc, #32]	; (8002424 <siprintf+0x38>)
 8002402:	4909      	ldr	r1, [pc, #36]	; (8002428 <siprintf+0x3c>)
 8002404:	f853 2b04 	ldr.w	r2, [r3], #4
 8002408:	9105      	str	r1, [sp, #20]
 800240a:	6800      	ldr	r0, [r0, #0]
 800240c:	a902      	add	r1, sp, #8
 800240e:	9301      	str	r3, [sp, #4]
 8002410:	f000 f88e 	bl	8002530 <_svfiprintf_r>
 8002414:	2200      	movs	r2, #0
 8002416:	9b02      	ldr	r3, [sp, #8]
 8002418:	701a      	strb	r2, [r3, #0]
 800241a:	b01c      	add	sp, #112	; 0x70
 800241c:	f85d eb04 	ldr.w	lr, [sp], #4
 8002420:	b003      	add	sp, #12
 8002422:	4770      	bx	lr
 8002424:	2000000c 	.word	0x2000000c
 8002428:	ffff0208 	.word	0xffff0208

0800242c <strcpy>:
 800242c:	4603      	mov	r3, r0
 800242e:	f811 2b01 	ldrb.w	r2, [r1], #1
 8002432:	f803 2b01 	strb.w	r2, [r3], #1
 8002436:	2a00      	cmp	r2, #0
 8002438:	d1f9      	bne.n	800242e <strcpy+0x2>
 800243a:	4770      	bx	lr

0800243c <strncmp>:
 800243c:	b510      	push	{r4, lr}
 800243e:	b16a      	cbz	r2, 800245c <strncmp+0x20>
 8002440:	3901      	subs	r1, #1
 8002442:	1884      	adds	r4, r0, r2
 8002444:	f810 3b01 	ldrb.w	r3, [r0], #1
 8002448:	f811 2f01 	ldrb.w	r2, [r1, #1]!
 800244c:	4293      	cmp	r3, r2
 800244e:	d103      	bne.n	8002458 <strncmp+0x1c>
 8002450:	42a0      	cmp	r0, r4
 8002452:	d001      	beq.n	8002458 <strncmp+0x1c>
 8002454:	2b00      	cmp	r3, #0
 8002456:	d1f5      	bne.n	8002444 <strncmp+0x8>
 8002458:	1a98      	subs	r0, r3, r2
 800245a:	bd10      	pop	{r4, pc}
 800245c:	4610      	mov	r0, r2
 800245e:	e7fc      	b.n	800245a <strncmp+0x1e>

08002460 <__malloc_lock>:
 8002460:	4801      	ldr	r0, [pc, #4]	; (8002468 <__malloc_lock+0x8>)
 8002462:	f000 bafb 	b.w	8002a5c <__retarget_lock_acquire_recursive>
 8002466:	bf00      	nop
 8002468:	2000055c 	.word	0x2000055c

0800246c <__malloc_unlock>:
 800246c:	4801      	ldr	r0, [pc, #4]	; (8002474 <__malloc_unlock+0x8>)
 800246e:	f000 baf6 	b.w	8002a5e <__retarget_lock_release_recursive>
 8002472:	bf00      	nop
 8002474:	2000055c 	.word	0x2000055c

08002478 <__ssputs_r>:
 8002478:	e92d 47f0 	stmdb	sp!, {r4, r5, r6, r7, r8, r9, sl, lr}
 800247c:	688e      	ldr	r6, [r1, #8]
 800247e:	4682      	mov	sl, r0
 8002480:	429e      	cmp	r6, r3
 8002482:	460c      	mov	r4, r1
 8002484:	4690      	mov	r8, r2
 8002486:	461f      	mov	r7, r3
 8002488:	d838      	bhi.n	80024fc <__ssputs_r+0x84>
 800248a:	898a      	ldrh	r2, [r1, #12]
 800248c:	f412 6f90 	tst.w	r2, #1152	; 0x480
 8002490:	d032      	beq.n	80024f8 <__ssputs_r+0x80>
 8002492:	6825      	ldr	r5, [r4, #0]
 8002494:	6909      	ldr	r1, [r1, #16]
 8002496:	3301      	adds	r3, #1
 8002498:	eba5 0901 	sub.w	r9, r5, r1
 800249c:	6965      	ldr	r5, [r4, #20]
 800249e:	444b      	add	r3, r9
 80024a0:	eb05 0545 	add.w	r5, r5, r5, lsl #1
 80024a4:	eb05 75d5 	add.w	r5, r5, r5, lsr #31
 80024a8:	106d      	asrs	r5, r5, #1
 80024aa:	429d      	cmp	r5, r3
 80024ac:	bf38      	it	cc
 80024ae:	461d      	movcc	r5, r3
 80024b0:	0553      	lsls	r3, r2, #21
 80024b2:	d531      	bpl.n	8002518 <__ssputs_r+0xa0>
 80024b4:	4629      	mov	r1, r5
 80024b6:	f7ff ff2f 	bl	8002318 <_malloc_r>
 80024ba:	4606      	mov	r6, r0
 80024bc:	b950      	cbnz	r0, 80024d4 <__ssputs_r+0x5c>
 80024be:	230c      	movs	r3, #12
 80024c0:	f04f 30ff 	mov.w	r0, #4294967295
 80024c4:	f8ca 3000 	str.w	r3, [sl]
 80024c8:	89a3      	ldrh	r3, [r4, #12]
 80024ca:	f043 0340 	orr.w	r3, r3, #64	; 0x40
 80024ce:	81a3      	strh	r3, [r4, #12]
 80024d0:	e8bd 87f0 	ldmia.w	sp!, {r4, r5, r6, r7, r8, r9, sl, pc}
 80024d4:	464a      	mov	r2, r9
 80024d6:	6921      	ldr	r1, [r4, #16]
 80024d8:	f000 fad0 	bl	8002a7c <memcpy>
 80024dc:	89a3      	ldrh	r3, [r4, #12]
 80024de:	f423 6390 	bic.w	r3, r3, #1152	; 0x480
 80024e2:	f043 0380 	orr.w	r3, r3, #128	; 0x80
 80024e6:	81a3      	strh	r3, [r4, #12]
 80024e8:	6126      	str	r6, [r4, #16]
 80024ea:	444e      	add	r6, r9
 80024ec:	6026      	str	r6, [r4, #0]
 80024ee:	463e      	mov	r6, r7
 80024f0:	6165      	str	r5, [r4, #20]
 80024f2:	eba5 0509 	sub.w	r5, r5, r9
 80024f6:	60a5      	str	r5, [r4, #8]
 80024f8:	42be      	cmp	r6, r7
 80024fa:	d900      	bls.n	80024fe <__ssputs_r+0x86>
 80024fc:	463e      	mov	r6, r7
 80024fe:	4632      	mov	r2, r6
 8002500:	4641      	mov	r1, r8
 8002502:	6820      	ldr	r0, [r4, #0]
 8002504:	f000 fac8 	bl	8002a98 <memmove>
 8002508:	68a3      	ldr	r3, [r4, #8]
 800250a:	6822      	ldr	r2, [r4, #0]
 800250c:	1b9b      	subs	r3, r3, r6
 800250e:	4432      	add	r2, r6
 8002510:	2000      	movs	r0, #0
 8002512:	60a3      	str	r3, [r4, #8]
 8002514:	6022      	str	r2, [r4, #0]
 8002516:	e7db      	b.n	80024d0 <__ssputs_r+0x58>
 8002518:	462a      	mov	r2, r5
 800251a:	f000 fad7 	bl	8002acc <_realloc_r>
 800251e:	4606      	mov	r6, r0
 8002520:	2800      	cmp	r0, #0
 8002522:	d1e1      	bne.n	80024e8 <__ssputs_r+0x70>
 8002524:	4650      	mov	r0, sl
 8002526:	6921      	ldr	r1, [r4, #16]
 8002528:	f7ff feaa 	bl	8002280 <_free_r>
 800252c:	e7c7      	b.n	80024be <__ssputs_r+0x46>
	...

08002530 <_svfiprintf_r>:
 8002530:	e92d 4ff0 	stmdb	sp!, {r4, r5, r6, r7, r8, r9, sl, fp, lr}
 8002534:	4698      	mov	r8, r3
 8002536:	898b      	ldrh	r3, [r1, #12]
 8002538:	4607      	mov	r7, r0
 800253a:	061b      	lsls	r3, r3, #24
 800253c:	460d      	mov	r5, r1
 800253e:	4614      	mov	r4, r2
 8002540:	b09d      	sub	sp, #116	; 0x74
 8002542:	d50e      	bpl.n	8002562 <_svfiprintf_r+0x32>
 8002544:	690b      	ldr	r3, [r1, #16]
 8002546:	b963      	cbnz	r3, 8002562 <_svfiprintf_r+0x32>
 8002548:	2140      	movs	r1, #64	; 0x40
 800254a:	f7ff fee5 	bl	8002318 <_malloc_r>
 800254e:	6028      	str	r0, [r5, #0]
 8002550:	6128      	str	r0, [r5, #16]
 8002552:	b920      	cbnz	r0, 800255e <_svfiprintf_r+0x2e>
 8002554:	230c      	movs	r3, #12
 8002556:	603b      	str	r3, [r7, #0]
 8002558:	f04f 30ff 	mov.w	r0, #4294967295
 800255c:	e0d1      	b.n	8002702 <_svfiprintf_r+0x1d2>
 800255e:	2340      	movs	r3, #64	; 0x40
 8002560:	616b      	str	r3, [r5, #20]
 8002562:	2300      	movs	r3, #0
 8002564:	9309      	str	r3, [sp, #36]	; 0x24
 8002566:	2320      	movs	r3, #32
 8002568:	f88d 3029 	strb.w	r3, [sp, #41]	; 0x29
 800256c:	2330      	movs	r3, #48	; 0x30
 800256e:	f04f 0901 	mov.w	r9, #1
 8002572:	f8cd 800c 	str.w	r8, [sp, #12]
 8002576:	f8df 81a4 	ldr.w	r8, [pc, #420]	; 800271c <_svfiprintf_r+0x1ec>
 800257a:	f88d 302a 	strb.w	r3, [sp, #42]	; 0x2a
 800257e:	4623      	mov	r3, r4
 8002580:	469a      	mov	sl, r3
 8002582:	f813 2b01 	ldrb.w	r2, [r3], #1
 8002586:	b10a      	cbz	r2, 800258c <_svfiprintf_r+0x5c>
 8002588:	2a25      	cmp	r2, #37	; 0x25
 800258a:	d1f9      	bne.n	8002580 <_svfiprintf_r+0x50>
 800258c:	ebba 0b04 	subs.w	fp, sl, r4
 8002590:	d00b      	beq.n	80025aa <_svfiprintf_r+0x7a>
 8002592:	465b      	mov	r3, fp
 8002594:	4622      	mov	r2, r4
 8002596:	4629      	mov	r1, r5
 8002598:	4638      	mov	r0, r7
 800259a:	f7ff ff6d 	bl	8002478 <__ssputs_r>
 800259e:	3001      	adds	r0, #1
 80025a0:	f000 80aa 	beq.w	80026f8 <_svfiprintf_r+0x1c8>
 80025a4:	9a09      	ldr	r2, [sp, #36]	; 0x24
 80025a6:	445a      	add	r2, fp
 80025a8:	9209      	str	r2, [sp, #36]	; 0x24
 80025aa:	f89a 3000 	ldrb.w	r3, [sl]
 80025ae:	2b00      	cmp	r3, #0
 80025b0:	f000 80a2 	beq.w	80026f8 <_svfiprintf_r+0x1c8>
 80025b4:	2300      	movs	r3, #0
 80025b6:	f04f 32ff 	mov.w	r2, #4294967295
 80025ba:	e9cd 2305 	strd	r2, r3, [sp, #20]
 80025be:	f10a 0a01 	add.w	sl, sl, #1
 80025c2:	9304      	str	r3, [sp, #16]
 80025c4:	9307      	str	r3, [sp, #28]
 80025c6:	f88d 3053 	strb.w	r3, [sp, #83]	; 0x53
 80025ca:	931a      	str	r3, [sp, #104]	; 0x68
 80025cc:	4654      	mov	r4, sl
 80025ce:	2205      	movs	r2, #5
 80025d0:	f814 1b01 	ldrb.w	r1, [r4], #1
 80025d4:	4851      	ldr	r0, [pc, #324]	; (800271c <_svfiprintf_r+0x1ec>)
 80025d6:	f000 fa43 	bl	8002a60 <memchr>
 80025da:	9a04      	ldr	r2, [sp, #16]
 80025dc:	b9d8      	cbnz	r0, 8002616 <_svfiprintf_r+0xe6>
 80025de:	06d0      	lsls	r0, r2, #27
 80025e0:	bf44      	itt	mi
 80025e2:	2320      	movmi	r3, #32
 80025e4:	f88d 3053 	strbmi.w	r3, [sp, #83]	; 0x53
 80025e8:	0711      	lsls	r1, r2, #28
 80025ea:	bf44      	itt	mi
 80025ec:	232b      	movmi	r3, #43	; 0x2b
 80025ee:	f88d 3053 	strbmi.w	r3, [sp, #83]	; 0x53
 80025f2:	f89a 3000 	ldrb.w	r3, [sl]
 80025f6:	2b2a      	cmp	r3, #42	; 0x2a
 80025f8:	d015      	beq.n	8002626 <_svfiprintf_r+0xf6>
 80025fa:	4654      	mov	r4, sl
 80025fc:	2000      	movs	r0, #0
 80025fe:	f04f 0c0a 	mov.w	ip, #10
 8002602:	9a07      	ldr	r2, [sp, #28]
 8002604:	4621      	mov	r1, r4
 8002606:	f811 3b01 	ldrb.w	r3, [r1], #1
 800260a:	3b30      	subs	r3, #48	; 0x30
 800260c:	2b09      	cmp	r3, #9
 800260e:	d94e      	bls.n	80026ae <_svfiprintf_r+0x17e>
 8002610:	b1b0      	cbz	r0, 8002640 <_svfiprintf_r+0x110>
 8002612:	9207      	str	r2, [sp, #28]
 8002614:	e014      	b.n	8002640 <_svfiprintf_r+0x110>
 8002616:	eba0 0308 	sub.w	r3, r0, r8
 800261a:	fa09 f303 	lsl.w	r3, r9, r3
 800261e:	4313      	orrs	r3, r2
 8002620:	46a2      	mov	sl, r4
 8002622:	9304      	str	r3, [sp, #16]
 8002624:	e7d2      	b.n	80025cc <_svfiprintf_r+0x9c>
 8002626:	9b03      	ldr	r3, [sp, #12]
 8002628:	1d19      	adds	r1, r3, #4
 800262a:	681b      	ldr	r3, [r3, #0]
 800262c:	9103      	str	r1, [sp, #12]
 800262e:	2b00      	cmp	r3, #0
 8002630:	bfbb      	ittet	lt
 8002632:	425b      	neglt	r3, r3
 8002634:	f042 0202 	orrlt.w	r2, r2, #2
 8002638:	9307      	strge	r3, [sp, #28]
 800263a:	9307      	strlt	r3, [sp, #28]
 800263c:	bfb8      	it	lt
 800263e:	9204      	strlt	r2, [sp, #16]
 8002640:	7823      	ldrb	r3, [r4, #0]
 8002642:	2b2e      	cmp	r3, #46	; 0x2e
 8002644:	d10c      	bne.n	8002660 <_svfiprintf_r+0x130>
 8002646:	7863      	ldrb	r3, [r4, #1]
 8002648:	2b2a      	cmp	r3, #42	; 0x2a
 800264a:	d135      	bne.n	80026b8 <_svfiprintf_r+0x188>
 800264c:	9b03      	ldr	r3, [sp, #12]
 800264e:	3402      	adds	r4, #2
 8002650:	1d1a      	adds	r2, r3, #4
 8002652:	681b      	ldr	r3, [r3, #0]
 8002654:	9203      	str	r2, [sp, #12]
 8002656:	2b00      	cmp	r3, #0
 8002658:	bfb8      	it	lt
 800265a:	f04f 33ff 	movlt.w	r3, #4294967295
 800265e:	9305      	str	r3, [sp, #20]
 8002660:	f8df a0c8 	ldr.w	sl, [pc, #200]	; 800272c <_svfiprintf_r+0x1fc>
 8002664:	2203      	movs	r2, #3
 8002666:	4650      	mov	r0, sl
 8002668:	7821      	ldrb	r1, [r4, #0]
 800266a:	f000 f9f9 	bl	8002a60 <memchr>
 800266e:	b140      	cbz	r0, 8002682 <_svfiprintf_r+0x152>
 8002670:	2340      	movs	r3, #64	; 0x40
 8002672:	eba0 000a 	sub.w	r0, r0, sl
 8002676:	fa03 f000 	lsl.w	r0, r3, r0
 800267a:	9b04      	ldr	r3, [sp, #16]
 800267c:	3401      	adds	r4, #1
 800267e:	4303      	orrs	r3, r0
 8002680:	9304      	str	r3, [sp, #16]
 8002682:	f814 1b01 	ldrb.w	r1, [r4], #1
 8002686:	2206      	movs	r2, #6
 8002688:	4825      	ldr	r0, [pc, #148]	; (8002720 <_svfiprintf_r+0x1f0>)
 800268a:	f88d 1028 	strb.w	r1, [sp, #40]	; 0x28
 800268e:	f000 f9e7 	bl	8002a60 <memchr>
 8002692:	2800      	cmp	r0, #0
 8002694:	d038      	beq.n	8002708 <_svfiprintf_r+0x1d8>
 8002696:	4b23      	ldr	r3, [pc, #140]	; (8002724 <_svfiprintf_r+0x1f4>)
 8002698:	bb1b      	cbnz	r3, 80026e2 <_svfiprintf_r+0x1b2>
 800269a:	9b03      	ldr	r3, [sp, #12]
 800269c:	3307      	adds	r3, #7
 800269e:	f023 0307 	bic.w	r3, r3, #7
 80026a2:	3308      	adds	r3, #8
 80026a4:	9303      	str	r3, [sp, #12]
 80026a6:	9b09      	ldr	r3, [sp, #36]	; 0x24
 80026a8:	4433      	add	r3, r6
 80026aa:	9309      	str	r3, [sp, #36]	; 0x24
 80026ac:	e767      	b.n	800257e <_svfiprintf_r+0x4e>
 80026ae:	460c      	mov	r4, r1
 80026b0:	2001      	movs	r0, #1
 80026b2:	fb0c 3202 	mla	r2, ip, r2, r3
 80026b6:	e7a5      	b.n	8002604 <_svfiprintf_r+0xd4>
 80026b8:	2300      	movs	r3, #0
 80026ba:	f04f 0c0a 	mov.w	ip, #10
 80026be:	4619      	mov	r1, r3
 80026c0:	3401      	adds	r4, #1
 80026c2:	9305      	str	r3, [sp, #20]
 80026c4:	4620      	mov	r0, r4
 80026c6:	f810 2b01 	ldrb.w	r2, [r0], #1
 80026ca:	3a30      	subs	r2, #48	; 0x30
 80026cc:	2a09      	cmp	r2, #9
 80026ce:	d903      	bls.n	80026d8 <_svfiprintf_r+0x1a8>
 80026d0:	2b00      	cmp	r3, #0
 80026d2:	d0c5      	beq.n	8002660 <_svfiprintf_r+0x130>
 80026d4:	9105      	str	r1, [sp, #20]
 80026d6:	e7c3      	b.n	8002660 <_svfiprintf_r+0x130>
 80026d8:	4604      	mov	r4, r0
 80026da:	2301      	movs	r3, #1
 80026dc:	fb0c 2101 	mla	r1, ip, r1, r2
 80026e0:	e7f0      	b.n	80026c4 <_svfiprintf_r+0x194>
 80026e2:	ab03      	add	r3, sp, #12
 80026e4:	9300      	str	r3, [sp, #0]
 80026e6:	462a      	mov	r2, r5
 80026e8:	4638      	mov	r0, r7
 80026ea:	4b0f      	ldr	r3, [pc, #60]	; (8002728 <_svfiprintf_r+0x1f8>)
 80026ec:	a904      	add	r1, sp, #16
 80026ee:	f3af 8000 	nop.w
 80026f2:	1c42      	adds	r2, r0, #1
 80026f4:	4606      	mov	r6, r0
 80026f6:	d1d6      	bne.n	80026a6 <_svfiprintf_r+0x176>
 80026f8:	89ab      	ldrh	r3, [r5, #12]
 80026fa:	065b      	lsls	r3, r3, #25
 80026fc:	f53f af2c 	bmi.w	8002558 <_svfiprintf_r+0x28>
 8002700:	9809      	ldr	r0, [sp, #36]	; 0x24
 8002702:	b01d      	add	sp, #116	; 0x74
 8002704:	e8bd 8ff0 	ldmia.w	sp!, {r4, r5, r6, r7, r8, r9, sl, fp, pc}
 8002708:	ab03      	add	r3, sp, #12
 800270a:	9300      	str	r3, [sp, #0]
 800270c:	462a      	mov	r2, r5
 800270e:	4638      	mov	r0, r7
 8002710:	4b05      	ldr	r3, [pc, #20]	; (8002728 <_svfiprintf_r+0x1f8>)
 8002712:	a904      	add	r1, sp, #16
 8002714:	f000 f87c 	bl	8002810 <_printf_i>
 8002718:	e7eb      	b.n	80026f2 <_svfiprintf_r+0x1c2>
 800271a:	bf00      	nop
 800271c:	08002bbd 	.word	0x08002bbd
 8002720:	08002bc7 	.word	0x08002bc7
 8002724:	00000000 	.word	0x00000000
 8002728:	08002479 	.word	0x08002479
 800272c:	08002bc3 	.word	0x08002bc3

08002730 <_printf_common>:
 8002730:	e92d 47f0 	stmdb	sp!, {r4, r5, r6, r7, r8, r9, sl, lr}
 8002734:	4616      	mov	r6, r2
 8002736:	4699      	mov	r9, r3
 8002738:	688a      	ldr	r2, [r1, #8]
 800273a:	690b      	ldr	r3, [r1, #16]
 800273c:	4607      	mov	r7, r0
 800273e:	4293      	cmp	r3, r2
 8002740:	bfb8      	it	lt
 8002742:	4613      	movlt	r3, r2
 8002744:	6033      	str	r3, [r6, #0]
 8002746:	f891 2043 	ldrb.w	r2, [r1, #67]	; 0x43
 800274a:	460c      	mov	r4, r1
 800274c:	f8dd 8020 	ldr.w	r8, [sp, #32]
 8002750:	b10a      	cbz	r2, 8002756 <_printf_common+0x26>
 8002752:	3301      	adds	r3, #1
 8002754:	6033      	str	r3, [r6, #0]
 8002756:	6823      	ldr	r3, [r4, #0]
 8002758:	0699      	lsls	r1, r3, #26
 800275a:	bf42      	ittt	mi
 800275c:	6833      	ldrmi	r3, [r6, #0]
 800275e:	3302      	addmi	r3, #2
 8002760:	6033      	strmi	r3, [r6, #0]
 8002762:	6825      	ldr	r5, [r4, #0]
 8002764:	f015 0506 	ands.w	r5, r5, #6
 8002768:	d106      	bne.n	8002778 <_printf_common+0x48>
 800276a:	f104 0a19 	add.w	sl, r4, #25
 800276e:	68e3      	ldr	r3, [r4, #12]
 8002770:	6832      	ldr	r2, [r6, #0]
 8002772:	1a9b      	subs	r3, r3, r2
 8002774:	42ab      	cmp	r3, r5
 8002776:	dc28      	bgt.n	80027ca <_printf_common+0x9a>
 8002778:	f894 2043 	ldrb.w	r2, [r4, #67]	; 0x43
 800277c:	1e13      	subs	r3, r2, #0
 800277e:	6822      	ldr	r2, [r4, #0]
 8002780:	bf18      	it	ne
 8002782:	2301      	movne	r3, #1
 8002784:	0692      	lsls	r2, r2, #26
 8002786:	d42d      	bmi.n	80027e4 <_printf_common+0xb4>
 8002788:	4649      	mov	r1, r9
 800278a:	4638      	mov	r0, r7
 800278c:	f104 0243 	add.w	r2, r4, #67	; 0x43
 8002790:	47c0      	blx	r8
 8002792:	3001      	adds	r0, #1
 8002794:	d020      	beq.n	80027d8 <_printf_common+0xa8>
 8002796:	6823      	ldr	r3, [r4, #0]
 8002798:	68e5      	ldr	r5, [r4, #12]
 800279a:	f003 0306 	and.w	r3, r3, #6
 800279e:	2b04      	cmp	r3, #4
 80027a0:	bf18      	it	ne
 80027a2:	2500      	movne	r5, #0
 80027a4:	6832      	ldr	r2, [r6, #0]
 80027a6:	f04f 0600 	mov.w	r6, #0
 80027aa:	68a3      	ldr	r3, [r4, #8]
 80027ac:	bf08      	it	eq
 80027ae:	1aad      	subeq	r5, r5, r2
 80027b0:	6922      	ldr	r2, [r4, #16]
 80027b2:	bf08      	it	eq
 80027b4:	ea25 75e5 	biceq.w	r5, r5, r5, asr #31
 80027b8:	4293      	cmp	r3, r2
 80027ba:	bfc4      	itt	gt
 80027bc:	1a9b      	subgt	r3, r3, r2
 80027be:	18ed      	addgt	r5, r5, r3
 80027c0:	341a      	adds	r4, #26
 80027c2:	42b5      	cmp	r5, r6
 80027c4:	d11a      	bne.n	80027fc <_printf_common+0xcc>
 80027c6:	2000      	movs	r0, #0
 80027c8:	e008      	b.n	80027dc <_printf_common+0xac>
 80027ca:	2301      	movs	r3, #1
 80027cc:	4652      	mov	r2, sl
 80027ce:	4649      	mov	r1, r9
 80027d0:	4638      	mov	r0, r7
 80027d2:	47c0      	blx	r8
 80027d4:	3001      	adds	r0, #1
 80027d6:	d103      	bne.n	80027e0 <_printf_common+0xb0>
 80027d8:	f04f 30ff 	mov.w	r0, #4294967295
 80027dc:	e8bd 87f0 	ldmia.w	sp!, {r4, r5, r6, r7, r8, r9, sl, pc}
 80027e0:	3501      	adds	r5, #1
 80027e2:	e7c4      	b.n	800276e <_printf_common+0x3e>
 80027e4:	2030      	movs	r0, #48	; 0x30
 80027e6:	18e1      	adds	r1, r4, r3
 80027e8:	f881 0043 	strb.w	r0, [r1, #67]	; 0x43
 80027ec:	1c5a      	adds	r2, r3, #1
 80027ee:	f894 1045 	ldrb.w	r1, [r4, #69]	; 0x45
 80027f2:	4422      	add	r2, r4
 80027f4:	3302      	adds	r3, #2
 80027f6:	f882 1043 	strb.w	r1, [r2, #67]	; 0x43
 80027fa:	e7c5      	b.n	8002788 <_printf_common+0x58>
 80027fc:	2301      	movs	r3, #1
 80027fe:	4622      	mov	r2, r4
 8002800:	4649      	mov	r1, r9
 8002802:	4638      	mov	r0, r7
 8002804:	47c0      	blx	r8
 8002806:	3001      	adds	r0, #1
 8002808:	d0e6      	beq.n	80027d8 <_printf_common+0xa8>
 800280a:	3601      	adds	r6, #1
 800280c:	e7d9      	b.n	80027c2 <_printf_common+0x92>
	...

08002810 <_printf_i>:
 8002810:	e92d 47ff 	stmdb	sp!, {r0, r1, r2, r3, r4, r5, r6, r7, r8, r9, sl, lr}
 8002814:	460c      	mov	r4, r1
 8002816:	7e27      	ldrb	r7, [r4, #24]
 8002818:	4691      	mov	r9, r2
 800281a:	2f78      	cmp	r7, #120	; 0x78
 800281c:	4680      	mov	r8, r0
 800281e:	469a      	mov	sl, r3
 8002820:	990c      	ldr	r1, [sp, #48]	; 0x30
 8002822:	f104 0243 	add.w	r2, r4, #67	; 0x43
 8002826:	d807      	bhi.n	8002838 <_printf_i+0x28>
 8002828:	2f62      	cmp	r7, #98	; 0x62
 800282a:	d80a      	bhi.n	8002842 <_printf_i+0x32>
 800282c:	2f00      	cmp	r7, #0
 800282e:	f000 80d9 	beq.w	80029e4 <_printf_i+0x1d4>
 8002832:	2f58      	cmp	r7, #88	; 0x58
 8002834:	f000 80a4 	beq.w	8002980 <_printf_i+0x170>
 8002838:	f104 0642 	add.w	r6, r4, #66	; 0x42
 800283c:	f884 7042 	strb.w	r7, [r4, #66]	; 0x42
 8002840:	e03a      	b.n	80028b8 <_printf_i+0xa8>
 8002842:	f1a7 0363 	sub.w	r3, r7, #99	; 0x63
 8002846:	2b15      	cmp	r3, #21
 8002848:	d8f6      	bhi.n	8002838 <_printf_i+0x28>
 800284a:	a001      	add	r0, pc, #4	; (adr r0, 8002850 <_printf_i+0x40>)
 800284c:	f850 f023 	ldr.w	pc, [r0, r3, lsl #2]
 8002850:	080028a9 	.word	0x080028a9
 8002854:	080028bd 	.word	0x080028bd
 8002858:	08002839 	.word	0x08002839
 800285c:	08002839 	.word	0x08002839
 8002860:	08002839 	.word	0x08002839
 8002864:	08002839 	.word	0x08002839
 8002868:	080028bd 	.word	0x080028bd
 800286c:	08002839 	.word	0x08002839
 8002870:	08002839 	.word	0x08002839
 8002874:	08002839 	.word	0x08002839
 8002878:	08002839 	.word	0x08002839
 800287c:	080029cb 	.word	0x080029cb
 8002880:	080028ed 	.word	0x080028ed
 8002884:	080029ad 	.word	0x080029ad
 8002888:	08002839 	.word	0x08002839
 800288c:	08002839 	.word	0x08002839
 8002890:	080029ed 	.word	0x080029ed
 8002894:	08002839 	.word	0x08002839
 8002898:	080028ed 	.word	0x080028ed
 800289c:	08002839 	.word	0x08002839
 80028a0:	08002839 	.word	0x08002839
 80028a4:	080029b5 	.word	0x080029b5
 80028a8:	680b      	ldr	r3, [r1, #0]
 80028aa:	f104 0642 	add.w	r6, r4, #66	; 0x42
 80028ae:	1d1a      	adds	r2, r3, #4
 80028b0:	681b      	ldr	r3, [r3, #0]
 80028b2:	600a      	str	r2, [r1, #0]
 80028b4:	f884 3042 	strb.w	r3, [r4, #66]	; 0x42
 80028b8:	2301      	movs	r3, #1
 80028ba:	e0a4      	b.n	8002a06 <_printf_i+0x1f6>
 80028bc:	6825      	ldr	r5, [r4, #0]
 80028be:	6808      	ldr	r0, [r1, #0]
 80028c0:	062e      	lsls	r6, r5, #24
 80028c2:	f100 0304 	add.w	r3, r0, #4
 80028c6:	d50a      	bpl.n	80028de <_printf_i+0xce>
 80028c8:	6805      	ldr	r5, [r0, #0]
 80028ca:	600b      	str	r3, [r1, #0]
 80028cc:	2d00      	cmp	r5, #0
 80028ce:	da03      	bge.n	80028d8 <_printf_i+0xc8>
 80028d0:	232d      	movs	r3, #45	; 0x2d
 80028d2:	426d      	negs	r5, r5
 80028d4:	f884 3043 	strb.w	r3, [r4, #67]	; 0x43
 80028d8:	230a      	movs	r3, #10
 80028da:	485e      	ldr	r0, [pc, #376]	; (8002a54 <_printf_i+0x244>)
 80028dc:	e019      	b.n	8002912 <_printf_i+0x102>
 80028de:	f015 0f40 	tst.w	r5, #64	; 0x40
 80028e2:	6805      	ldr	r5, [r0, #0]
 80028e4:	600b      	str	r3, [r1, #0]
 80028e6:	bf18      	it	ne
 80028e8:	b22d      	sxthne	r5, r5
 80028ea:	e7ef      	b.n	80028cc <_printf_i+0xbc>
 80028ec:	680b      	ldr	r3, [r1, #0]
 80028ee:	6825      	ldr	r5, [r4, #0]
 80028f0:	1d18      	adds	r0, r3, #4
 80028f2:	6008      	str	r0, [r1, #0]
 80028f4:	0628      	lsls	r0, r5, #24
 80028f6:	d501      	bpl.n	80028fc <_printf_i+0xec>
 80028f8:	681d      	ldr	r5, [r3, #0]
 80028fa:	e002      	b.n	8002902 <_printf_i+0xf2>
 80028fc:	0669      	lsls	r1, r5, #25
 80028fe:	d5fb      	bpl.n	80028f8 <_printf_i+0xe8>
 8002900:	881d      	ldrh	r5, [r3, #0]
 8002902:	2f6f      	cmp	r7, #111	; 0x6f
 8002904:	bf0c      	ite	eq
 8002906:	2308      	moveq	r3, #8
 8002908:	230a      	movne	r3, #10
 800290a:	4852      	ldr	r0, [pc, #328]	; (8002a54 <_printf_i+0x244>)
 800290c:	2100      	movs	r1, #0
 800290e:	f884 1043 	strb.w	r1, [r4, #67]	; 0x43
 8002912:	6866      	ldr	r6, [r4, #4]
 8002914:	2e00      	cmp	r6, #0
 8002916:	bfa8      	it	ge
 8002918:	6821      	ldrge	r1, [r4, #0]
 800291a:	60a6      	str	r6, [r4, #8]
 800291c:	bfa4      	itt	ge
 800291e:	f021 0104 	bicge.w	r1, r1, #4
 8002922:	6021      	strge	r1, [r4, #0]
 8002924:	b90d      	cbnz	r5, 800292a <_printf_i+0x11a>
 8002926:	2e00      	cmp	r6, #0
 8002928:	d04d      	beq.n	80029c6 <_printf_i+0x1b6>
 800292a:	4616      	mov	r6, r2
 800292c:	fbb5 f1f3 	udiv	r1, r5, r3
 8002930:	fb03 5711 	mls	r7, r3, r1, r5
 8002934:	5dc7      	ldrb	r7, [r0, r7]
 8002936:	f806 7d01 	strb.w	r7, [r6, #-1]!
 800293a:	462f      	mov	r7, r5
 800293c:	42bb      	cmp	r3, r7
 800293e:	460d      	mov	r5, r1
 8002940:	d9f4      	bls.n	800292c <_printf_i+0x11c>
 8002942:	2b08      	cmp	r3, #8
 8002944:	d10b      	bne.n	800295e <_printf_i+0x14e>
 8002946:	6823      	ldr	r3, [r4, #0]
 8002948:	07df      	lsls	r7, r3, #31
 800294a:	d508      	bpl.n	800295e <_printf_i+0x14e>
 800294c:	6923      	ldr	r3, [r4, #16]
 800294e:	6861      	ldr	r1, [r4, #4]
 8002950:	4299      	cmp	r1, r3
 8002952:	bfde      	ittt	le
 8002954:	2330      	movle	r3, #48	; 0x30
 8002956:	f806 3c01 	strble.w	r3, [r6, #-1]
 800295a:	f106 36ff 	addle.w	r6, r6, #4294967295
 800295e:	1b92      	subs	r2, r2, r6
 8002960:	6122      	str	r2, [r4, #16]
 8002962:	464b      	mov	r3, r9
 8002964:	4621      	mov	r1, r4
 8002966:	4640      	mov	r0, r8
 8002968:	f8cd a000 	str.w	sl, [sp]
 800296c:	aa03      	add	r2, sp, #12
 800296e:	f7ff fedf 	bl	8002730 <_printf_common>
 8002972:	3001      	adds	r0, #1
 8002974:	d14c      	bne.n	8002a10 <_printf_i+0x200>
 8002976:	f04f 30ff 	mov.w	r0, #4294967295
 800297a:	b004      	add	sp, #16
 800297c:	e8bd 87f0 	ldmia.w	sp!, {r4, r5, r6, r7, r8, r9, sl, pc}
 8002980:	4834      	ldr	r0, [pc, #208]	; (8002a54 <_printf_i+0x244>)
 8002982:	f884 7045 	strb.w	r7, [r4, #69]	; 0x45
 8002986:	680e      	ldr	r6, [r1, #0]
 8002988:	6823      	ldr	r3, [r4, #0]
 800298a:	f856 5b04 	ldr.w	r5, [r6], #4
 800298e:	061f      	lsls	r7, r3, #24
 8002990:	600e      	str	r6, [r1, #0]
 8002992:	d514      	bpl.n	80029be <_printf_i+0x1ae>
 8002994:	07d9      	lsls	r1, r3, #31
 8002996:	bf44      	itt	mi
 8002998:	f043 0320 	orrmi.w	r3, r3, #32
 800299c:	6023      	strmi	r3, [r4, #0]
 800299e:	b91d      	cbnz	r5, 80029a8 <_printf_i+0x198>
 80029a0:	6823      	ldr	r3, [r4, #0]
 80029a2:	f023 0320 	bic.w	r3, r3, #32
 80029a6:	6023      	str	r3, [r4, #0]
 80029a8:	2310      	movs	r3, #16
 80029aa:	e7af      	b.n	800290c <_printf_i+0xfc>
 80029ac:	6823      	ldr	r3, [r4, #0]
 80029ae:	f043 0320 	orr.w	r3, r3, #32
 80029b2:	6023      	str	r3, [r4, #0]
 80029b4:	2378      	movs	r3, #120	; 0x78
 80029b6:	4828      	ldr	r0, [pc, #160]	; (8002a58 <_printf_i+0x248>)
 80029b8:	f884 3045 	strb.w	r3, [r4, #69]	; 0x45
 80029bc:	e7e3      	b.n	8002986 <_printf_i+0x176>
 80029be:	065e      	lsls	r6, r3, #25
 80029c0:	bf48      	it	mi
 80029c2:	b2ad      	uxthmi	r5, r5
 80029c4:	e7e6      	b.n	8002994 <_printf_i+0x184>
 80029c6:	4616      	mov	r6, r2
 80029c8:	e7bb      	b.n	8002942 <_printf_i+0x132>
 80029ca:	680b      	ldr	r3, [r1, #0]
 80029cc:	6826      	ldr	r6, [r4, #0]
 80029ce:	1d1d      	adds	r5, r3, #4
 80029d0:	6960      	ldr	r0, [r4, #20]
 80029d2:	600d      	str	r5, [r1, #0]
 80029d4:	0635      	lsls	r5, r6, #24
 80029d6:	681b      	ldr	r3, [r3, #0]
 80029d8:	d501      	bpl.n	80029de <_printf_i+0x1ce>
 80029da:	6018      	str	r0, [r3, #0]
 80029dc:	e002      	b.n	80029e4 <_printf_i+0x1d4>
 80029de:	0671      	lsls	r1, r6, #25
 80029e0:	d5fb      	bpl.n	80029da <_printf_i+0x1ca>
 80029e2:	8018      	strh	r0, [r3, #0]
 80029e4:	2300      	movs	r3, #0
 80029e6:	4616      	mov	r6, r2
 80029e8:	6123      	str	r3, [r4, #16]
 80029ea:	e7ba      	b.n	8002962 <_printf_i+0x152>
 80029ec:	680b      	ldr	r3, [r1, #0]
 80029ee:	1d1a      	adds	r2, r3, #4
 80029f0:	600a      	str	r2, [r1, #0]
 80029f2:	681e      	ldr	r6, [r3, #0]
 80029f4:	2100      	movs	r1, #0
 80029f6:	4630      	mov	r0, r6
 80029f8:	6862      	ldr	r2, [r4, #4]
 80029fa:	f000 f831 	bl	8002a60 <memchr>
 80029fe:	b108      	cbz	r0, 8002a04 <_printf_i+0x1f4>
 8002a00:	1b80      	subs	r0, r0, r6
 8002a02:	6060      	str	r0, [r4, #4]
 8002a04:	6863      	ldr	r3, [r4, #4]
 8002a06:	6123      	str	r3, [r4, #16]
 8002a08:	2300      	movs	r3, #0
 8002a0a:	f884 3043 	strb.w	r3, [r4, #67]	; 0x43
 8002a0e:	e7a8      	b.n	8002962 <_printf_i+0x152>
 8002a10:	4632      	mov	r2, r6
 8002a12:	4649      	mov	r1, r9
 8002a14:	4640      	mov	r0, r8
 8002a16:	6923      	ldr	r3, [r4, #16]
 8002a18:	47d0      	blx	sl
 8002a1a:	3001      	adds	r0, #1
 8002a1c:	d0ab      	beq.n	8002976 <_printf_i+0x166>
 8002a1e:	6823      	ldr	r3, [r4, #0]
 8002a20:	079b      	lsls	r3, r3, #30
 8002a22:	d413      	bmi.n	8002a4c <_printf_i+0x23c>
 8002a24:	68e0      	ldr	r0, [r4, #12]
 8002a26:	9b03      	ldr	r3, [sp, #12]
 8002a28:	4298      	cmp	r0, r3
 8002a2a:	bfb8      	it	lt
 8002a2c:	4618      	movlt	r0, r3
 8002a2e:	e7a4      	b.n	800297a <_printf_i+0x16a>
 8002a30:	2301      	movs	r3, #1
 8002a32:	4632      	mov	r2, r6
 8002a34:	4649      	mov	r1, r9
 8002a36:	4640      	mov	r0, r8
 8002a38:	47d0      	blx	sl
 8002a3a:	3001      	adds	r0, #1
 8002a3c:	d09b      	beq.n	8002976 <_printf_i+0x166>
 8002a3e:	3501      	adds	r5, #1
 8002a40:	68e3      	ldr	r3, [r4, #12]
 8002a42:	9903      	ldr	r1, [sp, #12]
 8002a44:	1a5b      	subs	r3, r3, r1
 8002a46:	42ab      	cmp	r3, r5
 8002a48:	dcf2      	bgt.n	8002a30 <_printf_i+0x220>
 8002a4a:	e7eb      	b.n	8002a24 <_printf_i+0x214>
 8002a4c:	2500      	movs	r5, #0
 8002a4e:	f104 0619 	add.w	r6, r4, #25
 8002a52:	e7f5      	b.n	8002a40 <_printf_i+0x230>
 8002a54:	08002bce 	.word	0x08002bce
 8002a58:	08002bdf 	.word	0x08002bdf

08002a5c <__retarget_lock_acquire_recursive>:
 8002a5c:	4770      	bx	lr

08002a5e <__retarget_lock_release_recursive>:
 8002a5e:	4770      	bx	lr

08002a60 <memchr>:
 8002a60:	4603      	mov	r3, r0
 8002a62:	b510      	push	{r4, lr}
 8002a64:	b2c9      	uxtb	r1, r1
 8002a66:	4402      	add	r2, r0
 8002a68:	4293      	cmp	r3, r2
 8002a6a:	4618      	mov	r0, r3
 8002a6c:	d101      	bne.n	8002a72 <memchr+0x12>
 8002a6e:	2000      	movs	r0, #0
 8002a70:	e003      	b.n	8002a7a <memchr+0x1a>
 8002a72:	7804      	ldrb	r4, [r0, #0]
 8002a74:	3301      	adds	r3, #1
 8002a76:	428c      	cmp	r4, r1
 8002a78:	d1f6      	bne.n	8002a68 <memchr+0x8>
 8002a7a:	bd10      	pop	{r4, pc}

08002a7c <memcpy>:
 8002a7c:	440a      	add	r2, r1
 8002a7e:	4291      	cmp	r1, r2
 8002a80:	f100 33ff 	add.w	r3, r0, #4294967295
 8002a84:	d100      	bne.n	8002a88 <memcpy+0xc>
 8002a86:	4770      	bx	lr
 8002a88:	b510      	push	{r4, lr}
 8002a8a:	f811 4b01 	ldrb.w	r4, [r1], #1
 8002a8e:	4291      	cmp	r1, r2
 8002a90:	f803 4f01 	strb.w	r4, [r3, #1]!
 8002a94:	d1f9      	bne.n	8002a8a <memcpy+0xe>
 8002a96:	bd10      	pop	{r4, pc}

08002a98 <memmove>:
 8002a98:	4288      	cmp	r0, r1
 8002a9a:	b510      	push	{r4, lr}
 8002a9c:	eb01 0402 	add.w	r4, r1, r2
 8002aa0:	d902      	bls.n	8002aa8 <memmove+0x10>
 8002aa2:	4284      	cmp	r4, r0
 8002aa4:	4623      	mov	r3, r4
 8002aa6:	d807      	bhi.n	8002ab8 <memmove+0x20>
 8002aa8:	1e43      	subs	r3, r0, #1
 8002aaa:	42a1      	cmp	r1, r4
 8002aac:	d008      	beq.n	8002ac0 <memmove+0x28>
 8002aae:	f811 2b01 	ldrb.w	r2, [r1], #1
 8002ab2:	f803 2f01 	strb.w	r2, [r3, #1]!
 8002ab6:	e7f8      	b.n	8002aaa <memmove+0x12>
 8002ab8:	4601      	mov	r1, r0
 8002aba:	4402      	add	r2, r0
 8002abc:	428a      	cmp	r2, r1
 8002abe:	d100      	bne.n	8002ac2 <memmove+0x2a>
 8002ac0:	bd10      	pop	{r4, pc}
 8002ac2:	f813 4d01 	ldrb.w	r4, [r3, #-1]!
 8002ac6:	f802 4d01 	strb.w	r4, [r2, #-1]!
 8002aca:	e7f7      	b.n	8002abc <memmove+0x24>

08002acc <_realloc_r>:
 8002acc:	b5f8      	push	{r3, r4, r5, r6, r7, lr}
 8002ace:	4607      	mov	r7, r0
 8002ad0:	4614      	mov	r4, r2
 8002ad2:	460e      	mov	r6, r1
 8002ad4:	b921      	cbnz	r1, 8002ae0 <_realloc_r+0x14>
 8002ad6:	4611      	mov	r1, r2
 8002ad8:	e8bd 40f8 	ldmia.w	sp!, {r3, r4, r5, r6, r7, lr}
 8002adc:	f7ff bc1c 	b.w	8002318 <_malloc_r>
 8002ae0:	b922      	cbnz	r2, 8002aec <_realloc_r+0x20>
 8002ae2:	f7ff fbcd 	bl	8002280 <_free_r>
 8002ae6:	4625      	mov	r5, r4
 8002ae8:	4628      	mov	r0, r5
 8002aea:	bdf8      	pop	{r3, r4, r5, r6, r7, pc}
 8002aec:	f000 f814 	bl	8002b18 <_malloc_usable_size_r>
 8002af0:	42a0      	cmp	r0, r4
 8002af2:	d20f      	bcs.n	8002b14 <_realloc_r+0x48>
 8002af4:	4621      	mov	r1, r4
 8002af6:	4638      	mov	r0, r7
 8002af8:	f7ff fc0e 	bl	8002318 <_malloc_r>
 8002afc:	4605      	mov	r5, r0
 8002afe:	2800      	cmp	r0, #0
 8002b00:	d0f2      	beq.n	8002ae8 <_realloc_r+0x1c>
 8002b02:	4631      	mov	r1, r6
 8002b04:	4622      	mov	r2, r4
 8002b06:	f7ff ffb9 	bl	8002a7c <memcpy>
 8002b0a:	4631      	mov	r1, r6
 8002b0c:	4638      	mov	r0, r7
 8002b0e:	f7ff fbb7 	bl	8002280 <_free_r>
 8002b12:	e7e9      	b.n	8002ae8 <_realloc_r+0x1c>
 8002b14:	4635      	mov	r5, r6
 8002b16:	e7e7      	b.n	8002ae8 <_realloc_r+0x1c>

08002b18 <_malloc_usable_size_r>:
 8002b18:	f851 3c04 	ldr.w	r3, [r1, #-4]
 8002b1c:	1f18      	subs	r0, r3, #4
 8002b1e:	2b00      	cmp	r3, #0
 8002b20:	bfbc      	itt	lt
 8002b22:	580b      	ldrlt	r3, [r1, r0]
 8002b24:	18c0      	addlt	r0, r0, r3
 8002b26:	4770      	bx	lr

08002b28 <_sbrk>:
 8002b28:	4b04      	ldr	r3, [pc, #16]	; (8002b3c <_sbrk+0x14>)
 8002b2a:	4602      	mov	r2, r0
 8002b2c:	6819      	ldr	r1, [r3, #0]
 8002b2e:	b909      	cbnz	r1, 8002b34 <_sbrk+0xc>
 8002b30:	4903      	ldr	r1, [pc, #12]	; (8002b40 <_sbrk+0x18>)
 8002b32:	6019      	str	r1, [r3, #0]
 8002b34:	6818      	ldr	r0, [r3, #0]
 8002b36:	4402      	add	r2, r0
 8002b38:	601a      	str	r2, [r3, #0]
 8002b3a:	4770      	bx	lr
 8002b3c:	20000158 	.word	0x20000158
 8002b40:	20000568 	.word	0x20000568

08002b44 <_init>:
 8002b44:	b5f8      	push	{r3, r4, r5, r6, r7, lr}
 8002b46:	bf00      	nop
 8002b48:	bcf8      	pop	{r3, r4, r5, r6, r7}
 8002b4a:	bc08      	pop	{r3}
 8002b4c:	469e      	mov	lr, r3
 8002b4e:	4770      	bx	lr

08002b50 <_fini>:
 8002b50:	b5f8      	push	{r3, r4, r5, r6, r7, lr}
 8002b52:	bf00      	nop
 8002b54:	bcf8      	pop	{r3, r4, r5, r6, r7}
 8002b56:	bc08      	pop	{r3}
 8002b58:	469e      	mov	lr, r3
 8002b5a:	4770      	bx	lr
