
tanwaR4S.elf:     file format elf32-littlearm

Sections:
Idx Name          Size      VMA       LMA       File off  Algn
  0 .isr_vector   0000010c  08000000  08000000  00010000  2**0
                  CONTENTS, ALLOC, LOAD, READONLY, DATA
  1 .text         000027c4  08000110  08000110  00010110  2**3
                  CONTENTS, ALLOC, LOAD, READONLY, CODE
  2 .rodata       00000080  080028d4  080028d4  000128d4  2**2
                  CONTENTS, ALLOC, LOAD, READONLY, DATA
  3 .ARM.extab    00000000  08002954  08002954  00020074  2**0
                  CONTENTS
  4 .ARM          00000000  08002954  08002954  00020074  2**0
                  CONTENTS
  5 .preinit_array 00000000  08002954  08002954  00020074  2**0
                  CONTENTS, ALLOC, LOAD, DATA
  6 .init_array   00000004  08002954  08002954  00012954  2**2
                  CONTENTS, ALLOC, LOAD, DATA
  7 .fini_array   00000004  08002958  08002958  00012958  2**2
                  CONTENTS, ALLOC, LOAD, DATA
  8 .data         00000074  20000000  0800295c  00020000  2**2
                  CONTENTS, ALLOC, LOAD, DATA
  9 .bss          000004f0  20000074  080029d0  00020074  2**2
                  ALLOC
 10 ._user_heap_stack 00000604  20000564  080029d0  00020564  2**0
                  ALLOC
 11 .ARM.attributes 00000029  00000000  00000000  00020074  2**0
                  CONTENTS, READONLY
 12 .debug_info   00010a59  00000000  00000000  0002009d  2**0
                  CONTENTS, READONLY, DEBUGGING, OCTETS
 13 .debug_abbrev 0000322e  00000000  00000000  00030af6  2**0
                  CONTENTS, READONLY, DEBUGGING, OCTETS
 14 .debug_loc    00008539  00000000  00000000  00033d24  2**0
                  CONTENTS, READONLY, DEBUGGING, OCTETS
 15 .debug_aranges 00000850  00000000  00000000  0003c260  2**3
                  CONTENTS, READONLY, DEBUGGING, OCTETS
 16 .debug_ranges 00001520  00000000  00000000  0003cab0  2**3
                  CONTENTS, READONLY, DEBUGGING, OCTETS
 17 .debug_macro  00005d5e  00000000  00000000  0003dfd0  2**0
                  CONTENTS, READONLY, DEBUGGING, OCTETS
 18 .debug_line   00010ee8  00000000  00000000  00043d2e  2**0
                  CONTENTS, READONLY, DEBUGGING, OCTETS
 19 .debug_str    0008a57c  00000000  00000000  00054c16  2**0
                  CONTENTS, READONLY, DEBUGGING, OCTETS
 20 .comment      00000053  00000000  00000000  000df192  2**0
                  CONTENTS, READONLY
 21 .debug_frame  00001c34  00000000  00000000  000df1e8  2**2
                  CONTENTS, READONLY, DEBUGGING, OCTETS

Disassembly of section .text:

08000110 <__do_global_dtors_aux>:
 8000110:	b510      	push	{r4, lr}
 8000112:	4c05      	ldr	r4, [pc, #20]	; (8000128 <__do_global_dtors_aux+0x18>)
 8000114:	7823      	ldrb	r3, [r4, #0]
 8000116:	b933      	cbnz	r3, 8000126 <__do_global_dtors_aux+0x16>
 8000118:	4b04      	ldr	r3, [pc, #16]	; (800012c <__do_global_dtors_aux+0x1c>)
 800011a:	b113      	cbz	r3, 8000122 <__do_global_dtors_aux+0x12>
 800011c:	4804      	ldr	r0, [pc, #16]	; (8000130 <__do_global_dtors_aux+0x20>)
 800011e:	f3af 8000 	nop.w
 8000122:	2301      	movs	r3, #1
 8000124:	7023      	strb	r3, [r4, #0]
 8000126:	bd10      	pop	{r4, pc}
 8000128:	20000074 	.word	0x20000074
 800012c:	00000000 	.word	0x00000000
 8000130:	080028bc 	.word	0x080028bc

08000134 <frame_dummy>:
 8000134:	b508      	push	{r3, lr}
 8000136:	4b03      	ldr	r3, [pc, #12]	; (8000144 <frame_dummy+0x10>)
 8000138:	b11b      	cbz	r3, 8000142 <frame_dummy+0xe>
 800013a:	4903      	ldr	r1, [pc, #12]	; (8000148 <frame_dummy+0x14>)
 800013c:	4803      	ldr	r0, [pc, #12]	; (800014c <frame_dummy+0x18>)
 800013e:	f3af 8000 	nop.w
 8000142:	bd08      	pop	{r3, pc}
 8000144:	00000000 	.word	0x00000000
 8000148:	20000078 	.word	0x20000078
 800014c:	080028bc 	.word	0x080028bc

08000150 <strlen>:
 8000150:	4603      	mov	r3, r0
 8000152:	f813 2b01 	ldrb.w	r2, [r3], #1
 8000156:	2a00      	cmp	r2, #0
 8000158:	d1fb      	bne.n	8000152 <strlen+0x2>
 800015a:	1a18      	subs	r0, r3, r0
 800015c:	3801      	subs	r0, #1
 800015e:	4770      	bx	lr

08000160 <_ZN7IgniterC1EP12GPIO_TypeDeftS1_t>:
#include <Igniter.hh>

//(names of args start with '_' sign)
Igniter::Igniter(GPIO_TypeDef* _GPIO_PORT_IGNITER, uint16_t _PIN_IGNITER, GPIO_TypeDef* _IGN_GPIO_PORT_TEST_CON, uint16_t _IGN_PIN_TEST_CON){
 8000160:	b410      	push	{r4}
	GPIO_PORT_IGNITER = _GPIO_PORT_IGNITER;
 8000162:	6001      	str	r1, [r0, #0]
	PIN_IGNITER = _PIN_IGNITER;
 8000164:	8082      	strh	r2, [r0, #4]
	GPIO_PORT_TEST_CON = _IGN_GPIO_PORT_TEST_CON;
 8000166:	6083      	str	r3, [r0, #8]
	PIN_TEST_CON = _IGN_PIN_TEST_CON;
 8000168:	f8bd 3004 	ldrh.w	r3, [sp, #4]
 800016c:	8183      	strh	r3, [r0, #12]
}
 800016e:	bc10      	pop	{r4}
 8000170:	4770      	bx	lr

08000172 <_ZNK7Igniter12is_connectedEv>:

bool Igniter::is_connected() const{
 8000172:	b508      	push	{r3, lr}
	if(HAL_GPIO_ReadPin(GPIO_PORT_TEST_CON, PIN_TEST_CON) == GPIO_PIN_SET)
 8000174:	8981      	ldrh	r1, [r0, #12]
 8000176:	6880      	ldr	r0, [r0, #8]
 8000178:	f000 ffee 	bl	8001158 <HAL_GPIO_ReadPin>
		return 1;
	else
		return 0;
}
 800017c:	2801      	cmp	r0, #1
 800017e:	bf14      	ite	ne
 8000180:	2000      	movne	r0, #0
 8000182:	2001      	moveq	r0, #1
 8000184:	bd08      	pop	{r3, pc}

08000186 <_ZN7Igniter4FIREEv>:

void Igniter::FIRE(){
 8000186:	b508      	push	{r3, lr}
	HAL_GPIO_WritePin(GPIO_PORT_IGNITER, PIN_IGNITER, GPIO_PIN_SET);
 8000188:	2201      	movs	r2, #1
 800018a:	8881      	ldrh	r1, [r0, #4]
 800018c:	6800      	ldr	r0, [r0, #0]
 800018e:	f000 ffe9 	bl	8001164 <HAL_GPIO_WritePin>
}
 8000192:	bd08      	pop	{r3, pc}

08000194 <MX_GPIO_Init>:
        * Output
        * EVENT_OUT
        * EXTI
*/
void MX_GPIO_Init(void)
{
 8000194:	e92d 41f0 	stmdb	sp!, {r4, r5, r6, r7, r8, lr}

  GPIO_InitTypeDef GPIO_InitStruct = {0};
 8000198:	2400      	movs	r4, #0
{
 800019a:	b088      	sub	sp, #32
  GPIO_InitTypeDef GPIO_InitStruct = {0};
 800019c:	e9cd 4404 	strd	r4, r4, [sp, #16]
 80001a0:	e9cd 4406 	strd	r4, r4, [sp, #24]

  /* GPIO Ports Clock Enable */
  __HAL_RCC_GPIOC_CLK_ENABLE();
 80001a4:	4b2a      	ldr	r3, [pc, #168]	; (8000250 <MX_GPIO_Init+0xbc>)
  __HAL_RCC_GPIOD_CLK_ENABLE();
  __HAL_RCC_GPIOA_CLK_ENABLE();
  __HAL_RCC_GPIOB_CLK_ENABLE();

  /*Configure GPIO pin Output Level */
  HAL_GPIO_WritePin(BUILD_IN_LED_GPIO_Port, BUILD_IN_LED_Pin, GPIO_PIN_RESET);
 80001a6:	4d2b      	ldr	r5, [pc, #172]	; (8000254 <MX_GPIO_Init+0xc0>)
  __HAL_RCC_GPIOC_CLK_ENABLE();
 80001a8:	699a      	ldr	r2, [r3, #24]

  /*Configure GPIO pin Output Level */
  HAL_GPIO_WritePin(IGN_FIRE_GPIO_Port, IGN_FIRE_Pin, GPIO_PIN_RESET);
 80001aa:	4f2b      	ldr	r7, [pc, #172]	; (8000258 <MX_GPIO_Init+0xc4>)
  __HAL_RCC_GPIOC_CLK_ENABLE();
 80001ac:	f042 0210 	orr.w	r2, r2, #16
 80001b0:	619a      	str	r2, [r3, #24]
 80001b2:	699a      	ldr	r2, [r3, #24]
  HAL_GPIO_WritePin(BUILD_IN_LED_GPIO_Port, BUILD_IN_LED_Pin, GPIO_PIN_RESET);
 80001b4:	4628      	mov	r0, r5
  __HAL_RCC_GPIOC_CLK_ENABLE();
 80001b6:	f002 0210 	and.w	r2, r2, #16
 80001ba:	9200      	str	r2, [sp, #0]
 80001bc:	9a00      	ldr	r2, [sp, #0]
  __HAL_RCC_GPIOD_CLK_ENABLE();
 80001be:	6999      	ldr	r1, [r3, #24]
  HAL_GPIO_WritePin(BUILD_IN_LED_GPIO_Port, BUILD_IN_LED_Pin, GPIO_PIN_RESET);
 80001c0:	4622      	mov	r2, r4
  __HAL_RCC_GPIOD_CLK_ENABLE();
 80001c2:	f041 0120 	orr.w	r1, r1, #32
 80001c6:	6199      	str	r1, [r3, #24]
 80001c8:	6999      	ldr	r1, [r3, #24]

  /*Configure GPIO pin : PtPin */
  GPIO_InitStruct.Pin = BUILD_IN_LED_Pin;
  GPIO_InitStruct.Mode = GPIO_MODE_OUTPUT_PP;
 80001ca:	f04f 0801 	mov.w	r8, #1
  __HAL_RCC_GPIOD_CLK_ENABLE();
 80001ce:	f001 0120 	and.w	r1, r1, #32
 80001d2:	9101      	str	r1, [sp, #4]
 80001d4:	9901      	ldr	r1, [sp, #4]
  __HAL_RCC_GPIOA_CLK_ENABLE();
 80001d6:	699e      	ldr	r6, [r3, #24]
  HAL_GPIO_WritePin(BUILD_IN_LED_GPIO_Port, BUILD_IN_LED_Pin, GPIO_PIN_RESET);
 80001d8:	f44f 5100 	mov.w	r1, #8192	; 0x2000
  __HAL_RCC_GPIOA_CLK_ENABLE();
 80001dc:	f046 0604 	orr.w	r6, r6, #4
 80001e0:	619e      	str	r6, [r3, #24]
 80001e2:	699e      	ldr	r6, [r3, #24]
 80001e4:	f006 0604 	and.w	r6, r6, #4
 80001e8:	9602      	str	r6, [sp, #8]
 80001ea:	9e02      	ldr	r6, [sp, #8]
  __HAL_RCC_GPIOB_CLK_ENABLE();
 80001ec:	699e      	ldr	r6, [r3, #24]
 80001ee:	f046 0608 	orr.w	r6, r6, #8
 80001f2:	619e      	str	r6, [r3, #24]
 80001f4:	699b      	ldr	r3, [r3, #24]
  GPIO_InitStruct.Pull = GPIO_NOPULL;
  GPIO_InitStruct.Speed = GPIO_SPEED_FREQ_LOW;
 80001f6:	2602      	movs	r6, #2
  __HAL_RCC_GPIOB_CLK_ENABLE();
 80001f8:	f003 0308 	and.w	r3, r3, #8
 80001fc:	9303      	str	r3, [sp, #12]
 80001fe:	9b03      	ldr	r3, [sp, #12]
  HAL_GPIO_WritePin(BUILD_IN_LED_GPIO_Port, BUILD_IN_LED_Pin, GPIO_PIN_RESET);
 8000200:	f000 ffb0 	bl	8001164 <HAL_GPIO_WritePin>
  HAL_GPIO_WritePin(IGN_FIRE_GPIO_Port, IGN_FIRE_Pin, GPIO_PIN_RESET);
 8000204:	4622      	mov	r2, r4
 8000206:	4638      	mov	r0, r7
 8000208:	f44f 6180 	mov.w	r1, #1024	; 0x400
 800020c:	f000 ffaa 	bl	8001164 <HAL_GPIO_WritePin>
  GPIO_InitStruct.Pin = BUILD_IN_LED_Pin;
 8000210:	f44f 5300 	mov.w	r3, #8192	; 0x2000
  HAL_GPIO_Init(BUILD_IN_LED_GPIO_Port, &GPIO_InitStruct);
 8000214:	4628      	mov	r0, r5
 8000216:	a904      	add	r1, sp, #16
  GPIO_InitStruct.Mode = GPIO_MODE_OUTPUT_PP;
 8000218:	e9cd 3804 	strd	r3, r8, [sp, #16]
  GPIO_InitStruct.Pull = GPIO_NOPULL;
 800021c:	9406      	str	r4, [sp, #24]
  GPIO_InitStruct.Speed = GPIO_SPEED_FREQ_LOW;
 800021e:	9607      	str	r6, [sp, #28]
  HAL_GPIO_Init(BUILD_IN_LED_GPIO_Port, &GPIO_InitStruct);
 8000220:	f000 fe8a 	bl	8000f38 <HAL_GPIO_Init>

  /*Configure GPIO pin : PtPin */
  GPIO_InitStruct.Pin = IGN_TEST_CON_Pin;
 8000224:	f44f 4300 	mov.w	r3, #32768	; 0x8000
  GPIO_InitStruct.Mode = GPIO_MODE_INPUT;
  GPIO_InitStruct.Pull = GPIO_NOPULL;
  HAL_GPIO_Init(IGN_TEST_CON_GPIO_Port, &GPIO_InitStruct);
 8000228:	4628      	mov	r0, r5
 800022a:	a904      	add	r1, sp, #16
  GPIO_InitStruct.Pin = IGN_TEST_CON_Pin;
 800022c:	9304      	str	r3, [sp, #16]
  GPIO_InitStruct.Pull = GPIO_NOPULL;
 800022e:	e9cd 4405 	strd	r4, r4, [sp, #20]
  HAL_GPIO_Init(IGN_TEST_CON_GPIO_Port, &GPIO_InitStruct);
 8000232:	f000 fe81 	bl	8000f38 <HAL_GPIO_Init>

  /*Configure GPIO pin : PtPin */
  GPIO_InitStruct.Pin = IGN_FIRE_Pin;
 8000236:	f44f 6380 	mov.w	r3, #1024	; 0x400
  GPIO_InitStruct.Mode = GPIO_MODE_OUTPUT_PP;
  GPIO_InitStruct.Pull = GPIO_NOPULL;
  GPIO_InitStruct.Speed = GPIO_SPEED_FREQ_LOW;
  HAL_GPIO_Init(IGN_FIRE_GPIO_Port, &GPIO_InitStruct);
 800023a:	4638      	mov	r0, r7
 800023c:	a904      	add	r1, sp, #16
  GPIO_InitStruct.Pull = GPIO_NOPULL;
 800023e:	e9cd 8405 	strd	r8, r4, [sp, #20]
  GPIO_InitStruct.Speed = GPIO_SPEED_FREQ_LOW;
 8000242:	9607      	str	r6, [sp, #28]
  GPIO_InitStruct.Pin = IGN_FIRE_Pin;
 8000244:	9304      	str	r3, [sp, #16]
  HAL_GPIO_Init(IGN_FIRE_GPIO_Port, &GPIO_InitStruct);
 8000246:	f000 fe77 	bl	8000f38 <HAL_GPIO_Init>

}
 800024a:	b008      	add	sp, #32
 800024c:	e8bd 81f0 	ldmia.w	sp!, {r4, r5, r6, r7, r8, pc}
 8000250:	40021000 	.word	0x40021000
 8000254:	40011000 	.word	0x40011000
 8000258:	40010800 	.word	0x40010800

0800025c <_Z18SystemClock_Configv>:
/**
  * @brief System Clock Configuration
  * @retval None
  */
void SystemClock_Config(void)
{
 800025c:	b500      	push	{lr}
 800025e:	b095      	sub	sp, #84	; 0x54
  RCC_OscInitTypeDef RCC_OscInitStruct = {0};
 8000260:	2300      	movs	r3, #0
 8000262:	930d      	str	r3, [sp, #52]	; 0x34
 8000264:	930f      	str	r3, [sp, #60]	; 0x3c
 8000266:	9310      	str	r3, [sp, #64]	; 0x40
  RCC_ClkInitTypeDef RCC_ClkInitStruct = {0};
 8000268:	9305      	str	r3, [sp, #20]
 800026a:	9306      	str	r3, [sp, #24]
 800026c:	9307      	str	r3, [sp, #28]
 800026e:	9308      	str	r3, [sp, #32]
 8000270:	9309      	str	r3, [sp, #36]	; 0x24
  RCC_PeriphCLKInitTypeDef PeriphClkInit = {0};
 8000272:	9301      	str	r3, [sp, #4]
 8000274:	9302      	str	r3, [sp, #8]
 8000276:	9303      	str	r3, [sp, #12]
 8000278:	9304      	str	r3, [sp, #16]

  /** Initializes the RCC Oscillators according to the specified parameters
  * in the RCC_OscInitTypeDef structure.
  */
  RCC_OscInitStruct.OscillatorType = RCC_OSCILLATORTYPE_HSE;
 800027a:	2101      	movs	r1, #1
 800027c:	910a      	str	r1, [sp, #40]	; 0x28
  RCC_OscInitStruct.HSEState = RCC_HSE_ON;
 800027e:	f44f 3280 	mov.w	r2, #65536	; 0x10000
 8000282:	920b      	str	r2, [sp, #44]	; 0x2c
  RCC_OscInitStruct.HSEPredivValue = RCC_HSE_PREDIV_DIV1;
 8000284:	930c      	str	r3, [sp, #48]	; 0x30
  RCC_OscInitStruct.HSIState = RCC_HSI_ON;
 8000286:	910e      	str	r1, [sp, #56]	; 0x38
  RCC_OscInitStruct.PLL.PLLState = RCC_PLL_ON;
 8000288:	2302      	movs	r3, #2
 800028a:	9311      	str	r3, [sp, #68]	; 0x44
  RCC_OscInitStruct.PLL.PLLSource = RCC_PLLSOURCE_HSE;
 800028c:	9212      	str	r2, [sp, #72]	; 0x48
  RCC_OscInitStruct.PLL.PLLMUL = RCC_PLL_MUL6;
 800028e:	f44f 1380 	mov.w	r3, #1048576	; 0x100000
 8000292:	9313      	str	r3, [sp, #76]	; 0x4c
  if (HAL_RCC_OscConfig(&RCC_OscInitStruct) != HAL_OK)
 8000294:	a80a      	add	r0, sp, #40	; 0x28
 8000296:	f000 ffef 	bl	8001278 <HAL_RCC_OscConfig>
 800029a:	b9d0      	cbnz	r0, 80002d2 <_Z18SystemClock_Configv+0x76>
  {
    Error_Handler();
  }
  /** Initializes the CPU, AHB and APB buses clocks
  */
  RCC_ClkInitStruct.ClockType = RCC_CLOCKTYPE_HCLK|RCC_CLOCKTYPE_SYSCLK
 800029c:	230f      	movs	r3, #15
 800029e:	9305      	str	r3, [sp, #20]
                              |RCC_CLOCKTYPE_PCLK1|RCC_CLOCKTYPE_PCLK2;
  RCC_ClkInitStruct.SYSCLKSource = RCC_SYSCLKSOURCE_PLLCLK;
 80002a0:	2302      	movs	r3, #2
 80002a2:	9306      	str	r3, [sp, #24]
  RCC_ClkInitStruct.AHBCLKDivider = RCC_SYSCLK_DIV1;
 80002a4:	2300      	movs	r3, #0
 80002a6:	9307      	str	r3, [sp, #28]
  RCC_ClkInitStruct.APB1CLKDivider = RCC_HCLK_DIV2;
 80002a8:	f44f 6380 	mov.w	r3, #1024	; 0x400
 80002ac:	9308      	str	r3, [sp, #32]
  RCC_ClkInitStruct.APB2CLKDivider = RCC_HCLK_DIV2;
 80002ae:	9309      	str	r3, [sp, #36]	; 0x24

  if (HAL_RCC_ClockConfig(&RCC_ClkInitStruct, FLASH_LATENCY_1) != HAL_OK)
 80002b0:	2101      	movs	r1, #1
 80002b2:	a805      	add	r0, sp, #20
 80002b4:	f001 fa16 	bl	80016e4 <HAL_RCC_ClockConfig>
 80002b8:	b968      	cbnz	r0, 80002d6 <_Z18SystemClock_Configv+0x7a>
  {
    Error_Handler();
  }
  PeriphClkInit.PeriphClockSelection = RCC_PERIPHCLK_USB;
 80002ba:	2310      	movs	r3, #16
 80002bc:	9301      	str	r3, [sp, #4]
  PeriphClkInit.UsbClockSelection = RCC_USBCLKSOURCE_PLL;
 80002be:	f44f 0380 	mov.w	r3, #4194304	; 0x400000
 80002c2:	9304      	str	r3, [sp, #16]
  if (HAL_RCCEx_PeriphCLKConfig(&PeriphClkInit) != HAL_OK)
 80002c4:	a801      	add	r0, sp, #4
 80002c6:	f001 facd 	bl	8001864 <HAL_RCCEx_PeriphCLKConfig>
 80002ca:	b930      	cbnz	r0, 80002da <_Z18SystemClock_Configv+0x7e>
  {
    Error_Handler();
  }
}
 80002cc:	b015      	add	sp, #84	; 0x54
 80002ce:	f85d fb04 	ldr.w	pc, [sp], #4
  \details Disables IRQ interrupts by setting the I-bit in the CPSR.
           Can only be executed in Privileged modes.
 */
__STATIC_FORCEINLINE void __disable_irq(void)
{
  __ASM volatile ("cpsid i" : : : "memory");
 80002d2:	b672      	cpsid	i
  */
void Error_Handler(void){
  /* USER CODE BEGIN Error_Handler_Debug */
  /* User can add his own implementation to report the HAL error return state */
  __disable_irq();
  while (1)
 80002d4:	e7fe      	b.n	80002d4 <_Z18SystemClock_Configv+0x78>
 80002d6:	b672      	cpsid	i
 80002d8:	e7fe      	b.n	80002d8 <_Z18SystemClock_Configv+0x7c>
 80002da:	b672      	cpsid	i
 80002dc:	e7fe      	b.n	80002dc <_Z18SystemClock_Configv+0x80>
	...

080002e0 <main>:
{
 80002e0:	b580      	push	{r7, lr}
 80002e2:	b08a      	sub	sp, #40	; 0x28
  HAL_Init();
 80002e4:	f000 fc0e 	bl	8000b04 <HAL_Init>
  HAL_Delay(1000);
 80002e8:	f44f 707a 	mov.w	r0, #1000	; 0x3e8
 80002ec:	f000 fc2e 	bl	8000b4c <HAL_Delay>
  SystemClock_Config();
 80002f0:	f7ff ffb4 	bl	800025c <_Z18SystemClock_Configv>
  MX_GPIO_Init();
 80002f4:	f7ff ff4e 	bl	8000194 <MX_GPIO_Init>
  MX_USART2_UART_Init();
 80002f8:	f000 f968 	bl	80005cc <MX_USART2_UART_Init>
  MX_USB_PCD_Init();
 80002fc:	f000 fa4c 	bl	8000798 <MX_USB_PCD_Init>
  MX_USART3_UART_Init();
 8000300:	f000 f980 	bl	8000604 <MX_USART3_UART_Init>
  __HAL_UART_ENABLE_IT(&huart2, UART_IT_IDLE);
 8000304:	4c54      	ldr	r4, [pc, #336]	; (8000458 <main+0x178>)
 8000306:	6822      	ldr	r2, [r4, #0]
 8000308:	68d3      	ldr	r3, [r2, #12]
 800030a:	f043 0310 	orr.w	r3, r3, #16
 800030e:	60d3      	str	r3, [r2, #12]
  HAL_UART_Receive_DMA(&huart2, (uint8_t*) xbee_rx.mess_loaded, DATA_LENGTH);
 8000310:	2232      	movs	r2, #50	; 0x32
 8000312:	4952      	ldr	r1, [pc, #328]	; (800045c <main+0x17c>)
 8000314:	4620      	mov	r0, r4
 8000316:	f001 fc25 	bl	8001b64 <HAL_UART_Receive_DMA>
  xbee_init(&communication, 0x0013A20041C283E5, &huart2); //inicjalizacja modułu xbee
 800031a:	9400      	str	r4, [sp, #0]
 800031c:	a34c      	add	r3, pc, #304	; (adr r3, 8000450 <main+0x170>)
 800031e:	e9d3 2300 	ldrd	r2, r3, [r3]
 8000322:	484f      	ldr	r0, [pc, #316]	; (8000460 <main+0x180>)
 8000324:	f000 fa66 	bl	80007f4 <xbee_init>
  Igniter igniter(IGN_FIRE_GPIO_Port, IGN_FIRE_Pin, IGN_TEST_CON_GPIO_Port, IGN_TEST_CON_Pin);
 8000328:	f44f 4300 	mov.w	r3, #32768	; 0x8000
 800032c:	9300      	str	r3, [sp, #0]
 800032e:	f103 4380 	add.w	r3, r3, #1073741824	; 0x40000000
 8000332:	f503 4310 	add.w	r3, r3, #36864	; 0x9000
 8000336:	f44f 6280 	mov.w	r2, #1024	; 0x400
 800033a:	494a      	ldr	r1, [pc, #296]	; (8000464 <main+0x184>)
 800033c:	a806      	add	r0, sp, #24
 800033e:	f7ff ff0f 	bl	8000160 <_ZN7IgniterC1EP12GPIO_TypeDeftS1_t>
	  sprintf(dataOut,"DDAT;%i;%i", currState, igniter.is_connected());
 8000342:	f8df 8138 	ldr.w	r8, [pc, #312]	; 800047c <main+0x19c>
 8000346:	f8df 9138 	ldr.w	r9, [pc, #312]	; 8000480 <main+0x1a0>
   				  HAL_GPIO_TogglePin(BUILD_IN_LED_GPIO_Port, BUILD_IN_LED_Pin);
 800034a:	f8df a138 	ldr.w	sl, [pc, #312]	; 8000484 <main+0x1a4>
 800034e:	e00b      	b.n	8000368 <main+0x88>
			  if(igniter.is_connected()){
 8000350:	a806      	add	r0, sp, #24
 8000352:	f7ff ff0e 	bl	8000172 <_ZNK7Igniter12is_connectedEv>
 8000356:	2800      	cmp	r0, #0
 8000358:	d138      	bne.n	80003cc <main+0xec>
   			  currState = Idle;
 800035a:	2302      	movs	r3, #2
 800035c:	f888 3000 	strb.w	r3, [r8]
   			  HAL_Delay(950);
 8000360:	f240 30b6 	movw	r0, #950	; 0x3b6
 8000364:	f000 fbf2 	bl	8000b4c <HAL_Delay>
	  sprintf(dataOut,"DDAT;%i;%i", currState, igniter.is_connected());
 8000368:	4f3f      	ldr	r7, [pc, #252]	; (8000468 <main+0x188>)
 800036a:	f898 4000 	ldrb.w	r4, [r8]
 800036e:	a806      	add	r0, sp, #24
 8000370:	f7ff feff 	bl	8000172 <_ZNK7Igniter12is_connectedEv>
 8000374:	4603      	mov	r3, r0
 8000376:	4622      	mov	r2, r4
 8000378:	4649      	mov	r1, r9
 800037a:	4638      	mov	r0, r7
 800037c:	f001 fef2 	bl	8002164 <siprintf>
	  xbee_transmit_char(communication, dataOut);
 8000380:	4e37      	ldr	r6, [pc, #220]	; (8000460 <main+0x180>)
 8000382:	9705      	str	r7, [sp, #20]
 8000384:	466c      	mov	r4, sp
 8000386:	f106 0510 	add.w	r5, r6, #16
 800038a:	cd0f      	ldmia	r5!, {r0, r1, r2, r3}
 800038c:	c40f      	stmia	r4!, {r0, r1, r2, r3}
 800038e:	682b      	ldr	r3, [r5, #0]
 8000390:	6023      	str	r3, [r4, #0]
 8000392:	e896 000f 	ldmia.w	r6, {r0, r1, r2, r3}
 8000396:	f000 fac9 	bl	800092c <xbee_transmit_char>
	  HAL_Delay(50);
 800039a:	2032      	movs	r0, #50	; 0x32
 800039c:	f000 fbd6 	bl	8000b4c <HAL_Delay>
	  switch(currState){
 80003a0:	f898 3000 	ldrb.w	r3, [r8]
 80003a4:	3b01      	subs	r3, #1
 80003a6:	2b06      	cmp	r3, #6
 80003a8:	d8df      	bhi.n	800036a <main+0x8a>
 80003aa:	a201      	add	r2, pc, #4	; (adr r2, 80003b0 <main+0xd0>)
 80003ac:	f852 f023 	ldr.w	pc, [r2, r3, lsl #2]
 80003b0:	08000351 	.word	0x08000351
 80003b4:	080003d9 	.word	0x080003d9
 80003b8:	080003e3 	.word	0x080003e3
 80003bc:	080003ed 	.word	0x080003ed
 80003c0:	080003f7 	.word	0x080003f7
 80003c4:	0800043f 	.word	0x0800043f
 80003c8:	08000447 	.word	0x08000447
   				  HAL_GPIO_TogglePin(BUILD_IN_LED_GPIO_Port, BUILD_IN_LED_Pin);
 80003cc:	f44f 5100 	mov.w	r1, #8192	; 0x2000
 80003d0:	4650      	mov	r0, sl
 80003d2:	f000 fecb 	bl	800116c <HAL_GPIO_TogglePin>
 80003d6:	e7c0      	b.n	800035a <main+0x7a>
   			  HAL_Delay(1950);
 80003d8:	f240 709e 	movw	r0, #1950	; 0x79e
 80003dc:	f000 fbb6 	bl	8000b4c <HAL_Delay>
   			  break;
 80003e0:	e7c2      	b.n	8000368 <main+0x88>
   			  HAL_Delay(950);
 80003e2:	f240 30b6 	movw	r0, #950	; 0x3b6
 80003e6:	f000 fbb1 	bl	8000b4c <HAL_Delay>
   			  break;
 80003ea:	e7bd      	b.n	8000368 <main+0x88>
   			  HAL_Delay(950); 	 // !to test
 80003ec:	f240 30b6 	movw	r0, #950	; 0x3b6
 80003f0:	f000 fbac 	bl	8000b4c <HAL_Delay>
   			  break;
 80003f4:	e7b8      	b.n	8000368 <main+0x88>
			  if(strncmp (dataIn, "DSTA", 4) == 0){	//signal == fire
 80003f6:	2204      	movs	r2, #4
 80003f8:	491c      	ldr	r1, [pc, #112]	; (800046c <main+0x18c>)
 80003fa:	481d      	ldr	r0, [pc, #116]	; (8000470 <main+0x190>)
 80003fc:	f001 feda 	bl	80021b4 <strncmp>
 8000400:	b118      	cbz	r0, 800040a <main+0x12a>
			  HAL_Delay(250);
 8000402:	20fa      	movs	r0, #250	; 0xfa
 8000404:	f000 fba2 	bl	8000b4c <HAL_Delay>
			  break;
 8000408:	e7ae      	b.n	8000368 <main+0x88>
				  igniter.FIRE();
 800040a:	a806      	add	r0, sp, #24
 800040c:	f7ff febb 	bl	8000186 <_ZN7Igniter4FIREEv>
				  sprintf(dataOut,"ASTB");
 8000410:	4b15      	ldr	r3, [pc, #84]	; (8000468 <main+0x188>)
 8000412:	4a18      	ldr	r2, [pc, #96]	; (8000474 <main+0x194>)
 8000414:	e892 0003 	ldmia.w	r2, {r0, r1}
 8000418:	6018      	str	r0, [r3, #0]
 800041a:	7119      	strb	r1, [r3, #4]
				  xbee_transmit_char(communication, dataOut);
 800041c:	4e10      	ldr	r6, [pc, #64]	; (8000460 <main+0x180>)
 800041e:	9305      	str	r3, [sp, #20]
 8000420:	466c      	mov	r4, sp
 8000422:	f106 0510 	add.w	r5, r6, #16
 8000426:	cd0f      	ldmia	r5!, {r0, r1, r2, r3}
 8000428:	c40f      	stmia	r4!, {r0, r1, r2, r3}
 800042a:	682b      	ldr	r3, [r5, #0]
 800042c:	6023      	str	r3, [r4, #0]
 800042e:	e896 000f 	ldmia.w	r6, {r0, r1, r2, r3}
 8000432:	f000 fa7b 	bl	800092c <xbee_transmit_char>
				  currState = End;
 8000436:	2306      	movs	r3, #6
 8000438:	f888 3000 	strb.w	r3, [r8]
 800043c:	e7e1      	b.n	8000402 <main+0x122>
   			  HAL_Delay(1000000);
 800043e:	480e      	ldr	r0, [pc, #56]	; (8000478 <main+0x198>)
 8000440:	f000 fb84 	bl	8000b4c <HAL_Delay>
   			  break;
 8000444:	e790      	b.n	8000368 <main+0x88>
			  HAL_Delay(1950);
 8000446:	f240 709e 	movw	r0, #1950	; 0x79e
 800044a:	f000 fb7f 	bl	8000b4c <HAL_Delay>
			  break;
 800044e:	e78b      	b.n	8000368 <main+0x88>
 8000450:	41c283e5 	.word	0x41c283e5
 8000454:	0013a200 	.word	0x0013a200
 8000458:	20000224 	.word	0x20000224
 800045c:	200000f8 	.word	0x200000f8
 8000460:	20000090 	.word	0x20000090
 8000464:	40010800 	.word	0x40010800
 8000468:	200000d4 	.word	0x200000d4
 800046c:	080028e0 	.word	0x080028e0
 8000470:	200000b4 	.word	0x200000b4
 8000474:	080028e8 	.word	0x080028e8
 8000478:	000f4240 	.word	0x000f4240
 800047c:	20000000 	.word	0x20000000
 8000480:	080028d4 	.word	0x080028d4
 8000484:	40011000 	.word	0x40011000

08000488 <HAL_UART_RxCpltCallback>:
	if(huart->Instance == USART2){
 8000488:	6802      	ldr	r2, [r0, #0]
 800048a:	4b1a      	ldr	r3, [pc, #104]	; (80004f4 <HAL_UART_RxCpltCallback+0x6c>)
 800048c:	429a      	cmp	r2, r3
 800048e:	d000      	beq.n	8000492 <HAL_UART_RxCpltCallback+0xa>
 8000490:	4770      	bx	lr
void HAL_UART_RxCpltCallback(UART_HandleTypeDef *huart){
 8000492:	b500      	push	{lr}
 8000494:	b083      	sub	sp, #12
		__HAL_UART_CLEAR_IDLEFLAG(&huart2);
 8000496:	2300      	movs	r3, #0
 8000498:	9301      	str	r3, [sp, #4]
 800049a:	4817      	ldr	r0, [pc, #92]	; (80004f8 <HAL_UART_RxCpltCallback+0x70>)
 800049c:	6803      	ldr	r3, [r0, #0]
 800049e:	681a      	ldr	r2, [r3, #0]
 80004a0:	9201      	str	r2, [sp, #4]
 80004a2:	685b      	ldr	r3, [r3, #4]
 80004a4:	9301      	str	r3, [sp, #4]
 80004a6:	9b01      	ldr	r3, [sp, #4]
		HAL_UART_DMAStop(&huart2);
 80004a8:	f001 fba8 	bl	8001bfc <HAL_UART_DMAStop>
		xbee_receive(); //odebranie całej wiadomości
 80004ac:	f000 fa7c 	bl	80009a8 <xbee_receive>
		if(xbee_rx.data_flag){  //jeżeli wiadomość była danymi to ta zmienna będzie miała wartość 1
 80004b0:	4b12      	ldr	r3, [pc, #72]	; (80004fc <HAL_UART_RxCpltCallback+0x74>)
 80004b2:	f893 3054 	ldrb.w	r3, [r3, #84]	; 0x54
 80004b6:	b15b      	cbz	r3, 80004d0 <HAL_UART_RxCpltCallback+0x48>
			if(strncmp(xbee_rx.data_array, "STAT", 4) == 0){
 80004b8:	2204      	movs	r2, #4
 80004ba:	4911      	ldr	r1, [pc, #68]	; (8000500 <HAL_UART_RxCpltCallback+0x78>)
 80004bc:	4811      	ldr	r0, [pc, #68]	; (8000504 <HAL_UART_RxCpltCallback+0x7c>)
 80004be:	f001 fe79 	bl	80021b4 <strncmp>
 80004c2:	b968      	cbnz	r0, 80004e0 <HAL_UART_RxCpltCallback+0x58>
				currState = (state)(((int)(xbee_rx.data_array[7])) - 48);
 80004c4:	4b0d      	ldr	r3, [pc, #52]	; (80004fc <HAL_UART_RxCpltCallback+0x74>)
 80004c6:	f893 303d 	ldrb.w	r3, [r3, #61]	; 0x3d
 80004ca:	3b30      	subs	r3, #48	; 0x30
 80004cc:	4a0e      	ldr	r2, [pc, #56]	; (8000508 <HAL_UART_RxCpltCallback+0x80>)
 80004ce:	7013      	strb	r3, [r2, #0]
		HAL_UART_Receive_DMA(&huart2, (uint8_t*) xbee_rx.mess_loaded, DATA_LENGTH);
 80004d0:	2232      	movs	r2, #50	; 0x32
 80004d2:	490e      	ldr	r1, [pc, #56]	; (800050c <HAL_UART_RxCpltCallback+0x84>)
 80004d4:	4808      	ldr	r0, [pc, #32]	; (80004f8 <HAL_UART_RxCpltCallback+0x70>)
 80004d6:	f001 fb45 	bl	8001b64 <HAL_UART_Receive_DMA>
}
 80004da:	b003      	add	sp, #12
 80004dc:	f85d fb04 	ldr.w	pc, [sp], #4
			else if(xbee_rx.data_array[0] == 'D'){
 80004e0:	4b06      	ldr	r3, [pc, #24]	; (80004fc <HAL_UART_RxCpltCallback+0x74>)
 80004e2:	f893 3036 	ldrb.w	r3, [r3, #54]	; 0x36
 80004e6:	2b44      	cmp	r3, #68	; 0x44
 80004e8:	d1f2      	bne.n	80004d0 <HAL_UART_RxCpltCallback+0x48>
				strcpy(dataIn, xbee_rx.data_array);
 80004ea:	4906      	ldr	r1, [pc, #24]	; (8000504 <HAL_UART_RxCpltCallback+0x7c>)
 80004ec:	4808      	ldr	r0, [pc, #32]	; (8000510 <HAL_UART_RxCpltCallback+0x88>)
 80004ee:	f001 fe59 	bl	80021a4 <strcpy>
 80004f2:	e7ed      	b.n	80004d0 <HAL_UART_RxCpltCallback+0x48>
 80004f4:	40004400 	.word	0x40004400
 80004f8:	20000224 	.word	0x20000224
 80004fc:	200000f4 	.word	0x200000f4
 8000500:	080028f0 	.word	0x080028f0
 8000504:	2000012a 	.word	0x2000012a
 8000508:	20000000 	.word	0x20000000
 800050c:	200000f8 	.word	0x200000f8
 8000510:	200000b4 	.word	0x200000b4

08000514 <Error_Handler>:
 8000514:	b672      	cpsid	i
  while (1)
 8000516:	e7fe      	b.n	8000516 <Error_Handler+0x2>

08000518 <HAL_MspInit>:
{
  /* USER CODE BEGIN MspInit 0 */

  /* USER CODE END MspInit 0 */

  __HAL_RCC_AFIO_CLK_ENABLE();
 8000518:	4b0e      	ldr	r3, [pc, #56]	; (8000554 <HAL_MspInit+0x3c>)
{
 800051a:	b082      	sub	sp, #8
  __HAL_RCC_AFIO_CLK_ENABLE();
 800051c:	699a      	ldr	r2, [r3, #24]

  /* System interrupt init*/

  /** NOJTAG: JTAG-DP Disabled and SW-DP Enabled
  */
  __HAL_AFIO_REMAP_SWJ_NOJTAG();
 800051e:	490e      	ldr	r1, [pc, #56]	; (8000558 <HAL_MspInit+0x40>)
  __HAL_RCC_AFIO_CLK_ENABLE();
 8000520:	f042 0201 	orr.w	r2, r2, #1
 8000524:	619a      	str	r2, [r3, #24]
 8000526:	699a      	ldr	r2, [r3, #24]
 8000528:	f002 0201 	and.w	r2, r2, #1
 800052c:	9200      	str	r2, [sp, #0]
 800052e:	9a00      	ldr	r2, [sp, #0]
  __HAL_RCC_PWR_CLK_ENABLE();
 8000530:	69da      	ldr	r2, [r3, #28]
 8000532:	f042 5280 	orr.w	r2, r2, #268435456	; 0x10000000
 8000536:	61da      	str	r2, [r3, #28]
 8000538:	69db      	ldr	r3, [r3, #28]
 800053a:	f003 5380 	and.w	r3, r3, #268435456	; 0x10000000
 800053e:	9301      	str	r3, [sp, #4]
 8000540:	9b01      	ldr	r3, [sp, #4]
  __HAL_AFIO_REMAP_SWJ_NOJTAG();
 8000542:	684b      	ldr	r3, [r1, #4]
 8000544:	f023 63e0 	bic.w	r3, r3, #117440512	; 0x7000000
 8000548:	f043 7300 	orr.w	r3, r3, #33554432	; 0x2000000
 800054c:	604b      	str	r3, [r1, #4]

  /* USER CODE BEGIN MspInit 1 */

  /* USER CODE END MspInit 1 */
}
 800054e:	b002      	add	sp, #8
 8000550:	4770      	bx	lr
 8000552:	bf00      	nop
 8000554:	40021000 	.word	0x40021000
 8000558:	40010000 	.word	0x40010000

0800055c <NMI_Handler>:
{
  /* USER CODE BEGIN NonMaskableInt_IRQn 0 */

  /* USER CODE END NonMaskableInt_IRQn 0 */
  /* USER CODE BEGIN NonMaskableInt_IRQn 1 */
  while (1)
 800055c:	e7fe      	b.n	800055c <NMI_Handler>
 800055e:	bf00      	nop

08000560 <HardFault_Handler>:
void HardFault_Handler(void)
{
  /* USER CODE BEGIN HardFault_IRQn 0 */

  /* USER CODE END HardFault_IRQn 0 */
  while (1)
 8000560:	e7fe      	b.n	8000560 <HardFault_Handler>
 8000562:	bf00      	nop

08000564 <MemManage_Handler>:
void MemManage_Handler(void)
{
  /* USER CODE BEGIN MemoryManagement_IRQn 0 */

  /* USER CODE END MemoryManagement_IRQn 0 */
  while (1)
 8000564:	e7fe      	b.n	8000564 <MemManage_Handler>
 8000566:	bf00      	nop

08000568 <BusFault_Handler>:
void BusFault_Handler(void)
{
  /* USER CODE BEGIN BusFault_IRQn 0 */

  /* USER CODE END BusFault_IRQn 0 */
  while (1)
 8000568:	e7fe      	b.n	8000568 <BusFault_Handler>
 800056a:	bf00      	nop

0800056c <UsageFault_Handler>:
void UsageFault_Handler(void)
{
  /* USER CODE BEGIN UsageFault_IRQn 0 */

  /* USER CODE END UsageFault_IRQn 0 */
  while (1)
 800056c:	e7fe      	b.n	800056c <UsageFault_Handler>
 800056e:	bf00      	nop

08000570 <SVC_Handler>:

  /* USER CODE END SVCall_IRQn 0 */
  /* USER CODE BEGIN SVCall_IRQn 1 */

  /* USER CODE END SVCall_IRQn 1 */
}
 8000570:	4770      	bx	lr
 8000572:	bf00      	nop

08000574 <DebugMon_Handler>:
 8000574:	4770      	bx	lr
 8000576:	bf00      	nop

08000578 <PendSV_Handler>:
 8000578:	4770      	bx	lr
 800057a:	bf00      	nop

0800057c <SysTick_Handler>:
void SysTick_Handler(void)
{
  /* USER CODE BEGIN SysTick_IRQn 0 */

  /* USER CODE END SysTick_IRQn 0 */
  HAL_IncTick();
 800057c:	f000 bad4 	b.w	8000b28 <HAL_IncTick>

08000580 <DMA1_Channel6_IRQHandler>:
void DMA1_Channel6_IRQHandler(void)
{
  /* USER CODE BEGIN DMA1_Channel6_IRQn 0 */

  /* USER CODE END DMA1_Channel6_IRQn 0 */
  HAL_DMA_IRQHandler(&hdma_usart2_rx);
 8000580:	4801      	ldr	r0, [pc, #4]	; (8000588 <DMA1_Channel6_IRQHandler+0x8>)
 8000582:	f000 bc45 	b.w	8000e10 <HAL_DMA_IRQHandler>
 8000586:	bf00      	nop
 8000588:	2000015c 	.word	0x2000015c

0800058c <DMA1_Channel7_IRQHandler>:
void DMA1_Channel7_IRQHandler(void)
{
  /* USER CODE BEGIN DMA1_Channel7_IRQn 0 */

  /* USER CODE END DMA1_Channel7_IRQn 0 */
  HAL_DMA_IRQHandler(&hdma_usart2_tx);
 800058c:	4801      	ldr	r0, [pc, #4]	; (8000594 <DMA1_Channel7_IRQHandler+0x8>)
 800058e:	f000 bc3f 	b.w	8000e10 <HAL_DMA_IRQHandler>
 8000592:	bf00      	nop
 8000594:	200001e0 	.word	0x200001e0

08000598 <USART2_IRQHandler>:

/**
  * @brief This function handles USART2 global interrupt.
  */
void USART2_IRQHandler(void)
{
 8000598:	b510      	push	{r4, lr}
  /* USER CODE BEGIN USART2_IRQn 0 */

  /* USER CODE END USART2_IRQn 0 */
  HAL_UART_IRQHandler(&huart2);
 800059a:	4c07      	ldr	r4, [pc, #28]	; (80005b8 <USART2_IRQHandler+0x20>)
 800059c:	4620      	mov	r0, r4
 800059e:	f001 fc09 	bl	8001db4 <HAL_UART_IRQHandler>
  /* USER CODE BEGIN USART2_IRQn 1 */

  if(__HAL_UART_GET_FLAG(&huart2, UART_FLAG_IDLE))
 80005a2:	6823      	ldr	r3, [r4, #0]
 80005a4:	681b      	ldr	r3, [r3, #0]
 80005a6:	06db      	lsls	r3, r3, #27
 80005a8:	d400      	bmi.n	80005ac <USART2_IRQHandler+0x14>
	  HAL_UART_RxCpltCallback(&huart2);

  /* USER CODE END USART2_IRQn 1 */
}
 80005aa:	bd10      	pop	{r4, pc}
	  HAL_UART_RxCpltCallback(&huart2);
 80005ac:	4620      	mov	r0, r4
}
 80005ae:	e8bd 4010 	ldmia.w	sp!, {r4, lr}
	  HAL_UART_RxCpltCallback(&huart2);
 80005b2:	f7ff bf69 	b.w	8000488 <HAL_UART_RxCpltCallback>
 80005b6:	bf00      	nop
 80005b8:	20000224 	.word	0x20000224

080005bc <USART3_IRQHandler>:
void USART3_IRQHandler(void)
{
  /* USER CODE BEGIN USART3_IRQn 0 */

  /* USER CODE END USART3_IRQn 0 */
  HAL_UART_IRQHandler(&huart3);
 80005bc:	4801      	ldr	r0, [pc, #4]	; (80005c4 <USART3_IRQHandler+0x8>)
 80005be:	f001 bbf9 	b.w	8001db4 <HAL_UART_IRQHandler>
 80005c2:	bf00      	nop
 80005c4:	200001a0 	.word	0x200001a0

080005c8 <SystemInit>:

  /* Configure the Vector Table location -------------------------------------*/
#if defined(USER_VECT_TAB_ADDRESS)
  SCB->VTOR = VECT_TAB_BASE_ADDRESS | VECT_TAB_OFFSET; /* Vector Table Relocation in Internal SRAM. */
#endif /* USER_VECT_TAB_ADDRESS */
}
 80005c8:	4770      	bx	lr
 80005ca:	bf00      	nop

080005cc <MX_USART2_UART_Init>:
DMA_HandleTypeDef hdma_usart2_tx;

/* USART2 init function */

void MX_USART2_UART_Init(void)
{
 80005cc:	b510      	push	{r4, lr}
  /* USER CODE BEGIN USART2_Init 1 */

  /* USER CODE END USART2_Init 1 */
  huart2.Instance = USART2;
  huart2.Init.BaudRate = 115200;
  huart2.Init.WordLength = UART_WORDLENGTH_8B;
 80005ce:	2300      	movs	r3, #0
  huart2.Init.BaudRate = 115200;
 80005d0:	f44f 34e1 	mov.w	r4, #115200	; 0x1c200
  huart2.Init.StopBits = UART_STOPBITS_1;
  huart2.Init.Parity = UART_PARITY_NONE;
  huart2.Init.Mode = UART_MODE_TX_RX;
 80005d4:	220c      	movs	r2, #12
  huart2.Instance = USART2;
 80005d6:	4809      	ldr	r0, [pc, #36]	; (80005fc <MX_USART2_UART_Init+0x30>)
 80005d8:	4909      	ldr	r1, [pc, #36]	; (8000600 <MX_USART2_UART_Init+0x34>)
  huart2.Init.StopBits = UART_STOPBITS_1;
 80005da:	e9c0 3302 	strd	r3, r3, [r0, #8]
  huart2.Instance = USART2;
 80005de:	e9c0 1400 	strd	r1, r4, [r0]
  huart2.Init.HwFlowCtl = UART_HWCONTROL_NONE;
  huart2.Init.OverSampling = UART_OVERSAMPLING_16;
 80005e2:	e9c0 3306 	strd	r3, r3, [r0, #24]
  huart2.Init.Mode = UART_MODE_TX_RX;
 80005e6:	6142      	str	r2, [r0, #20]
  huart2.Init.Parity = UART_PARITY_NONE;
 80005e8:	6103      	str	r3, [r0, #16]
  if (HAL_UART_Init(&huart2) != HAL_OK)
 80005ea:	f001 fa29 	bl	8001a40 <HAL_UART_Init>
 80005ee:	b900      	cbnz	r0, 80005f2 <MX_USART2_UART_Init+0x26>
  }
  /* USER CODE BEGIN USART2_Init 2 */

  /* USER CODE END USART2_Init 2 */

}
 80005f0:	bd10      	pop	{r4, pc}
 80005f2:	e8bd 4010 	ldmia.w	sp!, {r4, lr}
    Error_Handler();
 80005f6:	f7ff bf8d 	b.w	8000514 <Error_Handler>
 80005fa:	bf00      	nop
 80005fc:	20000224 	.word	0x20000224
 8000600:	40004400 	.word	0x40004400

08000604 <MX_USART3_UART_Init>:
/* USART3 init function */

void MX_USART3_UART_Init(void)
{
 8000604:	b510      	push	{r4, lr}
  /* USER CODE BEGIN USART3_Init 1 */

  /* USER CODE END USART3_Init 1 */
  huart3.Instance = USART3;
  huart3.Init.BaudRate = 115200;
  huart3.Init.WordLength = UART_WORDLENGTH_8B;
 8000606:	2300      	movs	r3, #0
  huart3.Init.BaudRate = 115200;
 8000608:	f44f 34e1 	mov.w	r4, #115200	; 0x1c200
  huart3.Init.StopBits = UART_STOPBITS_1;
  huart3.Init.Parity = UART_PARITY_NONE;
  huart3.Init.Mode = UART_MODE_TX_RX;
 800060c:	220c      	movs	r2, #12
  huart3.Instance = USART3;
 800060e:	4809      	ldr	r0, [pc, #36]	; (8000634 <MX_USART3_UART_Init+0x30>)
 8000610:	4909      	ldr	r1, [pc, #36]	; (8000638 <MX_USART3_UART_Init+0x34>)
  huart3.Init.StopBits = UART_STOPBITS_1;
 8000612:	e9c0 3302 	strd	r3, r3, [r0, #8]
  huart3.Instance = USART3;
 8000616:	e9c0 1400 	strd	r1, r4, [r0]
  huart3.Init.HwFlowCtl = UART_HWCONTROL_NONE;
  huart3.Init.OverSampling = UART_OVERSAMPLING_16;
 800061a:	e9c0 3306 	strd	r3, r3, [r0, #24]
  huart3.Init.Mode = UART_MODE_TX_RX;
 800061e:	6142      	str	r2, [r0, #20]
  huart3.Init.Parity = UART_PARITY_NONE;
 8000620:	6103      	str	r3, [r0, #16]
  if (HAL_UART_Init(&huart3) != HAL_OK)
 8000622:	f001 fa0d 	bl	8001a40 <HAL_UART_Init>
 8000626:	b900      	cbnz	r0, 800062a <MX_USART3_UART_Init+0x26>
  }
  /* USER CODE BEGIN USART3_Init 2 */

  /* USER CODE END USART3_Init 2 */

}
 8000628:	bd10      	pop	{r4, pc}
 800062a:	e8bd 4010 	ldmia.w	sp!, {r4, lr}
    Error_Handler();
 800062e:	f7ff bf71 	b.w	8000514 <Error_Handler>
 8000632:	bf00      	nop
 8000634:	200001a0 	.word	0x200001a0
 8000638:	40004800 	.word	0x40004800

0800063c <HAL_UART_MspInit>:

void HAL_UART_MspInit(UART_HandleTypeDef* uartHandle)
{
 800063c:	b570      	push	{r4, r5, r6, lr}

  GPIO_InitTypeDef GPIO_InitStruct = {0};
 800063e:	2400      	movs	r4, #0
  if(uartHandle->Instance==USART2)
 8000640:	6803      	ldr	r3, [r0, #0]
 8000642:	4a4c      	ldr	r2, [pc, #304]	; (8000774 <HAL_UART_MspInit+0x138>)
{
 8000644:	b088      	sub	sp, #32
  if(uartHandle->Instance==USART2)
 8000646:	4293      	cmp	r3, r2
  GPIO_InitTypeDef GPIO_InitStruct = {0};
 8000648:	e9cd 4404 	strd	r4, r4, [sp, #16]
 800064c:	e9cd 4406 	strd	r4, r4, [sp, #24]
  if(uartHandle->Instance==USART2)
 8000650:	d004      	beq.n	800065c <HAL_UART_MspInit+0x20>
    HAL_NVIC_EnableIRQ(USART2_IRQn);
  /* USER CODE BEGIN USART2_MspInit 1 */

  /* USER CODE END USART2_MspInit 1 */
  }
  else if(uartHandle->Instance==USART3)
 8000652:	4a49      	ldr	r2, [pc, #292]	; (8000778 <HAL_UART_MspInit+0x13c>)
 8000654:	4293      	cmp	r3, r2
 8000656:	d055      	beq.n	8000704 <HAL_UART_MspInit+0xc8>
    HAL_NVIC_EnableIRQ(USART3_IRQn);
  /* USER CODE BEGIN USART3_MspInit 1 */

  /* USER CODE END USART3_MspInit 1 */
  }
}
 8000658:	b008      	add	sp, #32
 800065a:	bd70      	pop	{r4, r5, r6, pc}
    GPIO_InitStruct.Pin = GPIO_PIN_2;
 800065c:	2104      	movs	r1, #4
 800065e:	4605      	mov	r5, r0
    GPIO_InitStruct.Mode = GPIO_MODE_AF_PP;
 8000660:	2002      	movs	r0, #2
    GPIO_InitStruct.Speed = GPIO_SPEED_FREQ_HIGH;
 8000662:	2603      	movs	r6, #3
    __HAL_RCC_USART2_CLK_ENABLE();
 8000664:	4b45      	ldr	r3, [pc, #276]	; (800077c <HAL_UART_MspInit+0x140>)
 8000666:	69da      	ldr	r2, [r3, #28]
 8000668:	f442 3200 	orr.w	r2, r2, #131072	; 0x20000
 800066c:	61da      	str	r2, [r3, #28]
 800066e:	69da      	ldr	r2, [r3, #28]
 8000670:	f402 3200 	and.w	r2, r2, #131072	; 0x20000
 8000674:	9200      	str	r2, [sp, #0]
 8000676:	9a00      	ldr	r2, [sp, #0]
    __HAL_RCC_GPIOA_CLK_ENABLE();
 8000678:	699a      	ldr	r2, [r3, #24]
 800067a:	430a      	orrs	r2, r1
 800067c:	619a      	str	r2, [r3, #24]
 800067e:	699b      	ldr	r3, [r3, #24]
    GPIO_InitStruct.Pin = GPIO_PIN_2;
 8000680:	9104      	str	r1, [sp, #16]
    __HAL_RCC_GPIOA_CLK_ENABLE();
 8000682:	400b      	ands	r3, r1
 8000684:	9301      	str	r3, [sp, #4]
    HAL_GPIO_Init(GPIOA, &GPIO_InitStruct);
 8000686:	a904      	add	r1, sp, #16
    GPIO_InitStruct.Mode = GPIO_MODE_AF_PP;
 8000688:	9005      	str	r0, [sp, #20]
    HAL_GPIO_Init(GPIOA, &GPIO_InitStruct);
 800068a:	483d      	ldr	r0, [pc, #244]	; (8000780 <HAL_UART_MspInit+0x144>)
    __HAL_RCC_GPIOA_CLK_ENABLE();
 800068c:	9b01      	ldr	r3, [sp, #4]
    GPIO_InitStruct.Speed = GPIO_SPEED_FREQ_HIGH;
 800068e:	9607      	str	r6, [sp, #28]
    HAL_GPIO_Init(GPIOA, &GPIO_InitStruct);
 8000690:	f000 fc52 	bl	8000f38 <HAL_GPIO_Init>
    GPIO_InitStruct.Pin = GPIO_PIN_3;
 8000694:	2308      	movs	r3, #8
    HAL_GPIO_Init(GPIOA, &GPIO_InitStruct);
 8000696:	483a      	ldr	r0, [pc, #232]	; (8000780 <HAL_UART_MspInit+0x144>)
 8000698:	a904      	add	r1, sp, #16
    GPIO_InitStruct.Pin = GPIO_PIN_3;
 800069a:	9304      	str	r3, [sp, #16]
    GPIO_InitStruct.Pull = GPIO_NOPULL;
 800069c:	e9cd 4405 	strd	r4, r4, [sp, #20]
    HAL_GPIO_Init(GPIOA, &GPIO_InitStruct);
 80006a0:	f000 fc4a 	bl	8000f38 <HAL_GPIO_Init>
    hdma_usart2_rx.Init.MemInc = DMA_MINC_ENABLE;
 80006a4:	2280      	movs	r2, #128	; 0x80
    hdma_usart2_rx.Instance = DMA1_Channel6;
 80006a6:	4e37      	ldr	r6, [pc, #220]	; (8000784 <HAL_UART_MspInit+0x148>)
 80006a8:	4b37      	ldr	r3, [pc, #220]	; (8000788 <HAL_UART_MspInit+0x14c>)
    if (HAL_DMA_Init(&hdma_usart2_rx) != HAL_OK)
 80006aa:	4630      	mov	r0, r6
    hdma_usart2_rx.Init.PeriphInc = DMA_PINC_DISABLE;
 80006ac:	e9c6 4401 	strd	r4, r4, [r6, #4]
    hdma_usart2_rx.Init.MemDataAlignment = DMA_MDATAALIGN_BYTE;
 80006b0:	e9c6 4404 	strd	r4, r4, [r6, #16]
    hdma_usart2_rx.Init.Priority = DMA_PRIORITY_LOW;
 80006b4:	e9c6 4406 	strd	r4, r4, [r6, #24]
    hdma_usart2_rx.Init.MemInc = DMA_MINC_ENABLE;
 80006b8:	60f2      	str	r2, [r6, #12]
    hdma_usart2_rx.Instance = DMA1_Channel6;
 80006ba:	6033      	str	r3, [r6, #0]
    if (HAL_DMA_Init(&hdma_usart2_rx) != HAL_OK)
 80006bc:	f000 fac8 	bl	8000c50 <HAL_DMA_Init>
 80006c0:	2800      	cmp	r0, #0
 80006c2:	d153      	bne.n	800076c <HAL_UART_MspInit+0x130>
    hdma_usart2_tx.Init.Direction = DMA_MEMORY_TO_PERIPH;
 80006c4:	2010      	movs	r0, #16
    hdma_usart2_tx.Init.PeriphInc = DMA_PINC_DISABLE;
 80006c6:	2300      	movs	r3, #0
    hdma_usart2_tx.Init.MemInc = DMA_MINC_ENABLE;
 80006c8:	2280      	movs	r2, #128	; 0x80
    hdma_usart2_tx.Instance = DMA1_Channel7;
 80006ca:	4c30      	ldr	r4, [pc, #192]	; (800078c <HAL_UART_MspInit+0x150>)
 80006cc:	4930      	ldr	r1, [pc, #192]	; (8000790 <HAL_UART_MspInit+0x154>)
    hdma_usart2_tx.Init.Direction = DMA_MEMORY_TO_PERIPH;
 80006ce:	6060      	str	r0, [r4, #4]
    __HAL_LINKDMA(uartHandle,hdmarx,hdma_usart2_rx);
 80006d0:	636e      	str	r6, [r5, #52]	; 0x34
    if (HAL_DMA_Init(&hdma_usart2_tx) != HAL_OK)
 80006d2:	4620      	mov	r0, r4
    hdma_usart2_tx.Init.PeriphInc = DMA_PINC_DISABLE;
 80006d4:	e9c4 3202 	strd	r3, r2, [r4, #8]
    hdma_usart2_tx.Init.MemDataAlignment = DMA_MDATAALIGN_BYTE;
 80006d8:	e9c4 3304 	strd	r3, r3, [r4, #16]
    hdma_usart2_tx.Init.Priority = DMA_PRIORITY_LOW;
 80006dc:	e9c4 3306 	strd	r3, r3, [r4, #24]
    __HAL_LINKDMA(uartHandle,hdmarx,hdma_usart2_rx);
 80006e0:	6275      	str	r5, [r6, #36]	; 0x24
    hdma_usart2_tx.Instance = DMA1_Channel7;
 80006e2:	6021      	str	r1, [r4, #0]
    if (HAL_DMA_Init(&hdma_usart2_tx) != HAL_OK)
 80006e4:	f000 fab4 	bl	8000c50 <HAL_DMA_Init>
 80006e8:	2800      	cmp	r0, #0
 80006ea:	d13c      	bne.n	8000766 <HAL_UART_MspInit+0x12a>
    HAL_NVIC_SetPriority(USART2_IRQn, 0, 0);
 80006ec:	2200      	movs	r2, #0
 80006ee:	2026      	movs	r0, #38	; 0x26
 80006f0:	4611      	mov	r1, r2
    __HAL_LINKDMA(uartHandle,hdmatx,hdma_usart2_tx);
 80006f2:	632c      	str	r4, [r5, #48]	; 0x30
 80006f4:	6265      	str	r5, [r4, #36]	; 0x24
    HAL_NVIC_SetPriority(USART2_IRQn, 0, 0);
 80006f6:	f000 fa4d 	bl	8000b94 <HAL_NVIC_SetPriority>
    HAL_NVIC_EnableIRQ(USART2_IRQn);
 80006fa:	2026      	movs	r0, #38	; 0x26
 80006fc:	f000 fa82 	bl	8000c04 <HAL_NVIC_EnableIRQ>
}
 8000700:	b008      	add	sp, #32
 8000702:	bd70      	pop	{r4, r5, r6, pc}
    GPIO_InitStruct.Pin = GPIO_PIN_10;
 8000704:	f44f 6180 	mov.w	r1, #1024	; 0x400
    GPIO_InitStruct.Mode = GPIO_MODE_AF_PP;
 8000708:	2602      	movs	r6, #2
    GPIO_InitStruct.Speed = GPIO_SPEED_FREQ_HIGH;
 800070a:	2503      	movs	r5, #3
    __HAL_RCC_USART3_CLK_ENABLE();
 800070c:	4b1b      	ldr	r3, [pc, #108]	; (800077c <HAL_UART_MspInit+0x140>)
    HAL_GPIO_Init(GPIOB, &GPIO_InitStruct);
 800070e:	4821      	ldr	r0, [pc, #132]	; (8000794 <HAL_UART_MspInit+0x158>)
    __HAL_RCC_USART3_CLK_ENABLE();
 8000710:	69da      	ldr	r2, [r3, #28]
 8000712:	f442 2280 	orr.w	r2, r2, #262144	; 0x40000
 8000716:	61da      	str	r2, [r3, #28]
 8000718:	69da      	ldr	r2, [r3, #28]
 800071a:	f402 2280 	and.w	r2, r2, #262144	; 0x40000
 800071e:	9202      	str	r2, [sp, #8]
 8000720:	9a02      	ldr	r2, [sp, #8]
    __HAL_RCC_GPIOB_CLK_ENABLE();
 8000722:	699a      	ldr	r2, [r3, #24]
 8000724:	f042 0208 	orr.w	r2, r2, #8
 8000728:	619a      	str	r2, [r3, #24]
 800072a:	699b      	ldr	r3, [r3, #24]
    GPIO_InitStruct.Pin = GPIO_PIN_10;
 800072c:	9104      	str	r1, [sp, #16]
    __HAL_RCC_GPIOB_CLK_ENABLE();
 800072e:	f003 0308 	and.w	r3, r3, #8
 8000732:	9303      	str	r3, [sp, #12]
    HAL_GPIO_Init(GPIOB, &GPIO_InitStruct);
 8000734:	a904      	add	r1, sp, #16
    __HAL_RCC_GPIOB_CLK_ENABLE();
 8000736:	9b03      	ldr	r3, [sp, #12]
    GPIO_InitStruct.Mode = GPIO_MODE_AF_PP;
 8000738:	9605      	str	r6, [sp, #20]
    GPIO_InitStruct.Speed = GPIO_SPEED_FREQ_HIGH;
 800073a:	9507      	str	r5, [sp, #28]
    HAL_GPIO_Init(GPIOB, &GPIO_InitStruct);
 800073c:	f000 fbfc 	bl	8000f38 <HAL_GPIO_Init>
    GPIO_InitStruct.Pin = GPIO_PIN_11;
 8000740:	f44f 6300 	mov.w	r3, #2048	; 0x800
    HAL_GPIO_Init(GPIOB, &GPIO_InitStruct);
 8000744:	a904      	add	r1, sp, #16
 8000746:	4813      	ldr	r0, [pc, #76]	; (8000794 <HAL_UART_MspInit+0x158>)
    GPIO_InitStruct.Pin = GPIO_PIN_11;
 8000748:	9304      	str	r3, [sp, #16]
    GPIO_InitStruct.Pull = GPIO_NOPULL;
 800074a:	e9cd 4405 	strd	r4, r4, [sp, #20]
    HAL_GPIO_Init(GPIOB, &GPIO_InitStruct);
 800074e:	f000 fbf3 	bl	8000f38 <HAL_GPIO_Init>
    HAL_NVIC_SetPriority(USART3_IRQn, 0, 0);
 8000752:	4622      	mov	r2, r4
 8000754:	4621      	mov	r1, r4
 8000756:	2027      	movs	r0, #39	; 0x27
 8000758:	f000 fa1c 	bl	8000b94 <HAL_NVIC_SetPriority>
    HAL_NVIC_EnableIRQ(USART3_IRQn);
 800075c:	2027      	movs	r0, #39	; 0x27
 800075e:	f000 fa51 	bl	8000c04 <HAL_NVIC_EnableIRQ>
}
 8000762:	b008      	add	sp, #32
 8000764:	bd70      	pop	{r4, r5, r6, pc}
      Error_Handler();
 8000766:	f7ff fed5 	bl	8000514 <Error_Handler>
 800076a:	e7bf      	b.n	80006ec <HAL_UART_MspInit+0xb0>
      Error_Handler();
 800076c:	f7ff fed2 	bl	8000514 <Error_Handler>
 8000770:	e7a8      	b.n	80006c4 <HAL_UART_MspInit+0x88>
 8000772:	bf00      	nop
 8000774:	40004400 	.word	0x40004400
 8000778:	40004800 	.word	0x40004800
 800077c:	40021000 	.word	0x40021000
 8000780:	40010800 	.word	0x40010800
 8000784:	2000015c 	.word	0x2000015c
 8000788:	4002006c 	.word	0x4002006c
 800078c:	200001e0 	.word	0x200001e0
 8000790:	40020080 	.word	0x40020080
 8000794:	40010c00 	.word	0x40010c00

08000798 <MX_USB_PCD_Init>:
PCD_HandleTypeDef hpcd_USB_FS;

/* USB init function */

void MX_USB_PCD_Init(void)
{
 8000798:	b510      	push	{r4, lr}

  /* USER CODE END USB_Init 1 */
  hpcd_USB_FS.Instance = USB;
  hpcd_USB_FS.Init.dev_endpoints = 8;
  hpcd_USB_FS.Init.speed = PCD_SPEED_FULL;
  hpcd_USB_FS.Init.low_power_enable = DISABLE;
 800079a:	2300      	movs	r3, #0
  hpcd_USB_FS.Init.dev_endpoints = 8;
 800079c:	2408      	movs	r4, #8
  hpcd_USB_FS.Init.speed = PCD_SPEED_FULL;
 800079e:	2202      	movs	r2, #2
  hpcd_USB_FS.Instance = USB;
 80007a0:	4807      	ldr	r0, [pc, #28]	; (80007c0 <MX_USB_PCD_Init+0x28>)
 80007a2:	4908      	ldr	r1, [pc, #32]	; (80007c4 <MX_USB_PCD_Init+0x2c>)
  hpcd_USB_FS.Init.lpm_enable = DISABLE;
 80007a4:	e9c0 3306 	strd	r3, r3, [r0, #24]
  hpcd_USB_FS.Instance = USB;
 80007a8:	e9c0 1400 	strd	r1, r4, [r0]
  hpcd_USB_FS.Init.speed = PCD_SPEED_FULL;
 80007ac:	6082      	str	r2, [r0, #8]
  hpcd_USB_FS.Init.battery_charging_enable = DISABLE;
 80007ae:	6203      	str	r3, [r0, #32]
  if (HAL_PCD_Init(&hpcd_USB_FS) != HAL_OK)
 80007b0:	f000 fce6 	bl	8001180 <HAL_PCD_Init>
 80007b4:	b900      	cbnz	r0, 80007b8 <MX_USB_PCD_Init+0x20>
  }
  /* USER CODE BEGIN USB_Init 2 */

  /* USER CODE END USB_Init 2 */

}
 80007b6:	bd10      	pop	{r4, pc}
 80007b8:	e8bd 4010 	ldmia.w	sp!, {r4, lr}
    Error_Handler();
 80007bc:	f7ff beaa 	b.w	8000514 <Error_Handler>
 80007c0:	20000264 	.word	0x20000264
 80007c4:	40005c00 	.word	0x40005c00

080007c8 <HAL_PCD_MspInit>:

void HAL_PCD_MspInit(PCD_HandleTypeDef* pcdHandle)
{

  if(pcdHandle->Instance==USB)
 80007c8:	4b09      	ldr	r3, [pc, #36]	; (80007f0 <HAL_PCD_MspInit+0x28>)
 80007ca:	6802      	ldr	r2, [r0, #0]
 80007cc:	429a      	cmp	r2, r3
 80007ce:	d000      	beq.n	80007d2 <HAL_PCD_MspInit+0xa>
 80007d0:	4770      	bx	lr
  {
  /* USER CODE BEGIN USB_MspInit 0 */

  /* USER CODE END USB_MspInit 0 */
    /* USB clock enable */
    __HAL_RCC_USB_CLK_ENABLE();
 80007d2:	f503 33da 	add.w	r3, r3, #111616	; 0x1b400
 80007d6:	69da      	ldr	r2, [r3, #28]
{
 80007d8:	b082      	sub	sp, #8
    __HAL_RCC_USB_CLK_ENABLE();
 80007da:	f442 0200 	orr.w	r2, r2, #8388608	; 0x800000
 80007de:	61da      	str	r2, [r3, #28]
 80007e0:	69db      	ldr	r3, [r3, #28]
 80007e2:	f403 0300 	and.w	r3, r3, #8388608	; 0x800000
 80007e6:	9301      	str	r3, [sp, #4]
 80007e8:	9b01      	ldr	r3, [sp, #4]
  /* USER CODE BEGIN USB_MspInit 1 */

  /* USER CODE END USB_MspInit 1 */
  }
}
 80007ea:	b002      	add	sp, #8
 80007ec:	4770      	bx	lr
 80007ee:	bf00      	nop
 80007f0:	40005c00 	.word	0x40005c00

080007f4 <xbee_init>:
	options[6] = OPTIONS;
}

//Zamiana adresu na tablice
//Ogólna inicjalizacja xbee
void xbee_init(Xbee *sensor, uint64_t address, UART_HandleTypeDef *uart){
 80007f4:	b4f0      	push	{r4, r5, r6, r7}
	options[1] = FRAME_TYPE;
 80007f6:	2410      	movs	r4, #16
	options[2] = FRAME_ID ;
 80007f8:	2100      	movs	r1, #0
	options[3] = BT_1;
 80007fa:	26ff      	movs	r6, #255	; 0xff
	options[0] = START_BYTE;
 80007fc:	f04f 0c7e 	mov.w	ip, #126	; 0x7e
	options[4] = BT_2;
 8000800:	25fe      	movs	r5, #254	; 0xfe
void xbee_init(Xbee *sensor, uint64_t address, UART_HandleTypeDef *uart){
 8000802:	b082      	sub	sp, #8
 8000804:	9f06      	ldr	r7, [sp, #24]
	options[1] = FRAME_TYPE;
 8000806:	7044      	strb	r4, [r0, #1]
 8000808:	7f04      	ldrb	r4, [r0, #28]
	options[3] = BT_1;
 800080a:	70c6      	strb	r6, [r0, #3]
	options[2] = FRAME_ID ;
 800080c:	7081      	strb	r1, [r0, #2]
	options[5] = BORDCAST_RADIUS;
 800080e:	7141      	strb	r1, [r0, #5]
	options[6] = OPTIONS;
 8000810:	7181      	strb	r1, [r0, #6]
	options[0] = START_BYTE;
 8000812:	f880 c000 	strb.w	ip, [r0]
	  uint8_t temp[8]; //tablica do wczytania oryginalego adresu;
	  int i, j;

	 sensor->huart = uart;
 8000816:	6207      	str	r7, [r0, #32]
	options[4] = BT_2;
 8000818:	7105      	strb	r5, [r0, #4]
 800081a:	f10d 31ff 	add.w	r1, sp, #4294967295
 800081e:	f10d 0607 	add.w	r6, sp, #7
	  xbee_options_init(sensor->options); //Inicjalizacja opcji, raz wystarczy


	  //to idzie jeszcze poprawic do jednej petli
	  for(i=0; i<8; i++){
		  temp[i] = address;
 8000822:	b2d5      	uxtb	r5, r2
 8000824:	f801 5f01 	strb.w	r5, [r1, #1]!
		  sensor->checksum += temp[i];
 8000828:	442c      	add	r4, r5

		  address /= 0x100;
 800082a:	0a12      	lsrs	r2, r2, #8
	  for(i=0; i<8; i++){
 800082c:	42b1      	cmp	r1, r6
		  address /= 0x100;
 800082e:	ea42 6203 	orr.w	r2, r2, r3, lsl #24
		  sensor->checksum += temp[i];
 8000832:	b2e4      	uxtb	r4, r4
		  address /= 0x100;
 8000834:	ea4f 2313 	mov.w	r3, r3, lsr #8
	  for(i=0; i<8; i++){
 8000838:	d1f3      	bne.n	8000822 <xbee_init+0x2e>
 800083a:	7704      	strb	r4, [r0, #28]
 800083c:	f100 0309 	add.w	r3, r0, #9
 8000840:	3011      	adds	r0, #17
	  }

	  //Wpisanie adresu do tablicy dynamicznej
	  for(i=7, j=0; i>=0; i--, j++){
		  sensor->address[j] = temp[i];
 8000842:	f811 2901 	ldrb.w	r2, [r1], #-1
 8000846:	f803 2b01 	strb.w	r2, [r3], #1
	  for(i=7, j=0; i>=0; i--, j++){
 800084a:	4283      	cmp	r3, r0
 800084c:	d1f9      	bne.n	8000842 <xbee_init+0x4e>
	  }
}
 800084e:	b002      	add	sp, #8
 8000850:	bcf0      	pop	{r4, r5, r6, r7}
 8000852:	4770      	bx	lr

08000854 <xbee_send>:
	sensor->checksum = 0xff - sensor->checksum;

}

//Czy tutaj tworzyc tablice z cala wiadomoscia i wysłać całę odrazu
void xbee_send(Xbee *sensor){
 8000854:	b5f8      	push	{r3, r4, r5, r6, r7, lr}
 8000856:	4604      	mov	r4, r0
	int i;

		//wyslanie znaku start
		HAL_UART_Transmit(sensor->huart, &sensor->options[0], 1, 100);
 8000858:	4601      	mov	r1, r0
 800085a:	2364      	movs	r3, #100	; 0x64
 800085c:	2201      	movs	r2, #1
 800085e:	6a00      	ldr	r0, [r0, #32]

		//wyslanie dlugosci
		for(i=0; i<2; i++){
			HAL_UART_Transmit(sensor->huart, &sensor->length[i], 1, 100);
 8000860:	1de7      	adds	r7, r4, #7
		HAL_UART_Transmit(sensor->huart, &sensor->options[0], 1, 100);
 8000862:	f001 f91d 	bl	8001aa0 <HAL_UART_Transmit>
			HAL_UART_Transmit(sensor->huart, &sensor->length[i], 1, 100);
 8000866:	4639      	mov	r1, r7
 8000868:	2364      	movs	r3, #100	; 0x64
 800086a:	2201      	movs	r2, #1
 800086c:	6a20      	ldr	r0, [r4, #32]
 800086e:	f001 f917 	bl	8001aa0 <HAL_UART_Transmit>
 8000872:	2364      	movs	r3, #100	; 0x64
 8000874:	2201      	movs	r2, #1
 8000876:	f104 0108 	add.w	r1, r4, #8
 800087a:	6a20      	ldr	r0, [r4, #32]
 800087c:	f001 f910 	bl	8001aa0 <HAL_UART_Transmit>
		}

		//wyslanie danych klatki
		HAL_UART_Transmit(sensor->huart, &sensor->options[1], 1, 100);
 8000880:	2364      	movs	r3, #100	; 0x64
 8000882:	2201      	movs	r2, #1
 8000884:	1c61      	adds	r1, r4, #1
 8000886:	6a20      	ldr	r0, [r4, #32]
 8000888:	f001 f90a 	bl	8001aa0 <HAL_UART_Transmit>
		HAL_UART_Transmit(sensor->huart, &sensor->options[2], 1, 100);
 800088c:	2364      	movs	r3, #100	; 0x64
 800088e:	2201      	movs	r2, #1
 8000890:	6a20      	ldr	r0, [r4, #32]
 8000892:	1ca1      	adds	r1, r4, #2
 8000894:	f001 f904 	bl	8001aa0 <HAL_UART_Transmit>

		//Wyslanie adresu
		for(i=0; i<8; i++){
 8000898:	f104 0509 	add.w	r5, r4, #9
 800089c:	f104 0611 	add.w	r6, r4, #17
			HAL_UART_Transmit(sensor->huart, &sensor->address[i], 1, 100);
 80008a0:	2201      	movs	r2, #1
 80008a2:	4629      	mov	r1, r5
 80008a4:	2364      	movs	r3, #100	; 0x64
 80008a6:	4415      	add	r5, r2
 80008a8:	6a20      	ldr	r0, [r4, #32]
 80008aa:	f001 f8f9 	bl	8001aa0 <HAL_UART_Transmit>
		for(i=0; i<8; i++){
 80008ae:	42b5      	cmp	r5, r6
 80008b0:	d1f6      	bne.n	80008a0 <xbee_send+0x4c>
 80008b2:	1ce5      	adds	r5, r4, #3
		}

		//wyslanie reszty opcji
		for(i=3; i<7; i++){
			HAL_UART_Transmit(sensor->huart, &sensor->options[i], 1, 100);
 80008b4:	2201      	movs	r2, #1
 80008b6:	4629      	mov	r1, r5
 80008b8:	2364      	movs	r3, #100	; 0x64
 80008ba:	4415      	add	r5, r2
 80008bc:	6a20      	ldr	r0, [r4, #32]
 80008be:	f001 f8ef 	bl	8001aa0 <HAL_UART_Transmit>
		for(i=3; i<7; i++){
 80008c2:	42bd      	cmp	r5, r7
 80008c4:	d1f6      	bne.n	80008b4 <xbee_send+0x60>
		}

		//wyslanie danych
		for(i=0; i<sensor->data_length; i++){
 80008c6:	69a3      	ldr	r3, [r4, #24]
 80008c8:	2b00      	cmp	r3, #0
 80008ca:	dd0b      	ble.n	80008e4 <xbee_send+0x90>
 80008cc:	2500      	movs	r5, #0
			HAL_UART_Transmit(sensor->huart, (uint8_t *) &sensor->data[i], 1, 100);
 80008ce:	6961      	ldr	r1, [r4, #20]
 80008d0:	2364      	movs	r3, #100	; 0x64
 80008d2:	4429      	add	r1, r5
 80008d4:	2201      	movs	r2, #1
 80008d6:	6a20      	ldr	r0, [r4, #32]
 80008d8:	f001 f8e2 	bl	8001aa0 <HAL_UART_Transmit>
		for(i=0; i<sensor->data_length; i++){
 80008dc:	69a3      	ldr	r3, [r4, #24]
 80008de:	3501      	adds	r5, #1
 80008e0:	42ab      	cmp	r3, r5
 80008e2:	dcf4      	bgt.n	80008ce <xbee_send+0x7a>
		}

		//wyslanie checksumy
		HAL_UART_Transmit(sensor->huart, &sensor->checksum, 1, 100);
 80008e4:	2364      	movs	r3, #100	; 0x64
 80008e6:	6a20      	ldr	r0, [r4, #32]
 80008e8:	f104 011c 	add.w	r1, r4, #28
 80008ec:	2201      	movs	r2, #1
 80008ee:	f001 f8d7 	bl	8001aa0 <HAL_UART_Transmit>


		//Czyszczenie pamięci
		free(sensor->data);
 80008f2:	6960      	ldr	r0, [r4, #20]
}
 80008f4:	e8bd 40f8 	ldmia.w	sp!, {r3, r4, r5, r6, r7, lr}
		free(sensor->data);
 80008f8:	f001 bb76 	b.w	8001fe8 <free>

080008fc <xbee_char_load>:
	xbee_checksum_count(&sensor);
	xbee_send(&sensor);
}

//wczytanie podanych danych do struktury
void xbee_char_load(char *data, Xbee *sensor){
 80008fc:	b570      	push	{r4, r5, r6, lr}
 80008fe:	460d      	mov	r5, r1
 8000900:	4604      	mov	r4, r0
	sensor->data_length = strlen(data); //strlen niby powinien zadziałać bez
 8000902:	f7ff fc25 	bl	8000150 <strlen>
 8000906:	61a8      	str	r0, [r5, #24]
 8000908:	4606      	mov	r6, r0
	sensor->data = (uint8_t*)malloc(sensor->data_length * sizeof(uint8_t));//
 800090a:	f001 fb65 	bl	8001fd8 <malloc>
 800090e:	6168      	str	r0, [r5, #20]

	for(int i=0; i<sensor->data_length; ++i){
 8000910:	b156      	cbz	r6, 8000928 <xbee_char_load+0x2c>
 8000912:	2300      	movs	r3, #0
 8000914:	1e62      	subs	r2, r4, #1
 8000916:	e000      	b.n	800091a <xbee_char_load+0x1e>
 8000918:	6968      	ldr	r0, [r5, #20]
		sensor->data[i] = data[i];
 800091a:	f812 1f01 	ldrb.w	r1, [r2, #1]!
 800091e:	54c1      	strb	r1, [r0, r3]
	for(int i=0; i<sensor->data_length; ++i){
 8000920:	69a9      	ldr	r1, [r5, #24]
 8000922:	3301      	adds	r3, #1
 8000924:	4299      	cmp	r1, r3
 8000926:	dcf7      	bgt.n	8000918 <xbee_char_load+0x1c>
	}
}
 8000928:	bd70      	pop	{r4, r5, r6, pc}
 800092a:	bf00      	nop

0800092c <xbee_transmit_char>:
void xbee_transmit_char(Xbee sensor, char *data){
 800092c:	b084      	sub	sp, #16
 800092e:	b510      	push	{r4, lr}
 8000930:	ac02      	add	r4, sp, #8
 8000932:	e884 000f 	stmia.w	r4, {r0, r1, r2, r3}
	xbee_char_load(data, &sensor);
 8000936:	4621      	mov	r1, r4
 8000938:	980b      	ldr	r0, [sp, #44]	; 0x2c
 800093a:	f7ff ffdf 	bl	80008fc <xbee_char_load>
	l = 14 + sensor->data_length;
 800093e:	9808      	ldr	r0, [sp, #32]
	sensor->length[0] = l/100;
 8000940:	4b18      	ldr	r3, [pc, #96]	; (80009a4 <xbee_transmit_char+0x78>)
	l = 14 + sensor->data_length;
 8000942:	f100 040e 	add.w	r4, r0, #14
	sensor->length[0] = l/100;
 8000946:	fb83 1304 	smull	r1, r3, r3, r4
 800094a:	17e1      	asrs	r1, r4, #31
 800094c:	ebc1 1163 	rsb	r1, r1, r3, asr #5
 8000950:	f89d 3024 	ldrb.w	r3, [sp, #36]	; 0x24
	sensor->length[1] = l;
 8000954:	f88d 4010 	strb.w	r4, [sp, #16]
 8000958:	aa02      	add	r2, sp, #8
	sensor->length[0] = l/100;
 800095a:	f88d 100f 	strb.w	r1, [sp, #15]
	for(i=1; i<7; i++){
 800095e:	f10d 040e 	add.w	r4, sp, #14
		sensor->checksum += sensor->options[i];
 8000962:	f812 1f01 	ldrb.w	r1, [r2, #1]!
 8000966:	440b      	add	r3, r1
	for(i=1; i<7; i++){
 8000968:	42a2      	cmp	r2, r4
		sensor->checksum += sensor->options[i];
 800096a:	b2db      	uxtb	r3, r3
	for(i=1; i<7; i++){
 800096c:	d1f9      	bne.n	8000962 <xbee_transmit_char+0x36>
	for(i=0; i<sensor->data_length; i++){
 800096e:	2800      	cmp	r0, #0
 8000970:	f88d 3024 	strb.w	r3, [sp, #36]	; 0x24
 8000974:	dd0b      	ble.n	800098e <xbee_transmit_char+0x62>
		sensor->checksum += sensor->data[i];
 8000976:	9a07      	ldr	r2, [sp, #28]
 8000978:	4410      	add	r0, r2
 800097a:	3801      	subs	r0, #1
 800097c:	3a01      	subs	r2, #1
 800097e:	f812 1f01 	ldrb.w	r1, [r2, #1]!
 8000982:	440b      	add	r3, r1
 8000984:	b2db      	uxtb	r3, r3
	for(i=0; i<sensor->data_length; i++){
 8000986:	4282      	cmp	r2, r0
		sensor->checksum += sensor->data[i];
 8000988:	f88d 3024 	strb.w	r3, [sp, #36]	; 0x24
	for(i=0; i<sensor->data_length; i++){
 800098c:	d1f7      	bne.n	800097e <xbee_transmit_char+0x52>
	sensor->checksum = 0xff - sensor->checksum;
 800098e:	43db      	mvns	r3, r3
	xbee_send(&sensor);
 8000990:	a802      	add	r0, sp, #8
	sensor->checksum = 0xff - sensor->checksum;
 8000992:	f88d 3024 	strb.w	r3, [sp, #36]	; 0x24
	xbee_send(&sensor);
 8000996:	f7ff ff5d 	bl	8000854 <xbee_send>
}
 800099a:	e8bd 4010 	ldmia.w	sp!, {r4, lr}
 800099e:	b004      	add	sp, #16
 80009a0:	4770      	bx	lr
 80009a2:	bf00      	nop
 80009a4:	51eb851f 	.word	0x51eb851f

080009a8 <xbee_receive>:
}

//Zerowanie tablic
inline void xbee_clear_array(char *array, int length){
	for(int i=0; i<length; i++){
		array[i] = 0;
 80009a8:	2200      	movs	r2, #0
    return result;
}


///zastanowić się jak sensownie zwracać dane
void xbee_receive(){
 80009aa:	b470      	push	{r4, r5, r6}
 80009ac:	4b2c      	ldr	r3, [pc, #176]	; (8000a60 <xbee_receive+0xb8>)
 80009ae:	f1a3 0035 	sub.w	r0, r3, #53	; 0x35
 80009b2:	f103 011e 	add.w	r1, r3, #30
		array[i] = 0;
 80009b6:	f803 2f01 	strb.w	r2, [r3, #1]!
	for(int i=0; i<length; i++){
 80009ba:	428b      	cmp	r3, r1
 80009bc:	d1fb      	bne.n	80009b6 <xbee_receive+0xe>
	xbee_clear_array(xbee_rx.data_array, DATA_ARRAY);
	xbee_rx.data_flag = 0;
	//ogarnięcie długości
	xbee_rx.length = (xbee_rx.mess_loaded[1] << 8) + xbee_rx.mess_loaded[2];
 80009be:	7943      	ldrb	r3, [r0, #5]
 80009c0:	7985      	ldrb	r5, [r0, #6]
	xbee_rx.data_flag = 0;
 80009c2:	f880 2054 	strb.w	r2, [r0, #84]	; 0x54
	xbee_rx.length = (xbee_rx.mess_loaded[1] << 8) + xbee_rx.mess_loaded[2];
 80009c6:	eb05 2503 	add.w	r5, r5, r3, lsl #8
 80009ca:	6005      	str	r5, [r0, #0]
	//długość całej tablicy
	int mess_length = xbee_rx.length + 3; //3 bo dodajemy 4 elementy ale musimy odjąć jeden bo tablice sa numerowane od 0
 80009cc:	1cee      	adds	r6, r5, #3


	//sprawdzenie checksum
	for(int i=3; i<mess_length; i++){
 80009ce:	2d00      	cmp	r5, #0
 80009d0:	d042      	beq.n	8000a58 <xbee_receive+0xb0>
 80009d2:	1d84      	adds	r4, r0, #6
 80009d4:	f890 3055 	ldrb.w	r3, [r0, #85]	; 0x55
 80009d8:	4a22      	ldr	r2, [pc, #136]	; (8000a64 <xbee_receive+0xbc>)
 80009da:	442c      	add	r4, r5
		xbee_rx.checksum += xbee_rx.mess_loaded[i];
 80009dc:	f812 1f01 	ldrb.w	r1, [r2, #1]!
 80009e0:	440b      	add	r3, r1
	for(int i=3; i<mess_length; i++){
 80009e2:	42a2      	cmp	r2, r4
		xbee_rx.checksum += xbee_rx.mess_loaded[i];
 80009e4:	b2db      	uxtb	r3, r3
	for(int i=3; i<mess_length; i++){
 80009e6:	d1f9      	bne.n	80009dc <xbee_receive+0x34>
	}
	xbee_rx.checksum = 0xff - xbee_rx.checksum;
 80009e8:	43db      	mvns	r3, r3
	//sprawdzenie czy checksum sie zgadza
	if(xbee_rx.checksum != xbee_rx.mess_loaded[mess_length]){
 80009ea:	1982      	adds	r2, r0, r6
 80009ec:	7912      	ldrb	r2, [r2, #4]
	xbee_rx.checksum = 0xff - xbee_rx.checksum;
 80009ee:	b2db      	uxtb	r3, r3
	if(xbee_rx.checksum != xbee_rx.mess_loaded[mess_length]){
 80009f0:	429a      	cmp	r2, r3
	xbee_rx.checksum = 0xff - xbee_rx.checksum;
 80009f2:	f880 3055 	strb.w	r3, [r0, #85]	; 0x55
	if(xbee_rx.checksum != xbee_rx.mess_loaded[mess_length]){
 80009f6:	d00d      	beq.n	8000a14 <xbee_receive+0x6c>
		array[i] = 0;
 80009f8:	2100      	movs	r1, #0
 80009fa:	4b1b      	ldr	r3, [pc, #108]	; (8000a68 <xbee_receive+0xc0>)
 80009fc:	f100 0235 	add.w	r2, r0, #53	; 0x35
 8000a00:	f803 1f01 	strb.w	r1, [r3, #1]!
	for(int i=0; i<length; i++){
 8000a04:	429a      	cmp	r2, r3
 8000a06:	d1fb      	bne.n	8000a00 <xbee_receive+0x58>
	xbee_rx.length = 0;
 8000a08:	2300      	movs	r3, #0
	xbee_rx.checksum = 0;
 8000a0a:	f880 3055 	strb.w	r3, [r0, #85]	; 0x55
	xbee_rx.length = 0;
 8000a0e:	6003      	str	r3, [r0, #0]
		//debug
		//xbee_rx.data_array[k] = '\n';
		//xbee_rx.data = xbee_data_convert(xbee_rx.data_array);
	}
	xbee_clear();
}
 8000a10:	bc70      	pop	{r4, r5, r6}
 8000a12:	4770      	bx	lr
	if(xbee_rx.length == 7){
 8000a14:	2d07      	cmp	r5, #7
 8000a16:	d016      	beq.n	8000a46 <xbee_receive+0x9e>
		for(i = 15, k = 0; i<mess_length; ++i, ++k){
 8000a18:	2e0f      	cmp	r6, #15
 8000a1a:	dd08      	ble.n	8000a2e <xbee_receive+0x86>
 8000a1c:	1d82      	adds	r2, r0, #6
 8000a1e:	4b13      	ldr	r3, [pc, #76]	; (8000a6c <xbee_receive+0xc4>)
 8000a20:	4415      	add	r5, r2
			xbee_rx.data_array[k] = xbee_rx.mess_loaded[i];
 8000a22:	f813 2f01 	ldrb.w	r2, [r3, #1]!
		for(i = 15, k = 0; i<mess_length; ++i, ++k){
 8000a26:	42ab      	cmp	r3, r5
			xbee_rx.data_array[k] = xbee_rx.mess_loaded[i];
 8000a28:	f883 2023 	strb.w	r2, [r3, #35]	; 0x23
		for(i = 15, k = 0; i<mess_length; ++i, ++k){
 8000a2c:	d1f9      	bne.n	8000a22 <xbee_receive+0x7a>
		xbee_rx.data_flag = 1;
 8000a2e:	2301      	movs	r3, #1
 8000a30:	f880 3054 	strb.w	r3, [r0, #84]	; 0x54
		array[i] = 0;
 8000a34:	2100      	movs	r1, #0
 8000a36:	4b0c      	ldr	r3, [pc, #48]	; (8000a68 <xbee_receive+0xc0>)
 8000a38:	f100 0235 	add.w	r2, r0, #53	; 0x35
 8000a3c:	f803 1f01 	strb.w	r1, [r3, #1]!
	for(int i=0; i<length; i++){
 8000a40:	429a      	cmp	r2, r3
 8000a42:	d1fb      	bne.n	8000a3c <xbee_receive+0x94>
 8000a44:	e7e0      	b.n	8000a08 <xbee_receive+0x60>
		if(xbee_rx.mess_loaded[mess_length-1] == 0 && xbee_rx.mess_loaded[mess_length-2] == 0 && xbee_rx.mess_loaded[mess_length-3] == 0){
 8000a46:	7b43      	ldrb	r3, [r0, #13]
 8000a48:	7b01      	ldrb	r1, [r0, #12]
 8000a4a:	7ac2      	ldrb	r2, [r0, #11]
 8000a4c:	430b      	orrs	r3, r1
 8000a4e:	4313      	orrs	r3, r2
 8000a50:	d1f0      	bne.n	8000a34 <xbee_receive+0x8c>
			xbee_rx.response = 1;
 8000a52:	2301      	movs	r3, #1
 8000a54:	6583      	str	r3, [r0, #88]	; 0x58
 8000a56:	e7ed      	b.n	8000a34 <xbee_receive+0x8c>
 8000a58:	f890 3055 	ldrb.w	r3, [r0, #85]	; 0x55
 8000a5c:	e7c4      	b.n	80009e8 <xbee_receive+0x40>
 8000a5e:	bf00      	nop
 8000a60:	20000129 	.word	0x20000129
 8000a64:	200000fa 	.word	0x200000fa
 8000a68:	200000f7 	.word	0x200000f7
 8000a6c:	20000106 	.word	0x20000106

08000a70 <Reset_Handler>:
  .weak Reset_Handler
  .type Reset_Handler, %function
Reset_Handler:

/* Copy the data segment initializers from flash to SRAM */
  movs r1, #0
 8000a70:	2100      	movs	r1, #0
  b LoopCopyDataInit
 8000a72:	e003      	b.n	8000a7c <LoopCopyDataInit>

08000a74 <CopyDataInit>:

CopyDataInit:
  ldr r3, =_sidata
 8000a74:	4b0b      	ldr	r3, [pc, #44]	; (8000aa4 <LoopFillZerobss+0x14>)
  ldr r3, [r3, r1]
 8000a76:	585b      	ldr	r3, [r3, r1]
  str r3, [r0, r1]
 8000a78:	5043      	str	r3, [r0, r1]
  adds r1, r1, #4
 8000a7a:	3104      	adds	r1, #4

08000a7c <LoopCopyDataInit>:

LoopCopyDataInit:
  ldr r0, =_sdata
 8000a7c:	480a      	ldr	r0, [pc, #40]	; (8000aa8 <LoopFillZerobss+0x18>)
  ldr r3, =_edata
 8000a7e:	4b0b      	ldr	r3, [pc, #44]	; (8000aac <LoopFillZerobss+0x1c>)
  adds r2, r0, r1
 8000a80:	1842      	adds	r2, r0, r1
  cmp r2, r3
 8000a82:	429a      	cmp	r2, r3
  bcc CopyDataInit
 8000a84:	d3f6      	bcc.n	8000a74 <CopyDataInit>
  ldr r2, =_sbss
 8000a86:	4a0a      	ldr	r2, [pc, #40]	; (8000ab0 <LoopFillZerobss+0x20>)
  b LoopFillZerobss
 8000a88:	e002      	b.n	8000a90 <LoopFillZerobss>

08000a8a <FillZerobss>:
/* Zero fill the bss segment. */
FillZerobss:
  movs r3, #0
 8000a8a:	2300      	movs	r3, #0
  str r3, [r2], #4
 8000a8c:	f842 3b04 	str.w	r3, [r2], #4

08000a90 <LoopFillZerobss>:

LoopFillZerobss:
  ldr r3, = _ebss
 8000a90:	4b08      	ldr	r3, [pc, #32]	; (8000ab4 <LoopFillZerobss+0x24>)
  cmp r2, r3
 8000a92:	429a      	cmp	r2, r3
  bcc FillZerobss
 8000a94:	d3f9      	bcc.n	8000a8a <FillZerobss>

/* Call the clock system intitialization function.*/
    bl  SystemInit
 8000a96:	f7ff fd97 	bl	80005c8 <SystemInit>
/* Call static constructors */
    bl __libc_init_array
 8000a9a:	f001 fa79 	bl	8001f90 <__libc_init_array>
/* Call the application's entry point.*/
  bl main
 8000a9e:	f7ff fc1f 	bl	80002e0 <main>
  bx lr
 8000aa2:	4770      	bx	lr
  ldr r3, =_sidata
 8000aa4:	0800295c 	.word	0x0800295c
  ldr r0, =_sdata
 8000aa8:	20000000 	.word	0x20000000
  ldr r3, =_edata
 8000aac:	20000074 	.word	0x20000074
  ldr r2, =_sbss
 8000ab0:	20000074 	.word	0x20000074
  ldr r3, = _ebss
 8000ab4:	20000564 	.word	0x20000564

08000ab8 <ADC1_2_IRQHandler>:
 * @retval : None
*/
    .section .text.Default_Handler,"ax",%progbits
Default_Handler:
Infinite_Loop:
  b Infinite_Loop
 8000ab8:	e7fe      	b.n	8000ab8 <ADC1_2_IRQHandler>
	...

08000abc <HAL_InitTick>:
  *       implementation  in user file.
  * @param TickPriority Tick interrupt priority.
  * @retval HAL status
  */
__weak HAL_StatusTypeDef HAL_InitTick(uint32_t TickPriority)
{
 8000abc:	b538      	push	{r3, r4, r5, lr}
  /* Configure the SysTick to have interrupt in 1ms time basis*/
  if (HAL_SYSTICK_Config(SystemCoreClock / (1000U / uwTickFreq)) > 0U)
 8000abe:	f44f 737a 	mov.w	r3, #1000	; 0x3e8
 8000ac2:	4a0d      	ldr	r2, [pc, #52]	; (8000af8 <HAL_InitTick+0x3c>)
{
 8000ac4:	4605      	mov	r5, r0
  if (HAL_SYSTICK_Config(SystemCoreClock / (1000U / uwTickFreq)) > 0U)
 8000ac6:	7811      	ldrb	r1, [r2, #0]
 8000ac8:	4a0c      	ldr	r2, [pc, #48]	; (8000afc <HAL_InitTick+0x40>)
 8000aca:	fbb3 f3f1 	udiv	r3, r3, r1
 8000ace:	6812      	ldr	r2, [r2, #0]
 8000ad0:	fbb2 f0f3 	udiv	r0, r2, r3
 8000ad4:	f000 f8a4 	bl	8000c20 <HAL_SYSTICK_Config>
 8000ad8:	b908      	cbnz	r0, 8000ade <HAL_InitTick+0x22>
  {
    return HAL_ERROR;
  }

  /* Configure the SysTick IRQ priority */
  if (TickPriority < (1UL << __NVIC_PRIO_BITS))
 8000ada:	2d0f      	cmp	r5, #15
 8000adc:	d901      	bls.n	8000ae2 <HAL_InitTick+0x26>
    return HAL_ERROR;
 8000ade:	2001      	movs	r0, #1
    return HAL_ERROR;
  }

  /* Return function status */
  return HAL_OK;
}
 8000ae0:	bd38      	pop	{r3, r4, r5, pc}
 8000ae2:	4604      	mov	r4, r0
    HAL_NVIC_SetPriority(SysTick_IRQn, TickPriority, 0U);
 8000ae4:	4602      	mov	r2, r0
 8000ae6:	4629      	mov	r1, r5
 8000ae8:	f04f 30ff 	mov.w	r0, #4294967295
 8000aec:	f000 f852 	bl	8000b94 <HAL_NVIC_SetPriority>
    uwTickPrio = TickPriority;
 8000af0:	4b03      	ldr	r3, [pc, #12]	; (8000b00 <HAL_InitTick+0x44>)
 8000af2:	4620      	mov	r0, r4
 8000af4:	601d      	str	r5, [r3, #0]
}
 8000af6:	bd38      	pop	{r3, r4, r5, pc}
 8000af8:	20000008 	.word	0x20000008
 8000afc:	20000004 	.word	0x20000004
 8000b00:	2000000c 	.word	0x2000000c

08000b04 <HAL_Init>:
  __HAL_FLASH_PREFETCH_BUFFER_ENABLE();
 8000b04:	4a07      	ldr	r2, [pc, #28]	; (8000b24 <HAL_Init+0x20>)
{
 8000b06:	b508      	push	{r3, lr}
  __HAL_FLASH_PREFETCH_BUFFER_ENABLE();
 8000b08:	6813      	ldr	r3, [r2, #0]
  HAL_NVIC_SetPriorityGrouping(NVIC_PRIORITYGROUP_4);
 8000b0a:	2003      	movs	r0, #3
  __HAL_FLASH_PREFETCH_BUFFER_ENABLE();
 8000b0c:	f043 0310 	orr.w	r3, r3, #16
 8000b10:	6013      	str	r3, [r2, #0]
  HAL_NVIC_SetPriorityGrouping(NVIC_PRIORITYGROUP_4);
 8000b12:	f000 f82d 	bl	8000b70 <HAL_NVIC_SetPriorityGrouping>
  HAL_InitTick(TICK_INT_PRIORITY);
 8000b16:	2000      	movs	r0, #0
 8000b18:	f7ff ffd0 	bl	8000abc <HAL_InitTick>
  HAL_MspInit();
 8000b1c:	f7ff fcfc 	bl	8000518 <HAL_MspInit>
}
 8000b20:	2000      	movs	r0, #0
 8000b22:	bd08      	pop	{r3, pc}
 8000b24:	40022000 	.word	0x40022000

08000b28 <HAL_IncTick>:
  *      implementations in user file.
  * @retval None
  */
__weak void HAL_IncTick(void)
{
  uwTick += uwTickFreq;
 8000b28:	4a03      	ldr	r2, [pc, #12]	; (8000b38 <HAL_IncTick+0x10>)
 8000b2a:	4b04      	ldr	r3, [pc, #16]	; (8000b3c <HAL_IncTick+0x14>)
 8000b2c:	6811      	ldr	r1, [r2, #0]
 8000b2e:	781b      	ldrb	r3, [r3, #0]
 8000b30:	440b      	add	r3, r1
 8000b32:	6013      	str	r3, [r2, #0]
}
 8000b34:	4770      	bx	lr
 8000b36:	bf00      	nop
 8000b38:	20000550 	.word	0x20000550
 8000b3c:	20000008 	.word	0x20000008

08000b40 <HAL_GetTick>:
  *       implementations in user file.
  * @retval tick value
  */
__weak uint32_t HAL_GetTick(void)
{
  return uwTick;
 8000b40:	4b01      	ldr	r3, [pc, #4]	; (8000b48 <HAL_GetTick+0x8>)
 8000b42:	6818      	ldr	r0, [r3, #0]
}
 8000b44:	4770      	bx	lr
 8000b46:	bf00      	nop
 8000b48:	20000550 	.word	0x20000550

08000b4c <HAL_Delay>:
  *       implementations in user file.
  * @param Delay specifies the delay time length, in milliseconds.
  * @retval None
  */
__weak void HAL_Delay(uint32_t Delay)
{
 8000b4c:	b538      	push	{r3, r4, r5, lr}
 8000b4e:	4604      	mov	r4, r0
  uint32_t tickstart = HAL_GetTick();
 8000b50:	f7ff fff6 	bl	8000b40 <HAL_GetTick>
  uint32_t wait = Delay;

  /* Add a freq to guarantee minimum wait */
  if (wait < HAL_MAX_DELAY)
 8000b54:	1c63      	adds	r3, r4, #1
  uint32_t tickstart = HAL_GetTick();
 8000b56:	4605      	mov	r5, r0
  if (wait < HAL_MAX_DELAY)
 8000b58:	d002      	beq.n	8000b60 <HAL_Delay+0x14>
  {
    wait += (uint32_t)(uwTickFreq);
 8000b5a:	4b04      	ldr	r3, [pc, #16]	; (8000b6c <HAL_Delay+0x20>)
 8000b5c:	781b      	ldrb	r3, [r3, #0]
 8000b5e:	441c      	add	r4, r3
  }

  while ((HAL_GetTick() - tickstart) < wait)
 8000b60:	f7ff ffee 	bl	8000b40 <HAL_GetTick>
 8000b64:	1b40      	subs	r0, r0, r5
 8000b66:	42a0      	cmp	r0, r4
 8000b68:	d3fa      	bcc.n	8000b60 <HAL_Delay+0x14>
  {
  }
}
 8000b6a:	bd38      	pop	{r3, r4, r5, pc}
 8000b6c:	20000008 	.word	0x20000008

08000b70 <HAL_NVIC_SetPriorityGrouping>:
{
  uint32_t reg_value;
  uint32_t PriorityGroupTmp = (PriorityGroup & (uint32_t)0x07UL);             /* only values 0..7 are used          */

  reg_value  =  SCB->AIRCR;                                                   /* read old register configuration    */
  reg_value &= ~((uint32_t)(SCB_AIRCR_VECTKEY_Msk | SCB_AIRCR_PRIGROUP_Msk)); /* clear bits to change               */
 8000b70:	f64f 01ff 	movw	r1, #63743	; 0xf8ff
  reg_value  =  SCB->AIRCR;                                                   /* read old register configuration    */
 8000b74:	4a06      	ldr	r2, [pc, #24]	; (8000b90 <HAL_NVIC_SetPriorityGrouping+0x20>)
  reg_value  =  (reg_value                                   |
                ((uint32_t)0x5FAUL << SCB_AIRCR_VECTKEY_Pos) |
                (PriorityGroupTmp << SCB_AIRCR_PRIGROUP_Pos) );               /* Insert write key and priority group */
 8000b76:	0203      	lsls	r3, r0, #8
  reg_value  =  SCB->AIRCR;                                                   /* read old register configuration    */
 8000b78:	68d0      	ldr	r0, [r2, #12]
                (PriorityGroupTmp << SCB_AIRCR_PRIGROUP_Pos) );               /* Insert write key and priority group */
 8000b7a:	f403 63e0 	and.w	r3, r3, #1792	; 0x700
  reg_value &= ~((uint32_t)(SCB_AIRCR_VECTKEY_Msk | SCB_AIRCR_PRIGROUP_Msk)); /* clear bits to change               */
 8000b7e:	4008      	ands	r0, r1
                ((uint32_t)0x5FAUL << SCB_AIRCR_VECTKEY_Pos) |
 8000b80:	4303      	orrs	r3, r0
  reg_value  =  (reg_value                                   |
 8000b82:	f043 63bf 	orr.w	r3, r3, #100139008	; 0x5f80000
 8000b86:	f443 3300 	orr.w	r3, r3, #131072	; 0x20000
  SCB->AIRCR =  reg_value;
 8000b8a:	60d3      	str	r3, [r2, #12]
  /* Check the parameters */
  assert_param(IS_NVIC_PRIORITY_GROUP(PriorityGroup));
  
  /* Set the PRIGROUP[10:8] bits according to the PriorityGroup parameter value */
  NVIC_SetPriorityGrouping(PriorityGroup);
}
 8000b8c:	4770      	bx	lr
 8000b8e:	bf00      	nop
 8000b90:	e000ed00 	.word	0xe000ed00

08000b94 <HAL_NVIC_SetPriority>:
  \details Reads the priority grouping field from the NVIC Interrupt Controller.
  \return                Priority grouping field (SCB->AIRCR [10:8] PRIGROUP field).
 */
__STATIC_INLINE uint32_t __NVIC_GetPriorityGrouping(void)
{
  return ((uint32_t)((SCB->AIRCR & SCB_AIRCR_PRIGROUP_Msk) >> SCB_AIRCR_PRIGROUP_Pos));
 8000b94:	4b19      	ldr	r3, [pc, #100]	; (8000bfc <HAL_NVIC_SetPriority+0x68>)
  *         This parameter can be a value between 0 and 15
  *         A lower priority value indicates a higher priority.          
  * @retval None
  */
void HAL_NVIC_SetPriority(IRQn_Type IRQn, uint32_t PreemptPriority, uint32_t SubPriority)
{ 
 8000b96:	b430      	push	{r4, r5}
 8000b98:	68db      	ldr	r3, [r3, #12]
 8000b9a:	f3c3 2302 	ubfx	r3, r3, #8, #3
{
  uint32_t PriorityGroupTmp = (PriorityGroup & (uint32_t)0x07UL);   /* only values 0..7 are used          */
  uint32_t PreemptPriorityBits;
  uint32_t SubPriorityBits;

  PreemptPriorityBits = ((7UL - PriorityGroupTmp) > (uint32_t)(__NVIC_PRIO_BITS)) ? (uint32_t)(__NVIC_PRIO_BITS) : (uint32_t)(7UL - PriorityGroupTmp);
 8000b9e:	f1c3 0507 	rsb	r5, r3, #7
 8000ba2:	2d04      	cmp	r5, #4
  SubPriorityBits     = ((PriorityGroupTmp + (uint32_t)(__NVIC_PRIO_BITS)) < (uint32_t)7UL) ? (uint32_t)0UL : (uint32_t)((PriorityGroupTmp - 7UL) + (uint32_t)(__NVIC_PRIO_BITS));
 8000ba4:	f103 0404 	add.w	r4, r3, #4
  PreemptPriorityBits = ((7UL - PriorityGroupTmp) > (uint32_t)(__NVIC_PRIO_BITS)) ? (uint32_t)(__NVIC_PRIO_BITS) : (uint32_t)(7UL - PriorityGroupTmp);
 8000ba8:	bf28      	it	cs
 8000baa:	2504      	movcs	r5, #4
  SubPriorityBits     = ((PriorityGroupTmp + (uint32_t)(__NVIC_PRIO_BITS)) < (uint32_t)7UL) ? (uint32_t)0UL : (uint32_t)((PriorityGroupTmp - 7UL) + (uint32_t)(__NVIC_PRIO_BITS));
 8000bac:	2c06      	cmp	r4, #6
 8000bae:	d919      	bls.n	8000be4 <HAL_NVIC_SetPriority+0x50>
 8000bb0:	f04f 34ff 	mov.w	r4, #4294967295
 8000bb4:	3b03      	subs	r3, #3
 8000bb6:	409c      	lsls	r4, r3
 8000bb8:	ea22 0204 	bic.w	r2, r2, r4

  return (
           ((PreemptPriority & (uint32_t)((1UL << (PreemptPriorityBits)) - 1UL)) << SubPriorityBits) |
 8000bbc:	f04f 34ff 	mov.w	r4, #4294967295
 8000bc0:	40ac      	lsls	r4, r5
 8000bc2:	ea21 0104 	bic.w	r1, r1, r4
 8000bc6:	4099      	lsls	r1, r3
  if ((int32_t)(IRQn) >= 0)
 8000bc8:	2800      	cmp	r0, #0
           ((PreemptPriority & (uint32_t)((1UL << (PreemptPriorityBits)) - 1UL)) << SubPriorityBits) |
 8000bca:	ea41 0102 	orr.w	r1, r1, r2
  if ((int32_t)(IRQn) >= 0)
 8000bce:	db0c      	blt.n	8000bea <HAL_NVIC_SetPriority+0x56>
    NVIC->IP[((uint32_t)IRQn)]               = (uint8_t)((priority << (8U - __NVIC_PRIO_BITS)) & (uint32_t)0xFFUL);
 8000bd0:	0109      	lsls	r1, r1, #4
 8000bd2:	f100 4060 	add.w	r0, r0, #3758096384	; 0xe0000000
 8000bd6:	b2c9      	uxtb	r1, r1
 8000bd8:	f500 4061 	add.w	r0, r0, #57600	; 0xe100
 8000bdc:	f880 1300 	strb.w	r1, [r0, #768]	; 0x300
  assert_param(IS_NVIC_PREEMPTION_PRIORITY(PreemptPriority));
  
  prioritygroup = NVIC_GetPriorityGrouping();
  
  NVIC_SetPriority(IRQn, NVIC_EncodePriority(prioritygroup, PreemptPriority, SubPriority));
}
 8000be0:	bc30      	pop	{r4, r5}
 8000be2:	4770      	bx	lr
 8000be4:	2200      	movs	r2, #0
  SubPriorityBits     = ((PriorityGroupTmp + (uint32_t)(__NVIC_PRIO_BITS)) < (uint32_t)7UL) ? (uint32_t)0UL : (uint32_t)((PriorityGroupTmp - 7UL) + (uint32_t)(__NVIC_PRIO_BITS));
 8000be6:	4613      	mov	r3, r2
 8000be8:	e7e8      	b.n	8000bbc <HAL_NVIC_SetPriority+0x28>
    SCB->SHP[(((uint32_t)IRQn) & 0xFUL)-4UL] = (uint8_t)((priority << (8U - __NVIC_PRIO_BITS)) & (uint32_t)0xFFUL);
 8000bea:	4b05      	ldr	r3, [pc, #20]	; (8000c00 <HAL_NVIC_SetPriority+0x6c>)
 8000bec:	f000 000f 	and.w	r0, r0, #15
 8000bf0:	0109      	lsls	r1, r1, #4
 8000bf2:	b2c9      	uxtb	r1, r1
 8000bf4:	4403      	add	r3, r0
 8000bf6:	7619      	strb	r1, [r3, #24]
 8000bf8:	bc30      	pop	{r4, r5}
 8000bfa:	4770      	bx	lr
 8000bfc:	e000ed00 	.word	0xe000ed00
 8000c00:	e000ecfc 	.word	0xe000ecfc

08000c04 <HAL_NVIC_EnableIRQ>:
  if ((int32_t)(IRQn) >= 0)
 8000c04:	2800      	cmp	r0, #0
 8000c06:	db07      	blt.n	8000c18 <HAL_NVIC_EnableIRQ+0x14>
    NVIC->ISER[(((uint32_t)IRQn) >> 5UL)] = (uint32_t)(1UL << (((uint32_t)IRQn) & 0x1FUL));
 8000c08:	2301      	movs	r3, #1
 8000c0a:	f000 011f 	and.w	r1, r0, #31
 8000c0e:	4a03      	ldr	r2, [pc, #12]	; (8000c1c <HAL_NVIC_EnableIRQ+0x18>)
 8000c10:	408b      	lsls	r3, r1
 8000c12:	0940      	lsrs	r0, r0, #5
 8000c14:	f842 3020 	str.w	r3, [r2, r0, lsl #2]
  /* Check the parameters */
  assert_param(IS_NVIC_DEVICE_IRQ(IRQn));

  /* Enable interrupt */
  NVIC_EnableIRQ(IRQn);
}
 8000c18:	4770      	bx	lr
 8000c1a:	bf00      	nop
 8000c1c:	e000e100 	.word	0xe000e100

08000c20 <HAL_SYSTICK_Config>:
           function <b>SysTick_Config</b> is not included. In this case, the file <b><i>device</i>.h</b>
           must contain a vendor-specific implementation of this function.
 */
__STATIC_INLINE uint32_t SysTick_Config(uint32_t ticks)
{
  if ((ticks - 1UL) > SysTick_LOAD_RELOAD_Msk)
 8000c20:	3801      	subs	r0, #1
 8000c22:	f1b0 7f80 	cmp.w	r0, #16777216	; 0x1000000
 8000c26:	d20d      	bcs.n	8000c44 <HAL_SYSTICK_Config+0x24>
  * @param  TicksNumb: Specifies the ticks Number of ticks between two interrupts.
  * @retval status:  - 0  Function succeeded.
  *                  - 1  Function failed.
  */
uint32_t HAL_SYSTICK_Config(uint32_t TicksNumb)
{
 8000c28:	b430      	push	{r4, r5}
    SCB->SHP[(((uint32_t)IRQn) & 0xFUL)-4UL] = (uint8_t)((priority << (8U - __NVIC_PRIO_BITS)) & (uint32_t)0xFFUL);
 8000c2a:	25f0      	movs	r5, #240	; 0xf0
    return (1UL);                                                   /* Reload value impossible */
  }

  SysTick->LOAD  = (uint32_t)(ticks - 1UL);                         /* set reload register */
  NVIC_SetPriority (SysTick_IRQn, (1UL << __NVIC_PRIO_BITS) - 1UL); /* set Priority for Systick Interrupt */
  SysTick->VAL   = 0UL;                                             /* Load the SysTick Counter Value */
 8000c2c:	2200      	movs	r2, #0
  SysTick->CTRL  = SysTick_CTRL_CLKSOURCE_Msk |
 8000c2e:	2107      	movs	r1, #7
  SysTick->LOAD  = (uint32_t)(ticks - 1UL);                         /* set reload register */
 8000c30:	4b05      	ldr	r3, [pc, #20]	; (8000c48 <HAL_SYSTICK_Config+0x28>)
    SCB->SHP[(((uint32_t)IRQn) & 0xFUL)-4UL] = (uint8_t)((priority << (8U - __NVIC_PRIO_BITS)) & (uint32_t)0xFFUL);
 8000c32:	4c06      	ldr	r4, [pc, #24]	; (8000c4c <HAL_SYSTICK_Config+0x2c>)
  SysTick->LOAD  = (uint32_t)(ticks - 1UL);                         /* set reload register */
 8000c34:	6058      	str	r0, [r3, #4]
    SCB->SHP[(((uint32_t)IRQn) & 0xFUL)-4UL] = (uint8_t)((priority << (8U - __NVIC_PRIO_BITS)) & (uint32_t)0xFFUL);
 8000c36:	f884 5023 	strb.w	r5, [r4, #35]	; 0x23
                   SysTick_CTRL_TICKINT_Msk   |
                   SysTick_CTRL_ENABLE_Msk;                         /* Enable SysTick IRQ and SysTick Timer */
  return (0UL);                                                     /* Function successful */
 8000c3a:	4610      	mov	r0, r2
   return SysTick_Config(TicksNumb);
}
 8000c3c:	bc30      	pop	{r4, r5}
  SysTick->VAL   = 0UL;                                             /* Load the SysTick Counter Value */
 8000c3e:	609a      	str	r2, [r3, #8]
  SysTick->CTRL  = SysTick_CTRL_CLKSOURCE_Msk |
 8000c40:	6019      	str	r1, [r3, #0]
 8000c42:	4770      	bx	lr
    return (1UL);                                                   /* Reload value impossible */
 8000c44:	2001      	movs	r0, #1
 8000c46:	4770      	bx	lr
 8000c48:	e000e010 	.word	0xe000e010
 8000c4c:	e000ed00 	.word	0xe000ed00

08000c50 <HAL_DMA_Init>:
HAL_StatusTypeDef HAL_DMA_Init(DMA_HandleTypeDef *hdma)
{
  uint32_t tmp = 0U;

  /* Check the DMA handle allocation */
  if(hdma == NULL)
 8000c50:	b340      	cbz	r0, 8000ca4 <HAL_DMA_Init+0x54>
    hdma->ChannelIndex = (((uint32_t)hdma->Instance - (uint32_t)DMA2_Channel1) / ((uint32_t)DMA2_Channel2 - (uint32_t)DMA2_Channel1)) << 2;
    hdma->DmaBaseAddress = DMA2;
  }
#else
  /* DMA1 */
  hdma->ChannelIndex = (((uint32_t)hdma->Instance - (uint32_t)DMA1_Channel1) / ((uint32_t)DMA1_Channel2 - (uint32_t)DMA1_Channel1)) << 2;
 8000c52:	4603      	mov	r3, r0
{
 8000c54:	b4f0      	push	{r4, r5, r6, r7}
  tmp &= ((uint32_t)~(DMA_CCR_PL    | DMA_CCR_MSIZE  | DMA_CCR_PSIZE  | \
                      DMA_CCR_MINC  | DMA_CCR_PINC   | DMA_CCR_CIRC   | \
                      DMA_CCR_DIR));

  /* Prepare the DMA Channel configuration */
  tmp |=  hdma->Init.Direction        |
 8000c56:	e9d0 2601 	ldrd	r2, r6, [r0, #4]
  hdma->ErrorCode = HAL_DMA_ERROR_NONE;

  /* Initialize the DMA state*/
  hdma->State = HAL_DMA_STATE_READY;
  /* Allocate lock resource and initialize it */
  hdma->Lock = HAL_UNLOCKED;
 8000c5a:	f44f 7580 	mov.w	r5, #256	; 0x100
  hdma->ErrorCode = HAL_DMA_ERROR_NONE;
 8000c5e:	2400      	movs	r4, #0
  tmp |=  hdma->Init.Direction        |
 8000c60:	4332      	orrs	r2, r6
          hdma->Init.PeriphInc           | hdma->Init.MemInc           |
 8000c62:	68de      	ldr	r6, [r3, #12]
  hdma->ChannelIndex = (((uint32_t)hdma->Instance - (uint32_t)DMA1_Channel1) / ((uint32_t)DMA1_Channel2 - (uint32_t)DMA1_Channel1)) << 2;
 8000c64:	6800      	ldr	r0, [r0, #0]
          hdma->Init.PeriphInc           | hdma->Init.MemInc           |
 8000c66:	4332      	orrs	r2, r6
  hdma->ChannelIndex = (((uint32_t)hdma->Instance - (uint32_t)DMA1_Channel1) / ((uint32_t)DMA1_Channel2 - (uint32_t)DMA1_Channel1)) << 2;
 8000c68:	490f      	ldr	r1, [pc, #60]	; (8000ca8 <HAL_DMA_Init+0x58>)
          hdma->Init.PeriphInc           | hdma->Init.MemInc           |
 8000c6a:	691e      	ldr	r6, [r3, #16]
  hdma->ChannelIndex = (((uint32_t)hdma->Instance - (uint32_t)DMA1_Channel1) / ((uint32_t)DMA1_Channel2 - (uint32_t)DMA1_Channel1)) << 2;
 8000c6c:	4f0f      	ldr	r7, [pc, #60]	; (8000cac <HAL_DMA_Init+0x5c>)
 8000c6e:	4401      	add	r1, r0
          hdma->Init.PeriphInc           | hdma->Init.MemInc           |
 8000c70:	4332      	orrs	r2, r6
          hdma->Init.PeriphDataAlignment | hdma->Init.MemDataAlignment |
 8000c72:	695e      	ldr	r6, [r3, #20]
  hdma->ChannelIndex = (((uint32_t)hdma->Instance - (uint32_t)DMA1_Channel1) / ((uint32_t)DMA1_Channel2 - (uint32_t)DMA1_Channel1)) << 2;
 8000c74:	fba7 7101 	umull	r7, r1, r7, r1
          hdma->Init.PeriphDataAlignment | hdma->Init.MemDataAlignment |
 8000c78:	4332      	orrs	r2, r6
 8000c7a:	699e      	ldr	r6, [r3, #24]
          hdma->Init.Mode                | hdma->Init.Priority;
 8000c7c:	69df      	ldr	r7, [r3, #28]
          hdma->Init.PeriphDataAlignment | hdma->Init.MemDataAlignment |
 8000c7e:	4332      	orrs	r2, r6
  tmp = hdma->Instance->CCR;
 8000c80:	6806      	ldr	r6, [r0, #0]
  hdma->ChannelIndex = (((uint32_t)hdma->Instance - (uint32_t)DMA1_Channel1) / ((uint32_t)DMA1_Channel2 - (uint32_t)DMA1_Channel1)) << 2;
 8000c82:	0909      	lsrs	r1, r1, #4
 8000c84:	0089      	lsls	r1, r1, #2
  tmp &= ((uint32_t)~(DMA_CCR_PL    | DMA_CCR_MSIZE  | DMA_CCR_PSIZE  | \
 8000c86:	f426 567f 	bic.w	r6, r6, #16320	; 0x3fc0
          hdma->Init.Mode                | hdma->Init.Priority;
 8000c8a:	433a      	orrs	r2, r7
  tmp &= ((uint32_t)~(DMA_CCR_PL    | DMA_CCR_MSIZE  | DMA_CCR_PSIZE  | \
 8000c8c:	f026 0630 	bic.w	r6, r6, #48	; 0x30
  hdma->ChannelIndex = (((uint32_t)hdma->Instance - (uint32_t)DMA1_Channel1) / ((uint32_t)DMA1_Channel2 - (uint32_t)DMA1_Channel1)) << 2;
 8000c90:	6419      	str	r1, [r3, #64]	; 0x40
  hdma->DmaBaseAddress = DMA1;
 8000c92:	4907      	ldr	r1, [pc, #28]	; (8000cb0 <HAL_DMA_Init+0x60>)
  tmp |=  hdma->Init.Direction        |
 8000c94:	4332      	orrs	r2, r6
  hdma->DmaBaseAddress = DMA1;
 8000c96:	63d9      	str	r1, [r3, #60]	; 0x3c
  hdma->Instance->CCR = tmp;
 8000c98:	6002      	str	r2, [r0, #0]
  hdma->Lock = HAL_UNLOCKED;
 8000c9a:	841d      	strh	r5, [r3, #32]

  return HAL_OK;
 8000c9c:	4620      	mov	r0, r4
  hdma->ErrorCode = HAL_DMA_ERROR_NONE;
 8000c9e:	639c      	str	r4, [r3, #56]	; 0x38
}
 8000ca0:	bcf0      	pop	{r4, r5, r6, r7}
 8000ca2:	4770      	bx	lr
    return HAL_ERROR;
 8000ca4:	2001      	movs	r0, #1
}
 8000ca6:	4770      	bx	lr
 8000ca8:	bffdfff8 	.word	0xbffdfff8
 8000cac:	cccccccd 	.word	0xcccccccd
 8000cb0:	40020000 	.word	0x40020000

08000cb4 <HAL_DMA_Start_IT>:
  * @param  DstAddress: The destination memory Buffer address
  * @param  DataLength: The length of data to be transferred from source to destination
  * @retval HAL status
  */
HAL_StatusTypeDef HAL_DMA_Start_IT(DMA_HandleTypeDef *hdma, uint32_t SrcAddress, uint32_t DstAddress, uint32_t DataLength)
{
 8000cb4:	b4f0      	push	{r4, r5, r6, r7}
 8000cb6:	4604      	mov	r4, r0

  /* Check the parameters */
  assert_param(IS_DMA_BUFFER_SIZE(DataLength));

  /* Process locked */
  __HAL_LOCK(hdma);
 8000cb8:	f890 0020 	ldrb.w	r0, [r0, #32]
 8000cbc:	2801      	cmp	r0, #1
 8000cbe:	d038      	beq.n	8000d32 <HAL_DMA_Start_IT+0x7e>
 8000cc0:	2501      	movs	r5, #1
  
  if(HAL_DMA_STATE_READY == hdma->State)
 8000cc2:	f894 0021 	ldrb.w	r0, [r4, #33]	; 0x21
  __HAL_LOCK(hdma);
 8000cc6:	f884 5020 	strb.w	r5, [r4, #32]
  if(HAL_DMA_STATE_READY == hdma->State)
 8000cca:	42a8      	cmp	r0, r5
 8000ccc:	d005      	beq.n	8000cda <HAL_DMA_Start_IT+0x26>
    __HAL_DMA_ENABLE(hdma);
  }
  else
  {      
    /* Process Unlocked */
    __HAL_UNLOCK(hdma); 
 8000cce:	2300      	movs	r3, #0
 8000cd0:	f884 3020 	strb.w	r3, [r4, #32]

    /* Remain BUSY */
    status = HAL_BUSY;
 8000cd4:	2002      	movs	r0, #2
  }    
  return status;
}
 8000cd6:	bcf0      	pop	{r4, r5, r6, r7}
 8000cd8:	4770      	bx	lr
    hdma->State = HAL_DMA_STATE_BUSY;
 8000cda:	2702      	movs	r7, #2
    hdma->ErrorCode = HAL_DMA_ERROR_NONE;
 8000cdc:	2600      	movs	r6, #0
    __HAL_DMA_DISABLE(hdma);
 8000cde:	6825      	ldr	r5, [r4, #0]
    hdma->State = HAL_DMA_STATE_BUSY;
 8000ce0:	f884 7021 	strb.w	r7, [r4, #33]	; 0x21
    hdma->ErrorCode = HAL_DMA_ERROR_NONE;
 8000ce4:	63a6      	str	r6, [r4, #56]	; 0x38
  * @retval HAL status
  */
static void DMA_SetConfig(DMA_HandleTypeDef *hdma, uint32_t SrcAddress, uint32_t DstAddress, uint32_t DataLength)
{
  /* Clear all flags */
  hdma->DmaBaseAddress->IFCR = (DMA_ISR_GIF1 << hdma->ChannelIndex);
 8000ce6:	6c27      	ldr	r7, [r4, #64]	; 0x40
    __HAL_DMA_DISABLE(hdma);
 8000ce8:	682e      	ldr	r6, [r5, #0]
  hdma->DmaBaseAddress->IFCR = (DMA_ISR_GIF1 << hdma->ChannelIndex);
 8000cea:	40b8      	lsls	r0, r7
    __HAL_DMA_DISABLE(hdma);
 8000cec:	f026 0601 	bic.w	r6, r6, #1
  hdma->DmaBaseAddress->IFCR = (DMA_ISR_GIF1 << hdma->ChannelIndex);
 8000cf0:	6be7      	ldr	r7, [r4, #60]	; 0x3c
    __HAL_DMA_DISABLE(hdma);
 8000cf2:	602e      	str	r6, [r5, #0]

  /* Configure DMA Channel data length */
  hdma->Instance->CNDTR = DataLength;

  /* Memory to Peripheral */
  if((hdma->Init.Direction) == DMA_MEMORY_TO_PERIPH)
 8000cf4:	6866      	ldr	r6, [r4, #4]
  hdma->DmaBaseAddress->IFCR = (DMA_ISR_GIF1 << hdma->ChannelIndex);
 8000cf6:	6078      	str	r0, [r7, #4]
  hdma->Instance->CNDTR = DataLength;
 8000cf8:	606b      	str	r3, [r5, #4]
    if(NULL != hdma->XferHalfCpltCallback)
 8000cfa:	6ae3      	ldr	r3, [r4, #44]	; 0x2c
  if((hdma->Init.Direction) == DMA_MEMORY_TO_PERIPH)
 8000cfc:	2e10      	cmp	r6, #16
  {
    /* Configure DMA Channel destination address */
    hdma->Instance->CPAR = DstAddress;
 8000cfe:	bf0b      	itete	eq
 8000d00:	60aa      	streq	r2, [r5, #8]
  }
  /* Peripheral to Memory */
  else
  {
    /* Configure DMA Channel source address */
    hdma->Instance->CPAR = SrcAddress;
 8000d02:	60a9      	strne	r1, [r5, #8]
    hdma->Instance->CMAR = SrcAddress;
 8000d04:	60e9      	streq	r1, [r5, #12]

    /* Configure DMA Channel destination address */
    hdma->Instance->CMAR = DstAddress;
 8000d06:	60ea      	strne	r2, [r5, #12]
    if(NULL != hdma->XferHalfCpltCallback)
 8000d08:	b153      	cbz	r3, 8000d20 <HAL_DMA_Start_IT+0x6c>
      __HAL_DMA_ENABLE_IT(hdma, (DMA_IT_TC | DMA_IT_HT | DMA_IT_TE));
 8000d0a:	682b      	ldr	r3, [r5, #0]
 8000d0c:	f043 030e 	orr.w	r3, r3, #14
 8000d10:	602b      	str	r3, [r5, #0]
    __HAL_DMA_ENABLE(hdma);
 8000d12:	682b      	ldr	r3, [r5, #0]
  HAL_StatusTypeDef status = HAL_OK;
 8000d14:	2000      	movs	r0, #0
    __HAL_DMA_ENABLE(hdma);
 8000d16:	f043 0301 	orr.w	r3, r3, #1
 8000d1a:	602b      	str	r3, [r5, #0]
}
 8000d1c:	bcf0      	pop	{r4, r5, r6, r7}
 8000d1e:	4770      	bx	lr
      __HAL_DMA_DISABLE_IT(hdma, DMA_IT_HT);
 8000d20:	682b      	ldr	r3, [r5, #0]
 8000d22:	f023 0304 	bic.w	r3, r3, #4
 8000d26:	602b      	str	r3, [r5, #0]
      __HAL_DMA_ENABLE_IT(hdma, (DMA_IT_TC | DMA_IT_TE));
 8000d28:	682b      	ldr	r3, [r5, #0]
 8000d2a:	f043 030a 	orr.w	r3, r3, #10
 8000d2e:	602b      	str	r3, [r5, #0]
 8000d30:	e7ef      	b.n	8000d12 <HAL_DMA_Start_IT+0x5e>
  __HAL_LOCK(hdma);
 8000d32:	2002      	movs	r0, #2
}
 8000d34:	bcf0      	pop	{r4, r5, r6, r7}
 8000d36:	4770      	bx	lr

08000d38 <HAL_DMA_Abort>:
  if(hdma->State != HAL_DMA_STATE_BUSY)
 8000d38:	f890 2021 	ldrb.w	r2, [r0, #33]	; 0x21
{
 8000d3c:	4603      	mov	r3, r0
  if(hdma->State != HAL_DMA_STATE_BUSY)
 8000d3e:	2a02      	cmp	r2, #2
 8000d40:	d006      	beq.n	8000d50 <HAL_DMA_Abort+0x18>
    hdma->ErrorCode = HAL_DMA_ERROR_NO_XFER;
 8000d42:	2104      	movs	r1, #4
    __HAL_UNLOCK(hdma);
 8000d44:	2200      	movs	r2, #0
    hdma->ErrorCode = HAL_DMA_ERROR_NO_XFER;
 8000d46:	6381      	str	r1, [r0, #56]	; 0x38
    __HAL_UNLOCK(hdma);
 8000d48:	f880 2020 	strb.w	r2, [r0, #32]
    return HAL_ERROR;
 8000d4c:	2001      	movs	r0, #1
}
 8000d4e:	4770      	bx	lr
    hdma->DmaBaseAddress->IFCR = (DMA_ISR_GIF1 << hdma->ChannelIndex);
 8000d50:	2101      	movs	r1, #1
{
 8000d52:	b470      	push	{r4, r5, r6}
  __HAL_UNLOCK(hdma);      
 8000d54:	f44f 7580 	mov.w	r5, #256	; 0x100
    __HAL_DMA_DISABLE_IT(hdma, (DMA_IT_TC | DMA_IT_HT | DMA_IT_TE));
 8000d58:	681a      	ldr	r2, [r3, #0]
    hdma->DmaBaseAddress->IFCR = (DMA_ISR_GIF1 << hdma->ChannelIndex);
 8000d5a:	6c1e      	ldr	r6, [r3, #64]	; 0x40
    __HAL_DMA_DISABLE_IT(hdma, (DMA_IT_TC | DMA_IT_HT | DMA_IT_TE));
 8000d5c:	6814      	ldr	r4, [r2, #0]
    hdma->DmaBaseAddress->IFCR = (DMA_ISR_GIF1 << hdma->ChannelIndex);
 8000d5e:	40b1      	lsls	r1, r6
    __HAL_DMA_DISABLE_IT(hdma, (DMA_IT_TC | DMA_IT_HT | DMA_IT_TE));
 8000d60:	f024 040e 	bic.w	r4, r4, #14
 8000d64:	6014      	str	r4, [r2, #0]
    __HAL_DMA_DISABLE(hdma);
 8000d66:	6814      	ldr	r4, [r2, #0]
  return status; 
 8000d68:	2000      	movs	r0, #0
    __HAL_DMA_DISABLE(hdma);
 8000d6a:	f024 0401 	bic.w	r4, r4, #1
 8000d6e:	6014      	str	r4, [r2, #0]
    hdma->DmaBaseAddress->IFCR = (DMA_ISR_GIF1 << hdma->ChannelIndex);
 8000d70:	6bda      	ldr	r2, [r3, #60]	; 0x3c
 8000d72:	6051      	str	r1, [r2, #4]
  __HAL_UNLOCK(hdma);      
 8000d74:	841d      	strh	r5, [r3, #32]
}
 8000d76:	bc70      	pop	{r4, r5, r6}
 8000d78:	4770      	bx	lr
 8000d7a:	bf00      	nop

08000d7c <HAL_DMA_Abort_IT>:
  if(HAL_DMA_STATE_BUSY != hdma->State)
 8000d7c:	f890 2021 	ldrb.w	r2, [r0, #33]	; 0x21
{  
 8000d80:	4603      	mov	r3, r0
  if(HAL_DMA_STATE_BUSY != hdma->State)
 8000d82:	2a02      	cmp	r2, #2
 8000d84:	d003      	beq.n	8000d8e <HAL_DMA_Abort_IT+0x12>
    hdma->ErrorCode = HAL_DMA_ERROR_NO_XFER;
 8000d86:	2204      	movs	r2, #4
    status = HAL_ERROR;
 8000d88:	2001      	movs	r0, #1
    hdma->ErrorCode = HAL_DMA_ERROR_NO_XFER;
 8000d8a:	639a      	str	r2, [r3, #56]	; 0x38
}
 8000d8c:	4770      	bx	lr
    __HAL_DMA_DISABLE_IT(hdma, (DMA_IT_TC | DMA_IT_HT | DMA_IT_TE));
 8000d8e:	6802      	ldr	r2, [r0, #0]
{  
 8000d90:	b510      	push	{r4, lr}
    __HAL_DMA_DISABLE_IT(hdma, (DMA_IT_TC | DMA_IT_HT | DMA_IT_TE));
 8000d92:	6811      	ldr	r1, [r2, #0]
    __HAL_DMA_CLEAR_FLAG(hdma, __HAL_DMA_GET_GI_FLAG_INDEX(hdma));
 8000d94:	481b      	ldr	r0, [pc, #108]	; (8000e04 <HAL_DMA_Abort_IT+0x88>)
    __HAL_DMA_DISABLE_IT(hdma, (DMA_IT_TC | DMA_IT_HT | DMA_IT_TE));
 8000d96:	f021 010e 	bic.w	r1, r1, #14
 8000d9a:	6011      	str	r1, [r2, #0]
    __HAL_DMA_DISABLE(hdma);
 8000d9c:	6811      	ldr	r1, [r2, #0]
    __HAL_DMA_CLEAR_FLAG(hdma, __HAL_DMA_GET_GI_FLAG_INDEX(hdma));
 8000d9e:	4282      	cmp	r2, r0
    __HAL_DMA_DISABLE(hdma);
 8000da0:	f021 0101 	bic.w	r1, r1, #1
 8000da4:	6011      	str	r1, [r2, #0]
    __HAL_DMA_CLEAR_FLAG(hdma, __HAL_DMA_GET_GI_FLAG_INDEX(hdma));
 8000da6:	d021      	beq.n	8000dec <HAL_DMA_Abort_IT+0x70>
 8000da8:	4917      	ldr	r1, [pc, #92]	; (8000e08 <HAL_DMA_Abort_IT+0x8c>)
 8000daa:	428a      	cmp	r2, r1
 8000dac:	d01a      	beq.n	8000de4 <HAL_DMA_Abort_IT+0x68>
 8000dae:	3114      	adds	r1, #20
 8000db0:	428a      	cmp	r2, r1
 8000db2:	d01d      	beq.n	8000df0 <HAL_DMA_Abort_IT+0x74>
 8000db4:	3114      	adds	r1, #20
 8000db6:	428a      	cmp	r2, r1
 8000db8:	d01d      	beq.n	8000df6 <HAL_DMA_Abort_IT+0x7a>
 8000dba:	3114      	adds	r1, #20
 8000dbc:	428a      	cmp	r2, r1
 8000dbe:	d01d      	beq.n	8000dfc <HAL_DMA_Abort_IT+0x80>
 8000dc0:	3114      	adds	r1, #20
 8000dc2:	428a      	cmp	r2, r1
 8000dc4:	bf0c      	ite	eq
 8000dc6:	f44f 1280 	moveq.w	r2, #1048576	; 0x100000
 8000dca:	f04f 7280 	movne.w	r2, #16777216	; 0x1000000
    __HAL_UNLOCK(hdma);
 8000dce:	f44f 7080 	mov.w	r0, #256	; 0x100
    __HAL_DMA_CLEAR_FLAG(hdma, __HAL_DMA_GET_GI_FLAG_INDEX(hdma));
 8000dd2:	4c0e      	ldr	r4, [pc, #56]	; (8000e0c <HAL_DMA_Abort_IT+0x90>)
    if(hdma->XferAbortCallback != NULL)
 8000dd4:	6b59      	ldr	r1, [r3, #52]	; 0x34
    __HAL_DMA_CLEAR_FLAG(hdma, __HAL_DMA_GET_GI_FLAG_INDEX(hdma));
 8000dd6:	6062      	str	r2, [r4, #4]
    __HAL_UNLOCK(hdma);
 8000dd8:	8418      	strh	r0, [r3, #32]
    if(hdma->XferAbortCallback != NULL)
 8000dda:	b129      	cbz	r1, 8000de8 <HAL_DMA_Abort_IT+0x6c>
      hdma->XferAbortCallback(hdma);
 8000ddc:	4618      	mov	r0, r3
 8000dde:	4788      	blx	r1
  HAL_StatusTypeDef status = HAL_OK;
 8000de0:	2000      	movs	r0, #0
}
 8000de2:	bd10      	pop	{r4, pc}
    __HAL_DMA_CLEAR_FLAG(hdma, __HAL_DMA_GET_GI_FLAG_INDEX(hdma));
 8000de4:	2210      	movs	r2, #16
 8000de6:	e7f2      	b.n	8000dce <HAL_DMA_Abort_IT+0x52>
  HAL_StatusTypeDef status = HAL_OK;
 8000de8:	4608      	mov	r0, r1
}
 8000dea:	bd10      	pop	{r4, pc}
    __HAL_DMA_CLEAR_FLAG(hdma, __HAL_DMA_GET_GI_FLAG_INDEX(hdma));
 8000dec:	2201      	movs	r2, #1
 8000dee:	e7ee      	b.n	8000dce <HAL_DMA_Abort_IT+0x52>
 8000df0:	f44f 7280 	mov.w	r2, #256	; 0x100
 8000df4:	e7eb      	b.n	8000dce <HAL_DMA_Abort_IT+0x52>
 8000df6:	f44f 5280 	mov.w	r2, #4096	; 0x1000
 8000dfa:	e7e8      	b.n	8000dce <HAL_DMA_Abort_IT+0x52>
 8000dfc:	f44f 3280 	mov.w	r2, #65536	; 0x10000
 8000e00:	e7e5      	b.n	8000dce <HAL_DMA_Abort_IT+0x52>
 8000e02:	bf00      	nop
 8000e04:	40020008 	.word	0x40020008
 8000e08:	4002001c 	.word	0x4002001c
 8000e0c:	40020000 	.word	0x40020000

08000e10 <HAL_DMA_IRQHandler>:
  if (((flag_it & (DMA_FLAG_HT1 << hdma->ChannelIndex)) != RESET) && ((source_it & DMA_IT_HT) != RESET))
 8000e10:	2204      	movs	r2, #4
{
 8000e12:	b470      	push	{r4, r5, r6}
  if (((flag_it & (DMA_FLAG_HT1 << hdma->ChannelIndex)) != RESET) && ((source_it & DMA_IT_HT) != RESET))
 8000e14:	e9d0 610f 	ldrd	r6, r1, [r0, #60]	; 0x3c
  uint32_t flag_it = hdma->DmaBaseAddress->ISR;
 8000e18:	6834      	ldr	r4, [r6, #0]
  uint32_t source_it = hdma->Instance->CCR;
 8000e1a:	6803      	ldr	r3, [r0, #0]
  if (((flag_it & (DMA_FLAG_HT1 << hdma->ChannelIndex)) != RESET) && ((source_it & DMA_IT_HT) != RESET))
 8000e1c:	408a      	lsls	r2, r1
 8000e1e:	4222      	tst	r2, r4
  uint32_t source_it = hdma->Instance->CCR;
 8000e20:	681d      	ldr	r5, [r3, #0]
  if (((flag_it & (DMA_FLAG_HT1 << hdma->ChannelIndex)) != RESET) && ((source_it & DMA_IT_HT) != RESET))
 8000e22:	d01f      	beq.n	8000e64 <HAL_DMA_IRQHandler+0x54>
 8000e24:	076a      	lsls	r2, r5, #29
 8000e26:	d51d      	bpl.n	8000e64 <HAL_DMA_IRQHandler+0x54>
    if((hdma->Instance->CCR & DMA_CCR_CIRC) == 0U)
 8000e28:	681a      	ldr	r2, [r3, #0]
 8000e2a:	0691      	lsls	r1, r2, #26
 8000e2c:	d403      	bmi.n	8000e36 <HAL_DMA_IRQHandler+0x26>
      __HAL_DMA_DISABLE_IT(hdma, DMA_IT_HT);
 8000e2e:	681a      	ldr	r2, [r3, #0]
 8000e30:	f022 0204 	bic.w	r2, r2, #4
 8000e34:	601a      	str	r2, [r3, #0]
    __HAL_DMA_CLEAR_FLAG(hdma, __HAL_DMA_GET_HT_FLAG_INDEX(hdma));
 8000e36:	4a3e      	ldr	r2, [pc, #248]	; (8000f30 <HAL_DMA_IRQHandler+0x120>)
 8000e38:	4293      	cmp	r3, r2
 8000e3a:	d05a      	beq.n	8000ef2 <HAL_DMA_IRQHandler+0xe2>
 8000e3c:	3214      	adds	r2, #20
 8000e3e:	4293      	cmp	r3, r2
 8000e40:	d05f      	beq.n	8000f02 <HAL_DMA_IRQHandler+0xf2>
 8000e42:	3214      	adds	r2, #20
 8000e44:	4293      	cmp	r3, r2
 8000e46:	d066      	beq.n	8000f16 <HAL_DMA_IRQHandler+0x106>
 8000e48:	3214      	adds	r2, #20
 8000e4a:	4293      	cmp	r3, r2
 8000e4c:	d069      	beq.n	8000f22 <HAL_DMA_IRQHandler+0x112>
 8000e4e:	3214      	adds	r2, #20
 8000e50:	4293      	cmp	r3, r2
 8000e52:	d05b      	beq.n	8000f0c <HAL_DMA_IRQHandler+0xfc>
 8000e54:	3214      	adds	r2, #20
 8000e56:	4293      	cmp	r3, r2
 8000e58:	bf0c      	ite	eq
 8000e5a:	f44f 0380 	moveq.w	r3, #4194304	; 0x400000
 8000e5e:	f04f 6380 	movne.w	r3, #67108864	; 0x4000000
 8000e62:	e047      	b.n	8000ef4 <HAL_DMA_IRQHandler+0xe4>
  else if (((flag_it & (DMA_FLAG_TC1 << hdma->ChannelIndex)) != RESET) && ((source_it & DMA_IT_TC) != RESET))
 8000e64:	2202      	movs	r2, #2
 8000e66:	408a      	lsls	r2, r1
 8000e68:	4222      	tst	r2, r4
 8000e6a:	d022      	beq.n	8000eb2 <HAL_DMA_IRQHandler+0xa2>
 8000e6c:	07aa      	lsls	r2, r5, #30
 8000e6e:	d520      	bpl.n	8000eb2 <HAL_DMA_IRQHandler+0xa2>
    if((hdma->Instance->CCR & DMA_CCR_CIRC) == 0U)
 8000e70:	681a      	ldr	r2, [r3, #0]
 8000e72:	0691      	lsls	r1, r2, #26
 8000e74:	d406      	bmi.n	8000e84 <HAL_DMA_IRQHandler+0x74>
      hdma->State = HAL_DMA_STATE_READY;
 8000e76:	2101      	movs	r1, #1
      __HAL_DMA_DISABLE_IT(hdma, DMA_IT_TE | DMA_IT_TC);  
 8000e78:	681a      	ldr	r2, [r3, #0]
 8000e7a:	f022 020a 	bic.w	r2, r2, #10
 8000e7e:	601a      	str	r2, [r3, #0]
      hdma->State = HAL_DMA_STATE_READY;
 8000e80:	f880 1021 	strb.w	r1, [r0, #33]	; 0x21
      __HAL_DMA_CLEAR_FLAG(hdma, __HAL_DMA_GET_TC_FLAG_INDEX(hdma));
 8000e84:	4a2a      	ldr	r2, [pc, #168]	; (8000f30 <HAL_DMA_IRQHandler+0x120>)
 8000e86:	4293      	cmp	r3, r2
 8000e88:	d029      	beq.n	8000ede <HAL_DMA_IRQHandler+0xce>
 8000e8a:	3214      	adds	r2, #20
 8000e8c:	4293      	cmp	r3, r2
 8000e8e:	d040      	beq.n	8000f12 <HAL_DMA_IRQHandler+0x102>
 8000e90:	3214      	adds	r2, #20
 8000e92:	4293      	cmp	r3, r2
 8000e94:	d042      	beq.n	8000f1c <HAL_DMA_IRQHandler+0x10c>
 8000e96:	3214      	adds	r2, #20
 8000e98:	4293      	cmp	r3, r2
 8000e9a:	d034      	beq.n	8000f06 <HAL_DMA_IRQHandler+0xf6>
 8000e9c:	3214      	adds	r2, #20
 8000e9e:	4293      	cmp	r3, r2
 8000ea0:	d042      	beq.n	8000f28 <HAL_DMA_IRQHandler+0x118>
 8000ea2:	3214      	adds	r2, #20
 8000ea4:	4293      	cmp	r3, r2
 8000ea6:	bf0c      	ite	eq
 8000ea8:	f44f 1300 	moveq.w	r3, #2097152	; 0x200000
 8000eac:	f04f 7300 	movne.w	r3, #33554432	; 0x2000000
 8000eb0:	e016      	b.n	8000ee0 <HAL_DMA_IRQHandler+0xd0>
  else if (( RESET != (flag_it & (DMA_FLAG_TE1 << hdma->ChannelIndex))) && (RESET != (source_it & DMA_IT_TE)))
 8000eb2:	2208      	movs	r2, #8
 8000eb4:	408a      	lsls	r2, r1
 8000eb6:	4222      	tst	r2, r4
 8000eb8:	d019      	beq.n	8000eee <HAL_DMA_IRQHandler+0xde>
 8000eba:	072a      	lsls	r2, r5, #28
 8000ebc:	d517      	bpl.n	8000eee <HAL_DMA_IRQHandler+0xde>
    hdma->DmaBaseAddress->IFCR = (DMA_ISR_GIF1 << hdma->ChannelIndex);
 8000ebe:	2401      	movs	r4, #1
    __HAL_UNLOCK(hdma);
 8000ec0:	f44f 7580 	mov.w	r5, #256	; 0x100
    __HAL_DMA_DISABLE_IT(hdma, (DMA_IT_TC | DMA_IT_HT | DMA_IT_TE));
 8000ec4:	681a      	ldr	r2, [r3, #0]
    hdma->DmaBaseAddress->IFCR = (DMA_ISR_GIF1 << hdma->ChannelIndex);
 8000ec6:	fa04 f101 	lsl.w	r1, r4, r1
    __HAL_DMA_DISABLE_IT(hdma, (DMA_IT_TC | DMA_IT_HT | DMA_IT_TE));
 8000eca:	f022 020e 	bic.w	r2, r2, #14
 8000ece:	601a      	str	r2, [r3, #0]
    if (hdma->XferErrorCallback != NULL)
 8000ed0:	6b03      	ldr	r3, [r0, #48]	; 0x30
    hdma->DmaBaseAddress->IFCR = (DMA_ISR_GIF1 << hdma->ChannelIndex);
 8000ed2:	6071      	str	r1, [r6, #4]
    hdma->ErrorCode = HAL_DMA_ERROR_TE;
 8000ed4:	6384      	str	r4, [r0, #56]	; 0x38
    __HAL_UNLOCK(hdma);
 8000ed6:	8405      	strh	r5, [r0, #32]
    if (hdma->XferErrorCallback != NULL)
 8000ed8:	b14b      	cbz	r3, 8000eee <HAL_DMA_IRQHandler+0xde>
}
 8000eda:	bc70      	pop	{r4, r5, r6}
      hdma->XferErrorCallback(hdma);
 8000edc:	4718      	bx	r3
      __HAL_DMA_CLEAR_FLAG(hdma, __HAL_DMA_GET_TC_FLAG_INDEX(hdma));
 8000ede:	2302      	movs	r3, #2
    __HAL_UNLOCK(hdma);
 8000ee0:	2100      	movs	r1, #0
      __HAL_DMA_CLEAR_FLAG(hdma, __HAL_DMA_GET_TC_FLAG_INDEX(hdma));
 8000ee2:	4c14      	ldr	r4, [pc, #80]	; (8000f34 <HAL_DMA_IRQHandler+0x124>)
    if(hdma->XferCpltCallback != NULL)
 8000ee4:	6a82      	ldr	r2, [r0, #40]	; 0x28
      __HAL_DMA_CLEAR_FLAG(hdma, __HAL_DMA_GET_TC_FLAG_INDEX(hdma));
 8000ee6:	6063      	str	r3, [r4, #4]
    __HAL_UNLOCK(hdma);
 8000ee8:	f880 1020 	strb.w	r1, [r0, #32]
    if(hdma->XferCpltCallback != NULL)
 8000eec:	b93a      	cbnz	r2, 8000efe <HAL_DMA_IRQHandler+0xee>
}
 8000eee:	bc70      	pop	{r4, r5, r6}
 8000ef0:	4770      	bx	lr
    __HAL_DMA_CLEAR_FLAG(hdma, __HAL_DMA_GET_HT_FLAG_INDEX(hdma));
 8000ef2:	2304      	movs	r3, #4
 8000ef4:	490f      	ldr	r1, [pc, #60]	; (8000f34 <HAL_DMA_IRQHandler+0x124>)
    if(hdma->XferHalfCpltCallback != NULL)
 8000ef6:	6ac2      	ldr	r2, [r0, #44]	; 0x2c
    __HAL_DMA_CLEAR_FLAG(hdma, __HAL_DMA_GET_HT_FLAG_INDEX(hdma));
 8000ef8:	604b      	str	r3, [r1, #4]
    if(hdma->XferHalfCpltCallback != NULL)
 8000efa:	2a00      	cmp	r2, #0
 8000efc:	d0f7      	beq.n	8000eee <HAL_DMA_IRQHandler+0xde>
}
 8000efe:	bc70      	pop	{r4, r5, r6}
      hdma->XferCpltCallback(hdma);
 8000f00:	4710      	bx	r2
    __HAL_DMA_CLEAR_FLAG(hdma, __HAL_DMA_GET_HT_FLAG_INDEX(hdma));
 8000f02:	2340      	movs	r3, #64	; 0x40
 8000f04:	e7f6      	b.n	8000ef4 <HAL_DMA_IRQHandler+0xe4>
      __HAL_DMA_CLEAR_FLAG(hdma, __HAL_DMA_GET_TC_FLAG_INDEX(hdma));
 8000f06:	f44f 5300 	mov.w	r3, #8192	; 0x2000
 8000f0a:	e7e9      	b.n	8000ee0 <HAL_DMA_IRQHandler+0xd0>
    __HAL_DMA_CLEAR_FLAG(hdma, __HAL_DMA_GET_HT_FLAG_INDEX(hdma));
 8000f0c:	f44f 2380 	mov.w	r3, #262144	; 0x40000
 8000f10:	e7f0      	b.n	8000ef4 <HAL_DMA_IRQHandler+0xe4>
      __HAL_DMA_CLEAR_FLAG(hdma, __HAL_DMA_GET_TC_FLAG_INDEX(hdma));
 8000f12:	2320      	movs	r3, #32
 8000f14:	e7e4      	b.n	8000ee0 <HAL_DMA_IRQHandler+0xd0>
    __HAL_DMA_CLEAR_FLAG(hdma, __HAL_DMA_GET_HT_FLAG_INDEX(hdma));
 8000f16:	f44f 6380 	mov.w	r3, #1024	; 0x400
 8000f1a:	e7eb      	b.n	8000ef4 <HAL_DMA_IRQHandler+0xe4>
      __HAL_DMA_CLEAR_FLAG(hdma, __HAL_DMA_GET_TC_FLAG_INDEX(hdma));
 8000f1c:	f44f 7300 	mov.w	r3, #512	; 0x200
 8000f20:	e7de      	b.n	8000ee0 <HAL_DMA_IRQHandler+0xd0>
    __HAL_DMA_CLEAR_FLAG(hdma, __HAL_DMA_GET_HT_FLAG_INDEX(hdma));
 8000f22:	f44f 4380 	mov.w	r3, #16384	; 0x4000
 8000f26:	e7e5      	b.n	8000ef4 <HAL_DMA_IRQHandler+0xe4>
      __HAL_DMA_CLEAR_FLAG(hdma, __HAL_DMA_GET_TC_FLAG_INDEX(hdma));
 8000f28:	f44f 3300 	mov.w	r3, #131072	; 0x20000
 8000f2c:	e7d8      	b.n	8000ee0 <HAL_DMA_IRQHandler+0xd0>
 8000f2e:	bf00      	nop
 8000f30:	40020008 	.word	0x40020008
 8000f34:	40020000 	.word	0x40020000

08000f38 <HAL_GPIO_Init>:
  * @param  GPIO_Init: pointer to a GPIO_InitTypeDef structure that contains
  *         the configuration information for the specified GPIO peripheral.
  * @retval None
  */
void HAL_GPIO_Init(GPIO_TypeDef  *GPIOx, GPIO_InitTypeDef *GPIO_Init)
{
 8000f38:	e92d 4ff0 	stmdb	sp!, {r4, r5, r6, r7, r8, r9, sl, fp, lr}
  assert_param(IS_GPIO_ALL_INSTANCE(GPIOx));
  assert_param(IS_GPIO_PIN(GPIO_Init->Pin));
  assert_param(IS_GPIO_MODE(GPIO_Init->Mode));

  /* Configure the port pins */
  while (((GPIO_Init->Pin) >> position) != 0x00u)
 8000f3c:	680c      	ldr	r4, [r1, #0]
{
 8000f3e:	b085      	sub	sp, #20
  while (((GPIO_Init->Pin) >> position) != 0x00u)
 8000f40:	2c00      	cmp	r4, #0
 8000f42:	f000 80a1 	beq.w	8001088 <HAL_GPIO_Init+0x150>
  uint32_t config = 0x00u;
 8000f46:	2600      	movs	r6, #0
      /*--------------------- EXTI Mode Configuration ------------------------*/
      /* Configure the External Interrupt or event for the current IO */
      if ((GPIO_Init->Mode & EXTI_MODE) == EXTI_MODE)
      {
        /* Enable AFIO Clock */
        __HAL_RCC_AFIO_CLK_ENABLE();
 8000f48:	f8df c1fc 	ldr.w	ip, [pc, #508]	; 8001148 <HAL_GPIO_Init+0x210>
  uint32_t position = 0x00u;
 8000f4c:	4633      	mov	r3, r6
        {
          SET_BIT(EXTI->FTSR, iocurrent);
        }
        else
        {
          CLEAR_BIT(EXTI->FTSR, iocurrent);
 8000f4e:	4f79      	ldr	r7, [pc, #484]	; (8001134 <HAL_GPIO_Init+0x1fc>)
      switch (GPIO_Init->Mode)
 8000f50:	f8df 81f8 	ldr.w	r8, [pc, #504]	; 800114c <HAL_GPIO_Init+0x214>
 8000f54:	f8df e1f8 	ldr.w	lr, [pc, #504]	; 8001150 <HAL_GPIO_Init+0x218>
 8000f58:	9000      	str	r0, [sp, #0]
 8000f5a:	e004      	b.n	8000f66 <HAL_GPIO_Init+0x2e>
        }
      }
    }

	position++;
 8000f5c:	3301      	adds	r3, #1
  while (((GPIO_Init->Pin) >> position) != 0x00u)
 8000f5e:	fa34 f203 	lsrs.w	r2, r4, r3
 8000f62:	f000 8091 	beq.w	8001088 <HAL_GPIO_Init+0x150>
    ioposition = (0x01uL << position);
 8000f66:	2201      	movs	r2, #1
 8000f68:	409a      	lsls	r2, r3
    if (iocurrent == ioposition)
 8000f6a:	ea32 0004 	bics.w	r0, r2, r4
    iocurrent = (uint32_t)(GPIO_Init->Pin) & ioposition;
 8000f6e:	ea02 0504 	and.w	r5, r2, r4
    if (iocurrent == ioposition)
 8000f72:	d1f3      	bne.n	8000f5c <HAL_GPIO_Init+0x24>
      switch (GPIO_Init->Mode)
 8000f74:	684c      	ldr	r4, [r1, #4]
 8000f76:	2c12      	cmp	r4, #18
 8000f78:	f200 8089 	bhi.w	800108e <HAL_GPIO_Init+0x156>
 8000f7c:	2c12      	cmp	r4, #18
 8000f7e:	d80c      	bhi.n	8000f9a <HAL_GPIO_Init+0x62>
 8000f80:	e8df f004 	tbb	[pc, r4]
 8000f84:	0ac0c38e 	.word	0x0ac0c38e
 8000f88:	0b0b0b0b 	.word	0x0b0b0b0b
 8000f8c:	0b0b0b0b 	.word	0x0b0b0b0b
 8000f90:	0b0b0b0b 	.word	0x0b0b0b0b
 8000f94:	bd0b      	.short	0xbd0b
 8000f96:	ba          	.byte	0xba
 8000f97:	00          	.byte	0x00
 8000f98:	2600      	movs	r6, #0
      configregister = (iocurrent < GPIO_PIN_8) ? &GPIOx->CRL     : &GPIOx->CRH;
 8000f9a:	2dff      	cmp	r5, #255	; 0xff
 8000f9c:	f200 8087 	bhi.w	80010ae <HAL_GPIO_Init+0x176>
 8000fa0:	f8dd 9000 	ldr.w	r9, [sp]
      registeroffset = (iocurrent < GPIO_PIN_8) ? (position << 2u) : ((position - 8u) << 2u);
 8000fa4:	ea4f 0a83 	mov.w	sl, r3, lsl #2
      MODIFY_REG((*configregister), ((GPIO_CRL_MODE0 | GPIO_CRL_CNF0) << registeroffset), (config << registeroffset));
 8000fa8:	240f      	movs	r4, #15
 8000faa:	f8d9 2000 	ldr.w	r2, [r9]
 8000fae:	fa04 fb0a 	lsl.w	fp, r4, sl
 8000fb2:	ea22 020b 	bic.w	r2, r2, fp
 8000fb6:	fa06 fa0a 	lsl.w	sl, r6, sl
 8000fba:	ea42 020a 	orr.w	r2, r2, sl
 8000fbe:	f8c9 2000 	str.w	r2, [r9]
      if ((GPIO_Init->Mode & EXTI_MODE) == EXTI_MODE)
 8000fc2:	f8d1 9004 	ldr.w	r9, [r1, #4]
 8000fc6:	f019 5f80 	tst.w	r9, #268435456	; 0x10000000
 8000fca:	f000 8093 	beq.w	80010f4 <HAL_GPIO_Init+0x1bc>
        __HAL_RCC_AFIO_CLK_ENABLE();
 8000fce:	f8dc a018 	ldr.w	sl, [ip, #24]
 8000fd2:	f023 0203 	bic.w	r2, r3, #3
 8000fd6:	f04a 0a01 	orr.w	sl, sl, #1
 8000fda:	f8cc a018 	str.w	sl, [ip, #24]
 8000fde:	f8dc a018 	ldr.w	sl, [ip, #24]
 8000fe2:	f102 4280 	add.w	r2, r2, #1073741824	; 0x40000000
 8000fe6:	f00a 0a01 	and.w	sl, sl, #1
 8000fea:	f8cd a00c 	str.w	sl, [sp, #12]
 8000fee:	f502 3280 	add.w	r2, r2, #65536	; 0x10000
        CLEAR_BIT(temp, (0x0Fu) << (4u * (position & 0x03u)));
 8000ff2:	f003 0a03 	and.w	sl, r3, #3
        __HAL_RCC_AFIO_CLK_ENABLE();
 8000ff6:	f8dd b00c 	ldr.w	fp, [sp, #12]
        CLEAR_BIT(temp, (0x0Fu) << (4u * (position & 0x03u)));
 8000ffa:	ea4f 0a8a 	mov.w	sl, sl, lsl #2
        temp = AFIO->EXTICR[position >> 2u];
 8000ffe:	f8d2 b008 	ldr.w	fp, [r2, #8]
        CLEAR_BIT(temp, (0x0Fu) << (4u * (position & 0x03u)));
 8001002:	fa04 f40a 	lsl.w	r4, r4, sl
 8001006:	ea2b 0004 	bic.w	r0, fp, r4
 800100a:	9001      	str	r0, [sp, #4]
        SET_BIT(temp, (GPIO_GET_INDEX(GPIOx)) << (4u * (position & 0x03u)));
 800100c:	9c00      	ldr	r4, [sp, #0]
 800100e:	484a      	ldr	r0, [pc, #296]	; (8001138 <HAL_GPIO_Init+0x200>)
 8001010:	4284      	cmp	r4, r0
 8001012:	d016      	beq.n	8001042 <HAL_GPIO_Init+0x10a>
 8001014:	f500 6080 	add.w	r0, r0, #1024	; 0x400
 8001018:	4284      	cmp	r4, r0
 800101a:	f000 8081 	beq.w	8001120 <HAL_GPIO_Init+0x1e8>
 800101e:	4847      	ldr	r0, [pc, #284]	; (800113c <HAL_GPIO_Init+0x204>)
 8001020:	9c00      	ldr	r4, [sp, #0]
 8001022:	4284      	cmp	r4, r0
 8001024:	d073      	beq.n	800110e <HAL_GPIO_Init+0x1d6>
 8001026:	4846      	ldr	r0, [pc, #280]	; (8001140 <HAL_GPIO_Init+0x208>)
 8001028:	9c00      	ldr	r4, [sp, #0]
 800102a:	4284      	cmp	r4, r0
 800102c:	bf0c      	ite	eq
 800102e:	f04f 0b03 	moveq.w	fp, #3
 8001032:	f04f 0b04 	movne.w	fp, #4
 8001036:	9801      	ldr	r0, [sp, #4]
 8001038:	fa0b fa0a 	lsl.w	sl, fp, sl
 800103c:	ea40 000a 	orr.w	r0, r0, sl
 8001040:	9001      	str	r0, [sp, #4]
        AFIO->EXTICR[position >> 2u] = temp;
 8001042:	9801      	ldr	r0, [sp, #4]
        if ((GPIO_Init->Mode & GPIO_MODE_IT) == GPIO_MODE_IT)
 8001044:	f419 3f80 	tst.w	r9, #65536	; 0x10000
        AFIO->EXTICR[position >> 2u] = temp;
 8001048:	6090      	str	r0, [r2, #8]
          SET_BIT(EXTI->IMR, iocurrent);
 800104a:	683a      	ldr	r2, [r7, #0]
 800104c:	bf14      	ite	ne
 800104e:	432a      	orrne	r2, r5
          CLEAR_BIT(EXTI->IMR, iocurrent);
 8001050:	43aa      	biceq	r2, r5
 8001052:	603a      	str	r2, [r7, #0]
          SET_BIT(EXTI->EMR, iocurrent);
 8001054:	687a      	ldr	r2, [r7, #4]
        if ((GPIO_Init->Mode & GPIO_MODE_EVT) == GPIO_MODE_EVT)
 8001056:	f419 3f00 	tst.w	r9, #131072	; 0x20000
          SET_BIT(EXTI->EMR, iocurrent);
 800105a:	bf14      	ite	ne
 800105c:	432a      	orrne	r2, r5
          CLEAR_BIT(EXTI->EMR, iocurrent);
 800105e:	43aa      	biceq	r2, r5
 8001060:	607a      	str	r2, [r7, #4]
          SET_BIT(EXTI->RTSR, iocurrent);
 8001062:	68ba      	ldr	r2, [r7, #8]
        if ((GPIO_Init->Mode & RISING_EDGE) == RISING_EDGE)
 8001064:	f419 1f80 	tst.w	r9, #1048576	; 0x100000
          SET_BIT(EXTI->RTSR, iocurrent);
 8001068:	bf14      	ite	ne
 800106a:	432a      	orrne	r2, r5
          CLEAR_BIT(EXTI->RTSR, iocurrent);
 800106c:	43aa      	biceq	r2, r5
 800106e:	60ba      	str	r2, [r7, #8]
        if ((GPIO_Init->Mode & FALLING_EDGE) == FALLING_EDGE)
 8001070:	f419 1f00 	tst.w	r9, #2097152	; 0x200000
          SET_BIT(EXTI->FTSR, iocurrent);
 8001074:	68fa      	ldr	r2, [r7, #12]
        if ((GPIO_Init->Mode & FALLING_EDGE) == FALLING_EDGE)
 8001076:	d03a      	beq.n	80010ee <HAL_GPIO_Init+0x1b6>
          SET_BIT(EXTI->FTSR, iocurrent);
 8001078:	4315      	orrs	r5, r2
 800107a:	60fd      	str	r5, [r7, #12]
 800107c:	680c      	ldr	r4, [r1, #0]
	position++;
 800107e:	3301      	adds	r3, #1
  while (((GPIO_Init->Pin) >> position) != 0x00u)
 8001080:	fa34 f203 	lsrs.w	r2, r4, r3
 8001084:	f47f af6f 	bne.w	8000f66 <HAL_GPIO_Init+0x2e>
  }
}
 8001088:	b005      	add	sp, #20
 800108a:	e8bd 8ff0 	ldmia.w	sp!, {r4, r5, r6, r7, r8, r9, sl, fp, pc}
      switch (GPIO_Init->Mode)
 800108e:	4544      	cmp	r4, r8
 8001090:	d006      	beq.n	80010a0 <HAL_GPIO_Init+0x168>
 8001092:	d914      	bls.n	80010be <HAL_GPIO_Init+0x186>
 8001094:	4574      	cmp	r4, lr
 8001096:	d003      	beq.n	80010a0 <HAL_GPIO_Init+0x168>
 8001098:	482a      	ldr	r0, [pc, #168]	; (8001144 <HAL_GPIO_Init+0x20c>)
 800109a:	4284      	cmp	r4, r0
 800109c:	f47f af7d 	bne.w	8000f9a <HAL_GPIO_Init+0x62>
          if (GPIO_Init->Pull == GPIO_NOPULL)
 80010a0:	688c      	ldr	r4, [r1, #8]
 80010a2:	b9e4      	cbnz	r4, 80010de <HAL_GPIO_Init+0x1a6>
      configregister = (iocurrent < GPIO_PIN_8) ? &GPIOx->CRL     : &GPIOx->CRH;
 80010a4:	2dff      	cmp	r5, #255	; 0xff
            config = GPIO_CR_MODE_INPUT + GPIO_CR_CNF_INPUT_FLOATING;
 80010a6:	f04f 0604 	mov.w	r6, #4
      configregister = (iocurrent < GPIO_PIN_8) ? &GPIOx->CRL     : &GPIOx->CRH;
 80010aa:	f67f af79 	bls.w	8000fa0 <HAL_GPIO_Init+0x68>
 80010ae:	9a00      	ldr	r2, [sp, #0]
      registeroffset = (iocurrent < GPIO_PIN_8) ? (position << 2u) : ((position - 8u) << 2u);
 80010b0:	ea4f 0a83 	mov.w	sl, r3, lsl #2
 80010b4:	f1aa 0a20 	sub.w	sl, sl, #32
      configregister = (iocurrent < GPIO_PIN_8) ? &GPIOx->CRL     : &GPIOx->CRH;
 80010b8:	f102 0904 	add.w	r9, r2, #4
      registeroffset = (iocurrent < GPIO_PIN_8) ? (position << 2u) : ((position - 8u) << 2u);
 80010bc:	e774      	b.n	8000fa8 <HAL_GPIO_Init+0x70>
      switch (GPIO_Init->Mode)
 80010be:	f8df 9094 	ldr.w	r9, [pc, #148]	; 8001154 <HAL_GPIO_Init+0x21c>
 80010c2:	454c      	cmp	r4, r9
 80010c4:	d0ec      	beq.n	80010a0 <HAL_GPIO_Init+0x168>
 80010c6:	f509 2970 	add.w	r9, r9, #983040	; 0xf0000
 80010ca:	454c      	cmp	r4, r9
 80010cc:	d0e8      	beq.n	80010a0 <HAL_GPIO_Init+0x168>
 80010ce:	f5a9 1980 	sub.w	r9, r9, #1048576	; 0x100000
 80010d2:	454c      	cmp	r4, r9
 80010d4:	f47f af61 	bne.w	8000f9a <HAL_GPIO_Init+0x62>
          if (GPIO_Init->Pull == GPIO_NOPULL)
 80010d8:	688c      	ldr	r4, [r1, #8]
 80010da:	2c00      	cmp	r4, #0
 80010dc:	d0e2      	beq.n	80010a4 <HAL_GPIO_Init+0x16c>
            GPIOx->BSRR = ioposition;
 80010de:	9800      	ldr	r0, [sp, #0]
          else if (GPIO_Init->Pull == GPIO_PULLUP)
 80010e0:	2c01      	cmp	r4, #1
            config = GPIO_CR_MODE_INPUT + GPIO_CR_CNF_INPUT_PU_PD;
 80010e2:	f04f 0608 	mov.w	r6, #8
            GPIOx->BSRR = ioposition;
 80010e6:	bf0c      	ite	eq
 80010e8:	6102      	streq	r2, [r0, #16]
            GPIOx->BRR = ioposition;
 80010ea:	6142      	strne	r2, [r0, #20]
 80010ec:	e755      	b.n	8000f9a <HAL_GPIO_Init+0x62>
          CLEAR_BIT(EXTI->FTSR, iocurrent);
 80010ee:	ea22 0505 	bic.w	r5, r2, r5
 80010f2:	60fd      	str	r5, [r7, #12]
 80010f4:	680c      	ldr	r4, [r1, #0]
 80010f6:	e731      	b.n	8000f5c <HAL_GPIO_Init+0x24>
          config = GPIO_Init->Speed + GPIO_CR_CNF_AF_OUTPUT_OD;
 80010f8:	68ce      	ldr	r6, [r1, #12]
 80010fa:	360c      	adds	r6, #12
          break;
 80010fc:	e74d      	b.n	8000f9a <HAL_GPIO_Init+0x62>
          config = GPIO_Init->Speed + GPIO_CR_CNF_GP_OUTPUT_OD;
 80010fe:	68ce      	ldr	r6, [r1, #12]
 8001100:	3604      	adds	r6, #4
          break;
 8001102:	e74a      	b.n	8000f9a <HAL_GPIO_Init+0x62>
          config = GPIO_Init->Speed + GPIO_CR_CNF_AF_OUTPUT_PP;
 8001104:	68ce      	ldr	r6, [r1, #12]
 8001106:	3608      	adds	r6, #8
          break;
 8001108:	e747      	b.n	8000f9a <HAL_GPIO_Init+0x62>
          config = GPIO_Init->Speed + GPIO_CR_CNF_GP_OUTPUT_PP;
 800110a:	68ce      	ldr	r6, [r1, #12]
          break;
 800110c:	e745      	b.n	8000f9a <HAL_GPIO_Init+0x62>
 800110e:	f04f 0b02 	mov.w	fp, #2
 8001112:	9801      	ldr	r0, [sp, #4]
 8001114:	fa0b fa0a 	lsl.w	sl, fp, sl
 8001118:	ea40 000a 	orr.w	r0, r0, sl
 800111c:	9001      	str	r0, [sp, #4]
 800111e:	e790      	b.n	8001042 <HAL_GPIO_Init+0x10a>
 8001120:	f04f 0b01 	mov.w	fp, #1
 8001124:	9801      	ldr	r0, [sp, #4]
 8001126:	fa0b fa0a 	lsl.w	sl, fp, sl
 800112a:	ea40 000a 	orr.w	r0, r0, sl
 800112e:	9001      	str	r0, [sp, #4]
 8001130:	e787      	b.n	8001042 <HAL_GPIO_Init+0x10a>
 8001132:	bf00      	nop
 8001134:	40010400 	.word	0x40010400
 8001138:	40010800 	.word	0x40010800
 800113c:	40011000 	.word	0x40011000
 8001140:	40011400 	.word	0x40011400
 8001144:	10320000 	.word	0x10320000
 8001148:	40021000 	.word	0x40021000
 800114c:	10220000 	.word	0x10220000
 8001150:	10310000 	.word	0x10310000
 8001154:	10120000 	.word	0x10120000

08001158 <HAL_GPIO_ReadPin>:
  GPIO_PinState bitstatus;

  /* Check the parameters */
  assert_param(IS_GPIO_PIN(GPIO_Pin));

  if ((GPIOx->IDR & GPIO_Pin) != (uint32_t)GPIO_PIN_RESET)
 8001158:	6883      	ldr	r3, [r0, #8]
 800115a:	4219      	tst	r1, r3
  else
  {
    bitstatus = GPIO_PIN_RESET;
  }
  return bitstatus;
}
 800115c:	bf14      	ite	ne
 800115e:	2001      	movne	r0, #1
 8001160:	2000      	moveq	r0, #0
 8001162:	4770      	bx	lr

08001164 <HAL_GPIO_WritePin>:
{
  /* Check the parameters */
  assert_param(IS_GPIO_PIN(GPIO_Pin));
  assert_param(IS_GPIO_PIN_ACTION(PinState));

  if (PinState != GPIO_PIN_RESET)
 8001164:	b902      	cbnz	r2, 8001168 <HAL_GPIO_WritePin+0x4>
  {
    GPIOx->BSRR = GPIO_Pin;
  }
  else
  {
    GPIOx->BSRR = (uint32_t)GPIO_Pin << 16u;
 8001166:	0409      	lsls	r1, r1, #16
 8001168:	6101      	str	r1, [r0, #16]
  }
}
 800116a:	4770      	bx	lr

0800116c <HAL_GPIO_TogglePin>:

  /* Check the parameters */
  assert_param(IS_GPIO_PIN(GPIO_Pin));

  /* get current Ouput Data Register value */
  odr = GPIOx->ODR;
 800116c:	68c3      	ldr	r3, [r0, #12]

  /* Set selected pins that were at low level, and reset ones that were high */
  GPIOx->BSRR = ((odr & GPIO_Pin) << GPIO_NUMBER) | (~odr & GPIO_Pin);
 800116e:	ea01 0203 	and.w	r2, r1, r3
 8001172:	ea21 0103 	bic.w	r1, r1, r3
 8001176:	ea41 4102 	orr.w	r1, r1, r2, lsl #16
 800117a:	6101      	str	r1, [r0, #16]
}
 800117c:	4770      	bx	lr
 800117e:	bf00      	nop

08001180 <HAL_PCD_Init>:
  *         parameters in the PCD_InitTypeDef and initialize the associated handle.
  * @param  hpcd PCD handle
  * @retval HAL status
  */
HAL_StatusTypeDef HAL_PCD_Init(PCD_HandleTypeDef *hpcd)
{
 8001180:	b5f0      	push	{r4, r5, r6, r7, lr}
 8001182:	b087      	sub	sp, #28
  USB_OTG_GlobalTypeDef *USBx;
#endif /* defined (USB_OTG_FS) */
  uint8_t i;

  /* Check the PCD handle allocation */
  if (hpcd == NULL)
 8001184:	2800      	cmp	r0, #0
 8001186:	d072      	beq.n	800126e <HAL_PCD_Init+0xee>

#if defined (USB_OTG_FS)
  USBx = hpcd->Instance;
#endif /* defined (USB_OTG_FS) */

  if (hpcd->State == HAL_PCD_STATE_RESET)
 8001188:	f890 32a9 	ldrb.w	r3, [r0, #681]	; 0x2a9
 800118c:	4605      	mov	r5, r0
 800118e:	f003 02ff 	and.w	r2, r3, #255	; 0xff
 8001192:	2b00      	cmp	r3, #0
 8001194:	d066      	beq.n	8001264 <HAL_PCD_Init+0xe4>
    /* Init the low level hardware : GPIO, CLOCK, NVIC... */
    HAL_PCD_MspInit(hpcd);
#endif /* (USE_HAL_PCD_REGISTER_CALLBACKS) */
  }

  hpcd->State = HAL_PCD_STATE_BUSY;
 8001196:	2303      	movs	r3, #3

  /* Disable the Interrupts */
  __HAL_PCD_DISABLE(hpcd);

  /*Init the Core (common init.) */
  if (USB_CoreInit(hpcd->Instance, hpcd->Init) != HAL_OK)
 8001198:	462e      	mov	r6, r5
  hpcd->State = HAL_PCD_STATE_BUSY;
 800119a:	f885 32a9 	strb.w	r3, [r5, #681]	; 0x2a9
  __HAL_PCD_DISABLE(hpcd);
 800119e:	6828      	ldr	r0, [r5, #0]
 80011a0:	f000 fed4 	bl	8001f4c <USB_DisableGlobalInt>
  if (USB_CoreInit(hpcd->Instance, hpcd->Init) != HAL_OK)
 80011a4:	f856 cb10 	ldr.w	ip, [r6], #16
 80011a8:	466c      	mov	r4, sp
 80011aa:	4637      	mov	r7, r6
 80011ac:	cf0f      	ldmia	r7!, {r0, r1, r2, r3}
 80011ae:	c40f      	stmia	r4!, {r0, r1, r2, r3}
 80011b0:	683b      	ldr	r3, [r7, #0]
 80011b2:	1d2f      	adds	r7, r5, #4
 80011b4:	6023      	str	r3, [r4, #0]
 80011b6:	4660      	mov	r0, ip
 80011b8:	e897 000e 	ldmia.w	r7, {r1, r2, r3}
 80011bc:	f000 febe 	bl	8001f3c <USB_CoreInit>
 80011c0:	4604      	mov	r4, r0
 80011c2:	b130      	cbz	r0, 80011d2 <HAL_PCD_Init+0x52>

  /* Init Device */
  if (USB_DevInit(hpcd->Instance, hpcd->Init) != HAL_OK)
  {
    hpcd->State = HAL_PCD_STATE_ERROR;
    return HAL_ERROR;
 80011c4:	2401      	movs	r4, #1
    hpcd->State = HAL_PCD_STATE_ERROR;
 80011c6:	2302      	movs	r3, #2
  hpcd->USB_Address = 0U;
  hpcd->State = HAL_PCD_STATE_READY;
  (void)USB_DevDisconnect(hpcd->Instance);

  return HAL_OK;
}
 80011c8:	4620      	mov	r0, r4
    hpcd->State = HAL_PCD_STATE_ERROR;
 80011ca:	f885 32a9 	strb.w	r3, [r5, #681]	; 0x2a9
}
 80011ce:	b007      	add	sp, #28
 80011d0:	bdf0      	pop	{r4, r5, r6, r7, pc}
  (void)USB_SetCurrentMode(hpcd->Instance, USB_DEVICE_MODE);
 80011d2:	4601      	mov	r1, r0
 80011d4:	6828      	ldr	r0, [r5, #0]
 80011d6:	f000 fec3 	bl	8001f60 <USB_SetCurrentMode>
  for (i = 0U; i < hpcd->Init.dev_endpoints; i++)
 80011da:	6868      	ldr	r0, [r5, #4]
 80011dc:	b350      	cbz	r0, 8001234 <HAL_PCD_Init+0xb4>
 80011de:	4622      	mov	r2, r4
    hpcd->IN_ep[i].is_in = 1U;
 80011e0:	f04f 0e01 	mov.w	lr, #1
    hpcd->IN_ep[i].type = EP_TYPE_CTRL;
 80011e4:	4621      	mov	r1, r4
    hpcd->IN_ep[i].is_in = 1U;
 80011e6:	eb02 0382 	add.w	r3, r2, r2, lsl #2
 80011ea:	eb05 03c3 	add.w	r3, r5, r3, lsl #3
  for (i = 0U; i < hpcd->Init.dev_endpoints; i++)
 80011ee:	f102 0c01 	add.w	ip, r2, #1
    hpcd->IN_ep[i].num = i;
 80011f2:	f883 2028 	strb.w	r2, [r3, #40]	; 0x28
    hpcd->IN_ep[i].tx_fifo_num = i;
 80011f6:	86da      	strh	r2, [r3, #54]	; 0x36
  for (i = 0U; i < hpcd->Init.dev_endpoints; i++)
 80011f8:	fa5f f28c 	uxtb.w	r2, ip
 80011fc:	4282      	cmp	r2, r0
    hpcd->IN_ep[i].xfer_buff = 0U;
 80011fe:	e9c3 110e 	strd	r1, r1, [r3, #56]	; 0x38
    hpcd->IN_ep[i].is_in = 1U;
 8001202:	f883 e029 	strb.w	lr, [r3, #41]	; 0x29
    hpcd->IN_ep[i].type = EP_TYPE_CTRL;
 8001206:	f883 102b 	strb.w	r1, [r3, #43]	; 0x2b
    hpcd->IN_ep[i].xfer_len = 0U;
 800120a:	6419      	str	r1, [r3, #64]	; 0x40
  for (i = 0U; i < hpcd->Init.dev_endpoints; i++)
 800120c:	d3eb      	bcc.n	80011e6 <HAL_PCD_Init+0x66>
    hpcd->OUT_ep[i].is_in = 0U;
 800120e:	2200      	movs	r2, #0
 8001210:	eb04 0384 	add.w	r3, r4, r4, lsl #2
 8001214:	eb05 03c3 	add.w	r3, r5, r3, lsl #3
  for (i = 0U; i < hpcd->Init.dev_endpoints; i++)
 8001218:	1c61      	adds	r1, r4, #1
    hpcd->OUT_ep[i].num = i;
 800121a:	f883 4168 	strb.w	r4, [r3, #360]	; 0x168
  for (i = 0U; i < hpcd->Init.dev_endpoints; i++)
 800121e:	b2cc      	uxtb	r4, r1
 8001220:	4284      	cmp	r4, r0
    hpcd->OUT_ep[i].xfer_buff = 0U;
 8001222:	e9c3 225e 	strd	r2, r2, [r3, #376]	; 0x178
    hpcd->OUT_ep[i].is_in = 0U;
 8001226:	f883 2169 	strb.w	r2, [r3, #361]	; 0x169
    hpcd->OUT_ep[i].type = EP_TYPE_CTRL;
 800122a:	f883 216b 	strb.w	r2, [r3, #363]	; 0x16b
    hpcd->OUT_ep[i].xfer_len = 0U;
 800122e:	f8c3 2180 	str.w	r2, [r3, #384]	; 0x180
  for (i = 0U; i < hpcd->Init.dev_endpoints; i++)
 8001232:	d3ed      	bcc.n	8001210 <HAL_PCD_Init+0x90>
  if (USB_DevInit(hpcd->Instance, hpcd->Init) != HAL_OK)
 8001234:	ce0f      	ldmia	r6!, {r0, r1, r2, r3}
 8001236:	466c      	mov	r4, sp
 8001238:	c40f      	stmia	r4!, {r0, r1, r2, r3}
 800123a:	6836      	ldr	r6, [r6, #0]
 800123c:	6828      	ldr	r0, [r5, #0]
 800123e:	e897 000e 	ldmia.w	r7, {r1, r2, r3}
 8001242:	6026      	str	r6, [r4, #0]
 8001244:	f000 fe8e 	bl	8001f64 <USB_DevInit>
 8001248:	4604      	mov	r4, r0
 800124a:	2800      	cmp	r0, #0
 800124c:	d1ba      	bne.n	80011c4 <HAL_PCD_Init+0x44>
  hpcd->State = HAL_PCD_STATE_READY;
 800124e:	2301      	movs	r3, #1
  hpcd->USB_Address = 0U;
 8001250:	f885 0024 	strb.w	r0, [r5, #36]	; 0x24
  (void)USB_DevDisconnect(hpcd->Instance);
 8001254:	6828      	ldr	r0, [r5, #0]
  hpcd->State = HAL_PCD_STATE_READY;
 8001256:	f885 32a9 	strb.w	r3, [r5, #681]	; 0x2a9
  (void)USB_DevDisconnect(hpcd->Instance);
 800125a:	f000 fe97 	bl	8001f8c <USB_DevDisconnect>
}
 800125e:	4620      	mov	r0, r4
 8001260:	b007      	add	sp, #28
 8001262:	bdf0      	pop	{r4, r5, r6, r7, pc}
    hpcd->Lock = HAL_UNLOCKED;
 8001264:	f880 22a8 	strb.w	r2, [r0, #680]	; 0x2a8
    HAL_PCD_MspInit(hpcd);
 8001268:	f7ff faae 	bl	80007c8 <HAL_PCD_MspInit>
 800126c:	e793      	b.n	8001196 <HAL_PCD_Init+0x16>
    return HAL_ERROR;
 800126e:	2401      	movs	r4, #1
}
 8001270:	4620      	mov	r0, r4
 8001272:	b007      	add	sp, #28
 8001274:	bdf0      	pop	{r4, r5, r6, r7, pc}
 8001276:	bf00      	nop

08001278 <HAL_RCC_OscConfig>:
{
  uint32_t tickstart;
  uint32_t pll_config;

  /* Check Null pointer */
  if (RCC_OscInitStruct == NULL)
 8001278:	2800      	cmp	r0, #0
 800127a:	f000 81c3 	beq.w	8001604 <HAL_RCC_OscConfig+0x38c>
{
 800127e:	e92d 41f0 	stmdb	sp!, {r4, r5, r6, r7, r8, lr}

  /* Check the parameters */
  assert_param(IS_RCC_OSCILLATORTYPE(RCC_OscInitStruct->OscillatorType));

  /*------------------------------- HSE Configuration ------------------------*/
  if (((RCC_OscInitStruct->OscillatorType) & RCC_OSCILLATORTYPE_HSE) == RCC_OSCILLATORTYPE_HSE)
 8001282:	6803      	ldr	r3, [r0, #0]
 8001284:	4604      	mov	r4, r0
 8001286:	07dd      	lsls	r5, r3, #31
{
 8001288:	b082      	sub	sp, #8
  if (((RCC_OscInitStruct->OscillatorType) & RCC_OSCILLATORTYPE_HSE) == RCC_OSCILLATORTYPE_HSE)
 800128a:	d535      	bpl.n	80012f8 <HAL_RCC_OscConfig+0x80>
  {
    /* Check the parameters */
    assert_param(IS_RCC_HSE(RCC_OscInitStruct->HSEState));

    /* When the HSE is used as system clock or clock source for PLL in these cases it is not allowed to be disabled */
    if ((__HAL_RCC_GET_SYSCLK_SOURCE() == RCC_SYSCLKSOURCE_STATUS_HSE)
 800128c:	49a6      	ldr	r1, [pc, #664]	; (8001528 <HAL_RCC_OscConfig+0x2b0>)
 800128e:	684a      	ldr	r2, [r1, #4]
 8001290:	f002 020c 	and.w	r2, r2, #12
 8001294:	2a04      	cmp	r2, #4
 8001296:	f000 80ef 	beq.w	8001478 <HAL_RCC_OscConfig+0x200>
        || ((__HAL_RCC_GET_SYSCLK_SOURCE() == RCC_SYSCLKSOURCE_STATUS_PLLCLK) && (__HAL_RCC_GET_PLL_OSCSOURCE() == RCC_PLLSOURCE_HSE)))
 800129a:	684a      	ldr	r2, [r1, #4]
 800129c:	f002 020c 	and.w	r2, r2, #12
 80012a0:	2a08      	cmp	r2, #8
 80012a2:	f000 80e5 	beq.w	8001470 <HAL_RCC_OscConfig+0x1f8>
      }
    }
    else
    {
      /* Set the new HSE configuration ---------------------------------------*/
      __HAL_RCC_HSE_CONFIG(RCC_OscInitStruct->HSEState);
 80012a6:	6863      	ldr	r3, [r4, #4]
 80012a8:	f5b3 3f80 	cmp.w	r3, #65536	; 0x10000
 80012ac:	d010      	beq.n	80012d0 <HAL_RCC_OscConfig+0x58>
 80012ae:	2b00      	cmp	r3, #0
 80012b0:	f000 810d 	beq.w	80014ce <HAL_RCC_OscConfig+0x256>
 80012b4:	f5b3 2fa0 	cmp.w	r3, #327680	; 0x50000
 80012b8:	f000 818f 	beq.w	80015da <HAL_RCC_OscConfig+0x362>
 80012bc:	4b9a      	ldr	r3, [pc, #616]	; (8001528 <HAL_RCC_OscConfig+0x2b0>)
 80012be:	681a      	ldr	r2, [r3, #0]
 80012c0:	f422 3280 	bic.w	r2, r2, #65536	; 0x10000
 80012c4:	601a      	str	r2, [r3, #0]
 80012c6:	681a      	ldr	r2, [r3, #0]
 80012c8:	f422 2280 	bic.w	r2, r2, #262144	; 0x40000
 80012cc:	601a      	str	r2, [r3, #0]
 80012ce:	e004      	b.n	80012da <HAL_RCC_OscConfig+0x62>
 80012d0:	4a95      	ldr	r2, [pc, #596]	; (8001528 <HAL_RCC_OscConfig+0x2b0>)
 80012d2:	6813      	ldr	r3, [r2, #0]
 80012d4:	f443 3380 	orr.w	r3, r3, #65536	; 0x10000
 80012d8:	6013      	str	r3, [r2, #0]

      /* Check the HSE State */
      if (RCC_OscInitStruct->HSEState != RCC_HSE_OFF)
      {
        /* Get Start Tick */
        tickstart = HAL_GetTick();
 80012da:	f7ff fc31 	bl	8000b40 <HAL_GetTick>

        /* Wait till HSE is ready */
        while (__HAL_RCC_GET_FLAG(RCC_FLAG_HSERDY) == RESET)
 80012de:	4e92      	ldr	r6, [pc, #584]	; (8001528 <HAL_RCC_OscConfig+0x2b0>)
        tickstart = HAL_GetTick();
 80012e0:	4605      	mov	r5, r0
        while (__HAL_RCC_GET_FLAG(RCC_FLAG_HSERDY) == RESET)
 80012e2:	e005      	b.n	80012f0 <HAL_RCC_OscConfig+0x78>
        {
          if ((HAL_GetTick() - tickstart) > HSE_TIMEOUT_VALUE)
 80012e4:	f7ff fc2c 	bl	8000b40 <HAL_GetTick>
 80012e8:	1b40      	subs	r0, r0, r5
 80012ea:	2864      	cmp	r0, #100	; 0x64
 80012ec:	f200 80eb 	bhi.w	80014c6 <HAL_RCC_OscConfig+0x24e>
        while (__HAL_RCC_GET_FLAG(RCC_FLAG_HSERDY) == RESET)
 80012f0:	6833      	ldr	r3, [r6, #0]
 80012f2:	039a      	lsls	r2, r3, #14
 80012f4:	d5f6      	bpl.n	80012e4 <HAL_RCC_OscConfig+0x6c>
 80012f6:	6823      	ldr	r3, [r4, #0]
        }
      }
    }
  }
  /*----------------------------- HSI Configuration --------------------------*/
  if (((RCC_OscInitStruct->OscillatorType) & RCC_OSCILLATORTYPE_HSI) == RCC_OSCILLATORTYPE_HSI)
 80012f8:	079f      	lsls	r7, r3, #30
 80012fa:	d528      	bpl.n	800134e <HAL_RCC_OscConfig+0xd6>
    /* Check the parameters */
    assert_param(IS_RCC_HSI(RCC_OscInitStruct->HSIState));
    assert_param(IS_RCC_CALIBRATION_VALUE(RCC_OscInitStruct->HSICalibrationValue));

    /* Check if HSI is used as system clock or as PLL source when PLL is selected as system clock */
    if ((__HAL_RCC_GET_SYSCLK_SOURCE() == RCC_SYSCLKSOURCE_STATUS_HSI)
 80012fc:	4a8a      	ldr	r2, [pc, #552]	; (8001528 <HAL_RCC_OscConfig+0x2b0>)
 80012fe:	6851      	ldr	r1, [r2, #4]
 8001300:	f011 0f0c 	tst.w	r1, #12
 8001304:	f000 808e 	beq.w	8001424 <HAL_RCC_OscConfig+0x1ac>
        || ((__HAL_RCC_GET_SYSCLK_SOURCE() == RCC_SYSCLKSOURCE_STATUS_PLLCLK) && (__HAL_RCC_GET_PLL_OSCSOURCE() == RCC_PLLSOURCE_HSI_DIV2)))
 8001308:	6851      	ldr	r1, [r2, #4]
 800130a:	f001 010c 	and.w	r1, r1, #12
 800130e:	2908      	cmp	r1, #8
 8001310:	f000 8084 	beq.w	800141c <HAL_RCC_OscConfig+0x1a4>
      }
    }
    else
    {
      /* Check the HSI State */
      if (RCC_OscInitStruct->HSIState != RCC_HSI_OFF)
 8001314:	6923      	ldr	r3, [r4, #16]
 8001316:	2b00      	cmp	r3, #0
 8001318:	f000 8125 	beq.w	8001566 <HAL_RCC_OscConfig+0x2ee>
      {
        /* Enable the Internal High Speed oscillator (HSI). */
        __HAL_RCC_HSI_ENABLE();
 800131c:	2201      	movs	r2, #1
 800131e:	4b83      	ldr	r3, [pc, #524]	; (800152c <HAL_RCC_OscConfig+0x2b4>)

        /* Get Start Tick */
        tickstart = HAL_GetTick();

        /* Wait till HSI is ready */
        while (__HAL_RCC_GET_FLAG(RCC_FLAG_HSIRDY) == RESET)
 8001320:	4e81      	ldr	r6, [pc, #516]	; (8001528 <HAL_RCC_OscConfig+0x2b0>)
        __HAL_RCC_HSI_ENABLE();
 8001322:	601a      	str	r2, [r3, #0]
        tickstart = HAL_GetTick();
 8001324:	f7ff fc0c 	bl	8000b40 <HAL_GetTick>
 8001328:	4605      	mov	r5, r0
        while (__HAL_RCC_GET_FLAG(RCC_FLAG_HSIRDY) == RESET)
 800132a:	e005      	b.n	8001338 <HAL_RCC_OscConfig+0xc0>
        {
          if ((HAL_GetTick() - tickstart) > HSI_TIMEOUT_VALUE)
 800132c:	f7ff fc08 	bl	8000b40 <HAL_GetTick>
 8001330:	1b40      	subs	r0, r0, r5
 8001332:	2802      	cmp	r0, #2
 8001334:	f200 80c7 	bhi.w	80014c6 <HAL_RCC_OscConfig+0x24e>
        while (__HAL_RCC_GET_FLAG(RCC_FLAG_HSIRDY) == RESET)
 8001338:	6833      	ldr	r3, [r6, #0]
 800133a:	0798      	lsls	r0, r3, #30
 800133c:	d5f6      	bpl.n	800132c <HAL_RCC_OscConfig+0xb4>
            return HAL_TIMEOUT;
          }
        }

        /* Adjusts the Internal High Speed oscillator (HSI) calibration value.*/
        __HAL_RCC_HSI_CALIBRATIONVALUE_ADJUST(RCC_OscInitStruct->HSICalibrationValue);
 800133e:	6833      	ldr	r3, [r6, #0]
 8001340:	6962      	ldr	r2, [r4, #20]
 8001342:	f023 03f8 	bic.w	r3, r3, #248	; 0xf8
 8001346:	ea43 03c2 	orr.w	r3, r3, r2, lsl #3
 800134a:	6033      	str	r3, [r6, #0]
 800134c:	6823      	ldr	r3, [r4, #0]
        }
      }
    }
  }
  /*------------------------------ LSI Configuration -------------------------*/
  if (((RCC_OscInitStruct->OscillatorType) & RCC_OSCILLATORTYPE_LSI) == RCC_OSCILLATORTYPE_LSI)
 800134e:	071a      	lsls	r2, r3, #28
 8001350:	d41f      	bmi.n	8001392 <HAL_RCC_OscConfig+0x11a>
        }
      }
    }
  }
  /*------------------------------ LSE Configuration -------------------------*/
  if (((RCC_OscInitStruct->OscillatorType) & RCC_OSCILLATORTYPE_LSE) == RCC_OSCILLATORTYPE_LSE)
 8001352:	075d      	lsls	r5, r3, #29
 8001354:	d541      	bpl.n	80013da <HAL_RCC_OscConfig+0x162>
    /* Check the parameters */
    assert_param(IS_RCC_LSE(RCC_OscInitStruct->LSEState));

    /* Update LSE configuration in Backup Domain control register    */
    /* Requires to enable write access to Backup Domain of necessary */
    if (__HAL_RCC_PWR_IS_CLK_DISABLED())
 8001356:	4b74      	ldr	r3, [pc, #464]	; (8001528 <HAL_RCC_OscConfig+0x2b0>)
 8001358:	69da      	ldr	r2, [r3, #28]
 800135a:	00d0      	lsls	r0, r2, #3
 800135c:	d57d      	bpl.n	800145a <HAL_RCC_OscConfig+0x1e2>
    FlagStatus       pwrclkchanged = RESET;
 800135e:	2500      	movs	r5, #0
    {
      __HAL_RCC_PWR_CLK_ENABLE();
      pwrclkchanged = SET;
    }

    if (HAL_IS_BIT_CLR(PWR->CR, PWR_CR_DBP))
 8001360:	4b73      	ldr	r3, [pc, #460]	; (8001530 <HAL_RCC_OscConfig+0x2b8>)
 8001362:	681a      	ldr	r2, [r3, #0]
 8001364:	05d1      	lsls	r1, r2, #23
 8001366:	f140 809d 	bpl.w	80014a4 <HAL_RCC_OscConfig+0x22c>
        }
      }
    }

    /* Set the new LSE configuration -----------------------------------------*/
    __HAL_RCC_LSE_CONFIG(RCC_OscInitStruct->LSEState);
 800136a:	68e3      	ldr	r3, [r4, #12]
 800136c:	2b01      	cmp	r3, #1
 800136e:	f000 810b 	beq.w	8001588 <HAL_RCC_OscConfig+0x310>
 8001372:	2b00      	cmp	r3, #0
 8001374:	f000 80c5 	beq.w	8001502 <HAL_RCC_OscConfig+0x28a>
 8001378:	2b05      	cmp	r3, #5
 800137a:	4b6b      	ldr	r3, [pc, #428]	; (8001528 <HAL_RCC_OscConfig+0x2b0>)
 800137c:	6a1a      	ldr	r2, [r3, #32]
 800137e:	f000 8139 	beq.w	80015f4 <HAL_RCC_OscConfig+0x37c>
 8001382:	f022 0201 	bic.w	r2, r2, #1
 8001386:	621a      	str	r2, [r3, #32]
 8001388:	6a1a      	ldr	r2, [r3, #32]
 800138a:	f022 0204 	bic.w	r2, r2, #4
 800138e:	621a      	str	r2, [r3, #32]
 8001390:	e0ff      	b.n	8001592 <HAL_RCC_OscConfig+0x31a>
    if (RCC_OscInitStruct->LSIState != RCC_LSI_OFF)
 8001392:	69a3      	ldr	r3, [r4, #24]
 8001394:	2b00      	cmp	r3, #0
 8001396:	d050      	beq.n	800143a <HAL_RCC_OscConfig+0x1c2>
      __HAL_RCC_LSI_ENABLE();
 8001398:	2201      	movs	r2, #1
 800139a:	4b66      	ldr	r3, [pc, #408]	; (8001534 <HAL_RCC_OscConfig+0x2bc>)
      while (__HAL_RCC_GET_FLAG(RCC_FLAG_LSIRDY) == RESET)
 800139c:	4e62      	ldr	r6, [pc, #392]	; (8001528 <HAL_RCC_OscConfig+0x2b0>)
      __HAL_RCC_LSI_ENABLE();
 800139e:	601a      	str	r2, [r3, #0]
      tickstart = HAL_GetTick();
 80013a0:	f7ff fbce 	bl	8000b40 <HAL_GetTick>
 80013a4:	4605      	mov	r5, r0
      while (__HAL_RCC_GET_FLAG(RCC_FLAG_LSIRDY) == RESET)
 80013a6:	e005      	b.n	80013b4 <HAL_RCC_OscConfig+0x13c>
        if ((HAL_GetTick() - tickstart) > LSI_TIMEOUT_VALUE)
 80013a8:	f7ff fbca 	bl	8000b40 <HAL_GetTick>
 80013ac:	1b40      	subs	r0, r0, r5
 80013ae:	2802      	cmp	r0, #2
 80013b0:	f200 8089 	bhi.w	80014c6 <HAL_RCC_OscConfig+0x24e>
      while (__HAL_RCC_GET_FLAG(RCC_FLAG_LSIRDY) == RESET)
 80013b4:	6a73      	ldr	r3, [r6, #36]	; 0x24
 80013b6:	079b      	lsls	r3, r3, #30
 80013b8:	d5f6      	bpl.n	80013a8 <HAL_RCC_OscConfig+0x130>
  * @param  mdelay: specifies the delay time length, in milliseconds.
  * @retval None
  */
static void RCC_Delay(uint32_t mdelay)
{
  __IO uint32_t Delay = mdelay * (SystemCoreClock / 8U / 1000U);
 80013ba:	4b5f      	ldr	r3, [pc, #380]	; (8001538 <HAL_RCC_OscConfig+0x2c0>)
 80013bc:	4a5f      	ldr	r2, [pc, #380]	; (800153c <HAL_RCC_OscConfig+0x2c4>)
 80013be:	681b      	ldr	r3, [r3, #0]
 80013c0:	fba2 2303 	umull	r2, r3, r2, r3
 80013c4:	0a5b      	lsrs	r3, r3, #9
 80013c6:	9301      	str	r3, [sp, #4]
  do
  {
    __NOP();
 80013c8:	bf00      	nop
  }
  while (Delay --);
 80013ca:	9b01      	ldr	r3, [sp, #4]
 80013cc:	1e5a      	subs	r2, r3, #1
 80013ce:	9201      	str	r2, [sp, #4]
 80013d0:	2b00      	cmp	r3, #0
 80013d2:	d1f9      	bne.n	80013c8 <HAL_RCC_OscConfig+0x150>
 80013d4:	6823      	ldr	r3, [r4, #0]
  if (((RCC_OscInitStruct->OscillatorType) & RCC_OSCILLATORTYPE_LSE) == RCC_OSCILLATORTYPE_LSE)
 80013d6:	075d      	lsls	r5, r3, #29
 80013d8:	d4bd      	bmi.n	8001356 <HAL_RCC_OscConfig+0xde>
  if ((RCC_OscInitStruct->PLL.PLLState) != RCC_PLL_NONE)
 80013da:	69e0      	ldr	r0, [r4, #28]
 80013dc:	b1d0      	cbz	r0, 8001414 <HAL_RCC_OscConfig+0x19c>
    if (__HAL_RCC_GET_SYSCLK_SOURCE() != RCC_SYSCLKSOURCE_STATUS_PLLCLK)
 80013de:	4d52      	ldr	r5, [pc, #328]	; (8001528 <HAL_RCC_OscConfig+0x2b0>)
 80013e0:	686a      	ldr	r2, [r5, #4]
 80013e2:	f002 020c 	and.w	r2, r2, #12
 80013e6:	2a08      	cmp	r2, #8
 80013e8:	f000 80e6 	beq.w	80015b8 <HAL_RCC_OscConfig+0x340>
      if ((RCC_OscInitStruct->PLL.PLLState) == RCC_PLL_ON)
 80013ec:	2802      	cmp	r0, #2
        __HAL_RCC_PLL_DISABLE();
 80013ee:	f04f 0100 	mov.w	r1, #0
 80013f2:	4a53      	ldr	r2, [pc, #332]	; (8001540 <HAL_RCC_OscConfig+0x2c8>)
      if ((RCC_OscInitStruct->PLL.PLLState) == RCC_PLL_ON)
 80013f4:	f000 8108 	beq.w	8001608 <HAL_RCC_OscConfig+0x390>
        __HAL_RCC_PLL_DISABLE();
 80013f8:	6011      	str	r1, [r2, #0]
        tickstart = HAL_GetTick();
 80013fa:	f7ff fba1 	bl	8000b40 <HAL_GetTick>
        while (__HAL_RCC_GET_FLAG(RCC_FLAG_PLLRDY)  != RESET)
 80013fe:	462c      	mov	r4, r5
        tickstart = HAL_GetTick();
 8001400:	4605      	mov	r5, r0
        while (__HAL_RCC_GET_FLAG(RCC_FLAG_PLLRDY)  != RESET)
 8001402:	e004      	b.n	800140e <HAL_RCC_OscConfig+0x196>
          if ((HAL_GetTick() - tickstart) > PLL_TIMEOUT_VALUE)
 8001404:	f7ff fb9c 	bl	8000b40 <HAL_GetTick>
 8001408:	1b40      	subs	r0, r0, r5
 800140a:	2802      	cmp	r0, #2
 800140c:	d85b      	bhi.n	80014c6 <HAL_RCC_OscConfig+0x24e>
        while (__HAL_RCC_GET_FLAG(RCC_FLAG_PLLRDY)  != RESET)
 800140e:	6823      	ldr	r3, [r4, #0]
 8001410:	019b      	lsls	r3, r3, #6
 8001412:	d4f7      	bmi.n	8001404 <HAL_RCC_OscConfig+0x18c>
  return HAL_OK;
 8001414:	2000      	movs	r0, #0
}
 8001416:	b002      	add	sp, #8
 8001418:	e8bd 81f0 	ldmia.w	sp!, {r4, r5, r6, r7, r8, pc}
        || ((__HAL_RCC_GET_SYSCLK_SOURCE() == RCC_SYSCLKSOURCE_STATUS_PLLCLK) && (__HAL_RCC_GET_PLL_OSCSOURCE() == RCC_PLLSOURCE_HSI_DIV2)))
 800141c:	6852      	ldr	r2, [r2, #4]
 800141e:	03d6      	lsls	r6, r2, #15
 8001420:	f53f af78 	bmi.w	8001314 <HAL_RCC_OscConfig+0x9c>
      if ((__HAL_RCC_GET_FLAG(RCC_FLAG_HSIRDY) != RESET) && (RCC_OscInitStruct->HSIState != RCC_HSI_ON))
 8001424:	4a40      	ldr	r2, [pc, #256]	; (8001528 <HAL_RCC_OscConfig+0x2b0>)
 8001426:	6812      	ldr	r2, [r2, #0]
 8001428:	0795      	lsls	r5, r2, #30
 800142a:	d52f      	bpl.n	800148c <HAL_RCC_OscConfig+0x214>
 800142c:	6922      	ldr	r2, [r4, #16]
 800142e:	2a01      	cmp	r2, #1
 8001430:	d02c      	beq.n	800148c <HAL_RCC_OscConfig+0x214>
        return HAL_ERROR;
 8001432:	2001      	movs	r0, #1
}
 8001434:	b002      	add	sp, #8
 8001436:	e8bd 81f0 	ldmia.w	sp!, {r4, r5, r6, r7, r8, pc}
      __HAL_RCC_LSI_DISABLE();
 800143a:	4a3e      	ldr	r2, [pc, #248]	; (8001534 <HAL_RCC_OscConfig+0x2bc>)
      while (__HAL_RCC_GET_FLAG(RCC_FLAG_LSIRDY) != RESET)
 800143c:	4e3a      	ldr	r6, [pc, #232]	; (8001528 <HAL_RCC_OscConfig+0x2b0>)
      __HAL_RCC_LSI_DISABLE();
 800143e:	6013      	str	r3, [r2, #0]
      tickstart = HAL_GetTick();
 8001440:	f7ff fb7e 	bl	8000b40 <HAL_GetTick>
 8001444:	4605      	mov	r5, r0
      while (__HAL_RCC_GET_FLAG(RCC_FLAG_LSIRDY) != RESET)
 8001446:	e004      	b.n	8001452 <HAL_RCC_OscConfig+0x1da>
        if ((HAL_GetTick() - tickstart) > LSI_TIMEOUT_VALUE)
 8001448:	f7ff fb7a 	bl	8000b40 <HAL_GetTick>
 800144c:	1b40      	subs	r0, r0, r5
 800144e:	2802      	cmp	r0, #2
 8001450:	d839      	bhi.n	80014c6 <HAL_RCC_OscConfig+0x24e>
      while (__HAL_RCC_GET_FLAG(RCC_FLAG_LSIRDY) != RESET)
 8001452:	6a73      	ldr	r3, [r6, #36]	; 0x24
 8001454:	079f      	lsls	r7, r3, #30
 8001456:	d4f7      	bmi.n	8001448 <HAL_RCC_OscConfig+0x1d0>
 8001458:	e7bc      	b.n	80013d4 <HAL_RCC_OscConfig+0x15c>
      __HAL_RCC_PWR_CLK_ENABLE();
 800145a:	69da      	ldr	r2, [r3, #28]
      pwrclkchanged = SET;
 800145c:	2501      	movs	r5, #1
      __HAL_RCC_PWR_CLK_ENABLE();
 800145e:	f042 5280 	orr.w	r2, r2, #268435456	; 0x10000000
 8001462:	61da      	str	r2, [r3, #28]
 8001464:	69db      	ldr	r3, [r3, #28]
 8001466:	f003 5380 	and.w	r3, r3, #268435456	; 0x10000000
 800146a:	9300      	str	r3, [sp, #0]
 800146c:	9b00      	ldr	r3, [sp, #0]
      pwrclkchanged = SET;
 800146e:	e777      	b.n	8001360 <HAL_RCC_OscConfig+0xe8>
        || ((__HAL_RCC_GET_SYSCLK_SOURCE() == RCC_SYSCLKSOURCE_STATUS_PLLCLK) && (__HAL_RCC_GET_PLL_OSCSOURCE() == RCC_PLLSOURCE_HSE)))
 8001470:	684a      	ldr	r2, [r1, #4]
 8001472:	03d0      	lsls	r0, r2, #15
 8001474:	f57f af17 	bpl.w	80012a6 <HAL_RCC_OscConfig+0x2e>
      if ((__HAL_RCC_GET_FLAG(RCC_FLAG_HSERDY) != RESET) && (RCC_OscInitStruct->HSEState == RCC_HSE_OFF))
 8001478:	4a2b      	ldr	r2, [pc, #172]	; (8001528 <HAL_RCC_OscConfig+0x2b0>)
 800147a:	6812      	ldr	r2, [r2, #0]
 800147c:	0391      	lsls	r1, r2, #14
 800147e:	f57f af3b 	bpl.w	80012f8 <HAL_RCC_OscConfig+0x80>
 8001482:	6862      	ldr	r2, [r4, #4]
 8001484:	2a00      	cmp	r2, #0
 8001486:	f47f af37 	bne.w	80012f8 <HAL_RCC_OscConfig+0x80>
 800148a:	e7d2      	b.n	8001432 <HAL_RCC_OscConfig+0x1ba>
        __HAL_RCC_HSI_CALIBRATIONVALUE_ADJUST(RCC_OscInitStruct->HSICalibrationValue);
 800148c:	4926      	ldr	r1, [pc, #152]	; (8001528 <HAL_RCC_OscConfig+0x2b0>)
 800148e:	6960      	ldr	r0, [r4, #20]
 8001490:	680a      	ldr	r2, [r1, #0]
 8001492:	f022 02f8 	bic.w	r2, r2, #248	; 0xf8
 8001496:	ea42 02c0 	orr.w	r2, r2, r0, lsl #3
 800149a:	600a      	str	r2, [r1, #0]
  if (((RCC_OscInitStruct->OscillatorType) & RCC_OSCILLATORTYPE_LSI) == RCC_OSCILLATORTYPE_LSI)
 800149c:	071a      	lsls	r2, r3, #28
 800149e:	f57f af58 	bpl.w	8001352 <HAL_RCC_OscConfig+0xda>
 80014a2:	e776      	b.n	8001392 <HAL_RCC_OscConfig+0x11a>
      SET_BIT(PWR->CR, PWR_CR_DBP);
 80014a4:	681a      	ldr	r2, [r3, #0]
      while (HAL_IS_BIT_CLR(PWR->CR, PWR_CR_DBP))
 80014a6:	461f      	mov	r7, r3
      SET_BIT(PWR->CR, PWR_CR_DBP);
 80014a8:	f442 7280 	orr.w	r2, r2, #256	; 0x100
 80014ac:	601a      	str	r2, [r3, #0]
      tickstart = HAL_GetTick();
 80014ae:	f7ff fb47 	bl	8000b40 <HAL_GetTick>
 80014b2:	4606      	mov	r6, r0
      while (HAL_IS_BIT_CLR(PWR->CR, PWR_CR_DBP))
 80014b4:	683b      	ldr	r3, [r7, #0]
 80014b6:	05da      	lsls	r2, r3, #23
 80014b8:	f53f af57 	bmi.w	800136a <HAL_RCC_OscConfig+0xf2>
        if ((HAL_GetTick() - tickstart) > RCC_DBP_TIMEOUT_VALUE)
 80014bc:	f7ff fb40 	bl	8000b40 <HAL_GetTick>
 80014c0:	1b80      	subs	r0, r0, r6
 80014c2:	2864      	cmp	r0, #100	; 0x64
 80014c4:	d9f6      	bls.n	80014b4 <HAL_RCC_OscConfig+0x23c>
            return HAL_TIMEOUT;
 80014c6:	2003      	movs	r0, #3
}
 80014c8:	b002      	add	sp, #8
 80014ca:	e8bd 81f0 	ldmia.w	sp!, {r4, r5, r6, r7, r8, pc}
      __HAL_RCC_HSE_CONFIG(RCC_OscInitStruct->HSEState);
 80014ce:	f103 4380 	add.w	r3, r3, #1073741824	; 0x40000000
 80014d2:	f503 3304 	add.w	r3, r3, #135168	; 0x21000
 80014d6:	681a      	ldr	r2, [r3, #0]
        while (__HAL_RCC_GET_FLAG(RCC_FLAG_HSERDY) != RESET)
 80014d8:	461e      	mov	r6, r3
      __HAL_RCC_HSE_CONFIG(RCC_OscInitStruct->HSEState);
 80014da:	f422 3280 	bic.w	r2, r2, #65536	; 0x10000
 80014de:	601a      	str	r2, [r3, #0]
 80014e0:	681a      	ldr	r2, [r3, #0]
 80014e2:	f422 2280 	bic.w	r2, r2, #262144	; 0x40000
 80014e6:	601a      	str	r2, [r3, #0]
        tickstart = HAL_GetTick();
 80014e8:	f7ff fb2a 	bl	8000b40 <HAL_GetTick>
 80014ec:	4605      	mov	r5, r0
        while (__HAL_RCC_GET_FLAG(RCC_FLAG_HSERDY) != RESET)
 80014ee:	e004      	b.n	80014fa <HAL_RCC_OscConfig+0x282>
          if ((HAL_GetTick() - tickstart) > HSE_TIMEOUT_VALUE)
 80014f0:	f7ff fb26 	bl	8000b40 <HAL_GetTick>
 80014f4:	1b40      	subs	r0, r0, r5
 80014f6:	2864      	cmp	r0, #100	; 0x64
 80014f8:	d8e5      	bhi.n	80014c6 <HAL_RCC_OscConfig+0x24e>
        while (__HAL_RCC_GET_FLAG(RCC_FLAG_HSERDY) != RESET)
 80014fa:	6833      	ldr	r3, [r6, #0]
 80014fc:	039b      	lsls	r3, r3, #14
 80014fe:	d4f7      	bmi.n	80014f0 <HAL_RCC_OscConfig+0x278>
 8001500:	e6f9      	b.n	80012f6 <HAL_RCC_OscConfig+0x7e>
    __HAL_RCC_LSE_CONFIG(RCC_OscInitStruct->LSEState);
 8001502:	f103 4380 	add.w	r3, r3, #1073741824	; 0x40000000
 8001506:	f503 3304 	add.w	r3, r3, #135168	; 0x21000
 800150a:	6a1a      	ldr	r2, [r3, #32]
      while (__HAL_RCC_GET_FLAG(RCC_FLAG_LSERDY) != RESET)
 800150c:	461f      	mov	r7, r3
    __HAL_RCC_LSE_CONFIG(RCC_OscInitStruct->LSEState);
 800150e:	f022 0201 	bic.w	r2, r2, #1
 8001512:	621a      	str	r2, [r3, #32]
 8001514:	6a1a      	ldr	r2, [r3, #32]
        if ((HAL_GetTick() - tickstart) > RCC_LSE_TIMEOUT_VALUE)
 8001516:	f241 3888 	movw	r8, #5000	; 0x1388
    __HAL_RCC_LSE_CONFIG(RCC_OscInitStruct->LSEState);
 800151a:	f022 0204 	bic.w	r2, r2, #4
 800151e:	621a      	str	r2, [r3, #32]
      tickstart = HAL_GetTick();
 8001520:	f7ff fb0e 	bl	8000b40 <HAL_GetTick>
 8001524:	4606      	mov	r6, r0
      while (__HAL_RCC_GET_FLAG(RCC_FLAG_LSERDY) != RESET)
 8001526:	e012      	b.n	800154e <HAL_RCC_OscConfig+0x2d6>
 8001528:	40021000 	.word	0x40021000
 800152c:	42420000 	.word	0x42420000
 8001530:	40007000 	.word	0x40007000
 8001534:	42420480 	.word	0x42420480
 8001538:	20000004 	.word	0x20000004
 800153c:	10624dd3 	.word	0x10624dd3
 8001540:	42420060 	.word	0x42420060
        if ((HAL_GetTick() - tickstart) > RCC_LSE_TIMEOUT_VALUE)
 8001544:	f7ff fafc 	bl	8000b40 <HAL_GetTick>
 8001548:	1b80      	subs	r0, r0, r6
 800154a:	4540      	cmp	r0, r8
 800154c:	d8bb      	bhi.n	80014c6 <HAL_RCC_OscConfig+0x24e>
      while (__HAL_RCC_GET_FLAG(RCC_FLAG_LSERDY) != RESET)
 800154e:	6a3b      	ldr	r3, [r7, #32]
 8001550:	0798      	lsls	r0, r3, #30
 8001552:	d4f7      	bmi.n	8001544 <HAL_RCC_OscConfig+0x2cc>
    if (pwrclkchanged == SET)
 8001554:	2d00      	cmp	r5, #0
 8001556:	f43f af40 	beq.w	80013da <HAL_RCC_OscConfig+0x162>
      __HAL_RCC_PWR_CLK_DISABLE();
 800155a:	4a44      	ldr	r2, [pc, #272]	; (800166c <HAL_RCC_OscConfig+0x3f4>)
 800155c:	69d3      	ldr	r3, [r2, #28]
 800155e:	f023 5380 	bic.w	r3, r3, #268435456	; 0x10000000
 8001562:	61d3      	str	r3, [r2, #28]
 8001564:	e739      	b.n	80013da <HAL_RCC_OscConfig+0x162>
        __HAL_RCC_HSI_DISABLE();
 8001566:	4a42      	ldr	r2, [pc, #264]	; (8001670 <HAL_RCC_OscConfig+0x3f8>)
        while (__HAL_RCC_GET_FLAG(RCC_FLAG_HSIRDY) != RESET)
 8001568:	4e40      	ldr	r6, [pc, #256]	; (800166c <HAL_RCC_OscConfig+0x3f4>)
        __HAL_RCC_HSI_DISABLE();
 800156a:	6013      	str	r3, [r2, #0]
        tickstart = HAL_GetTick();
 800156c:	f7ff fae8 	bl	8000b40 <HAL_GetTick>
 8001570:	4605      	mov	r5, r0
        while (__HAL_RCC_GET_FLAG(RCC_FLAG_HSIRDY) != RESET)
 8001572:	e004      	b.n	800157e <HAL_RCC_OscConfig+0x306>
          if ((HAL_GetTick() - tickstart) > HSI_TIMEOUT_VALUE)
 8001574:	f7ff fae4 	bl	8000b40 <HAL_GetTick>
 8001578:	1b40      	subs	r0, r0, r5
 800157a:	2802      	cmp	r0, #2
 800157c:	d8a3      	bhi.n	80014c6 <HAL_RCC_OscConfig+0x24e>
        while (__HAL_RCC_GET_FLAG(RCC_FLAG_HSIRDY) != RESET)
 800157e:	6833      	ldr	r3, [r6, #0]
 8001580:	0799      	lsls	r1, r3, #30
 8001582:	d4f7      	bmi.n	8001574 <HAL_RCC_OscConfig+0x2fc>
 8001584:	6823      	ldr	r3, [r4, #0]
 8001586:	e6e2      	b.n	800134e <HAL_RCC_OscConfig+0xd6>
    __HAL_RCC_LSE_CONFIG(RCC_OscInitStruct->LSEState);
 8001588:	4a38      	ldr	r2, [pc, #224]	; (800166c <HAL_RCC_OscConfig+0x3f4>)
 800158a:	6a13      	ldr	r3, [r2, #32]
 800158c:	f043 0301 	orr.w	r3, r3, #1
 8001590:	6213      	str	r3, [r2, #32]
      tickstart = HAL_GetTick();
 8001592:	f7ff fad5 	bl	8000b40 <HAL_GetTick>
        if ((HAL_GetTick() - tickstart) > RCC_LSE_TIMEOUT_VALUE)
 8001596:	f241 3888 	movw	r8, #5000	; 0x1388
      tickstart = HAL_GetTick();
 800159a:	4606      	mov	r6, r0
      while (__HAL_RCC_GET_FLAG(RCC_FLAG_LSERDY) == RESET)
 800159c:	4f33      	ldr	r7, [pc, #204]	; (800166c <HAL_RCC_OscConfig+0x3f4>)
 800159e:	e004      	b.n	80015aa <HAL_RCC_OscConfig+0x332>
        if ((HAL_GetTick() - tickstart) > RCC_LSE_TIMEOUT_VALUE)
 80015a0:	f7ff face 	bl	8000b40 <HAL_GetTick>
 80015a4:	1b80      	subs	r0, r0, r6
 80015a6:	4540      	cmp	r0, r8
 80015a8:	d88d      	bhi.n	80014c6 <HAL_RCC_OscConfig+0x24e>
      while (__HAL_RCC_GET_FLAG(RCC_FLAG_LSERDY) == RESET)
 80015aa:	6a3b      	ldr	r3, [r7, #32]
 80015ac:	079b      	lsls	r3, r3, #30
 80015ae:	d5f7      	bpl.n	80015a0 <HAL_RCC_OscConfig+0x328>
    if (pwrclkchanged == SET)
 80015b0:	2d00      	cmp	r5, #0
 80015b2:	f43f af12 	beq.w	80013da <HAL_RCC_OscConfig+0x162>
 80015b6:	e7d0      	b.n	800155a <HAL_RCC_OscConfig+0x2e2>
      if ((RCC_OscInitStruct->PLL.PLLState) == RCC_PLL_OFF)
 80015b8:	2801      	cmp	r0, #1
 80015ba:	f43f af2c 	beq.w	8001416 <HAL_RCC_OscConfig+0x19e>
        pll_config = RCC->CFGR;
 80015be:	686b      	ldr	r3, [r5, #4]
        if ((READ_BIT(pll_config, RCC_CFGR_PLLSRC) != RCC_OscInitStruct->PLL.PLLSource) ||
 80015c0:	6a22      	ldr	r2, [r4, #32]
 80015c2:	f403 3180 	and.w	r1, r3, #65536	; 0x10000
 80015c6:	4291      	cmp	r1, r2
 80015c8:	f47f af33 	bne.w	8001432 <HAL_RCC_OscConfig+0x1ba>
 80015cc:	6a60      	ldr	r0, [r4, #36]	; 0x24
            (READ_BIT(pll_config, RCC_CFGR_PLLMULL) != RCC_OscInitStruct->PLL.PLLMUL))
 80015ce:	f403 1370 	and.w	r3, r3, #3932160	; 0x3c0000
  return HAL_OK;
 80015d2:	1a18      	subs	r0, r3, r0
 80015d4:	bf18      	it	ne
 80015d6:	2001      	movne	r0, #1
 80015d8:	e71d      	b.n	8001416 <HAL_RCC_OscConfig+0x19e>
      __HAL_RCC_HSE_CONFIG(RCC_OscInitStruct->HSEState);
 80015da:	f103 4380 	add.w	r3, r3, #1073741824	; 0x40000000
 80015de:	f5a3 333c 	sub.w	r3, r3, #192512	; 0x2f000
 80015e2:	681a      	ldr	r2, [r3, #0]
 80015e4:	f442 2280 	orr.w	r2, r2, #262144	; 0x40000
 80015e8:	601a      	str	r2, [r3, #0]
 80015ea:	681a      	ldr	r2, [r3, #0]
 80015ec:	f442 3280 	orr.w	r2, r2, #65536	; 0x10000
 80015f0:	601a      	str	r2, [r3, #0]
 80015f2:	e672      	b.n	80012da <HAL_RCC_OscConfig+0x62>
    __HAL_RCC_LSE_CONFIG(RCC_OscInitStruct->LSEState);
 80015f4:	f042 0204 	orr.w	r2, r2, #4
 80015f8:	621a      	str	r2, [r3, #32]
 80015fa:	6a1a      	ldr	r2, [r3, #32]
 80015fc:	f042 0201 	orr.w	r2, r2, #1
 8001600:	621a      	str	r2, [r3, #32]
 8001602:	e7c6      	b.n	8001592 <HAL_RCC_OscConfig+0x31a>
    return HAL_ERROR;
 8001604:	2001      	movs	r0, #1
}
 8001606:	4770      	bx	lr
        __HAL_RCC_PLL_DISABLE();
 8001608:	6011      	str	r1, [r2, #0]
        tickstart = HAL_GetTick();
 800160a:	f7ff fa99 	bl	8000b40 <HAL_GetTick>
 800160e:	4606      	mov	r6, r0
        while (__HAL_RCC_GET_FLAG(RCC_FLAG_PLLRDY)  != RESET)
 8001610:	e005      	b.n	800161e <HAL_RCC_OscConfig+0x3a6>
          if ((HAL_GetTick() - tickstart) > PLL_TIMEOUT_VALUE)
 8001612:	f7ff fa95 	bl	8000b40 <HAL_GetTick>
 8001616:	1b80      	subs	r0, r0, r6
 8001618:	2802      	cmp	r0, #2
 800161a:	f63f af54 	bhi.w	80014c6 <HAL_RCC_OscConfig+0x24e>
        while (__HAL_RCC_GET_FLAG(RCC_FLAG_PLLRDY)  != RESET)
 800161e:	682b      	ldr	r3, [r5, #0]
 8001620:	0199      	lsls	r1, r3, #6
 8001622:	d4f6      	bmi.n	8001612 <HAL_RCC_OscConfig+0x39a>
        if (RCC_OscInitStruct->PLL.PLLSource == RCC_PLLSOURCE_HSE)
 8001624:	6a23      	ldr	r3, [r4, #32]
 8001626:	f5b3 3f80 	cmp.w	r3, #65536	; 0x10000
 800162a:	d105      	bne.n	8001638 <HAL_RCC_OscConfig+0x3c0>
          __HAL_RCC_HSE_PREDIV_CONFIG(RCC_OscInitStruct->HSEPredivValue);
 800162c:	686a      	ldr	r2, [r5, #4]
 800162e:	68a1      	ldr	r1, [r4, #8]
 8001630:	f422 3200 	bic.w	r2, r2, #131072	; 0x20000
 8001634:	430a      	orrs	r2, r1
 8001636:	606a      	str	r2, [r5, #4]
        __HAL_RCC_PLL_ENABLE();
 8001638:	2001      	movs	r0, #1
        __HAL_RCC_PLL_CONFIG(RCC_OscInitStruct->PLL.PLLSource,
 800163a:	4d0c      	ldr	r5, [pc, #48]	; (800166c <HAL_RCC_OscConfig+0x3f4>)
 800163c:	6a61      	ldr	r1, [r4, #36]	; 0x24
 800163e:	686a      	ldr	r2, [r5, #4]
 8001640:	430b      	orrs	r3, r1
 8001642:	f422 1274 	bic.w	r2, r2, #3997696	; 0x3d0000
        __HAL_RCC_PLL_ENABLE();
 8001646:	490b      	ldr	r1, [pc, #44]	; (8001674 <HAL_RCC_OscConfig+0x3fc>)
        __HAL_RCC_PLL_CONFIG(RCC_OscInitStruct->PLL.PLLSource,
 8001648:	4313      	orrs	r3, r2
 800164a:	606b      	str	r3, [r5, #4]
        __HAL_RCC_PLL_ENABLE();
 800164c:	6008      	str	r0, [r1, #0]
        tickstart = HAL_GetTick();
 800164e:	f7ff fa77 	bl	8000b40 <HAL_GetTick>
        while (__HAL_RCC_GET_FLAG(RCC_FLAG_PLLRDY)  == RESET)
 8001652:	462c      	mov	r4, r5
        tickstart = HAL_GetTick();
 8001654:	4605      	mov	r5, r0
        while (__HAL_RCC_GET_FLAG(RCC_FLAG_PLLRDY)  == RESET)
 8001656:	e005      	b.n	8001664 <HAL_RCC_OscConfig+0x3ec>
          if ((HAL_GetTick() - tickstart) > PLL_TIMEOUT_VALUE)
 8001658:	f7ff fa72 	bl	8000b40 <HAL_GetTick>
 800165c:	1b40      	subs	r0, r0, r5
 800165e:	2802      	cmp	r0, #2
 8001660:	f63f af31 	bhi.w	80014c6 <HAL_RCC_OscConfig+0x24e>
        while (__HAL_RCC_GET_FLAG(RCC_FLAG_PLLRDY)  == RESET)
 8001664:	6823      	ldr	r3, [r4, #0]
 8001666:	019a      	lsls	r2, r3, #6
 8001668:	d5f6      	bpl.n	8001658 <HAL_RCC_OscConfig+0x3e0>
 800166a:	e6d3      	b.n	8001414 <HAL_RCC_OscConfig+0x19c>
 800166c:	40021000 	.word	0x40021000
 8001670:	42420000 	.word	0x42420000
 8001674:	42420060 	.word	0x42420060

08001678 <HAL_RCC_GetSysClockFreq>:
  const uint8_t aPredivFactorTable[2] = {1, 2};
 8001678:	f240 2201 	movw	r2, #513	; 0x201
{
 800167c:	b086      	sub	sp, #24
  const uint8_t aPLLMULFactorTable[16] = {2, 3, 4, 5, 6, 7, 8, 9, 10, 11, 12, 13, 14, 15, 16, 16};
 800167e:	4b15      	ldr	r3, [pc, #84]	; (80016d4 <HAL_RCC_GetSysClockFreq+0x5c>)
 8001680:	f10d 0c18 	add.w	ip, sp, #24
  const uint8_t aPredivFactorTable[2] = {1, 2};
 8001684:	f8ad 2004 	strh.w	r2, [sp, #4]
  const uint8_t aPLLMULFactorTable[16] = {2, 3, 4, 5, 6, 7, 8, 9, 10, 11, 12, 13, 14, 15, 16, 16};
 8001688:	cb0f      	ldmia	r3, {r0, r1, r2, r3}
 800168a:	e90c 000f 	stmdb	ip, {r0, r1, r2, r3}
  tmpreg = RCC->CFGR;
 800168e:	4a12      	ldr	r2, [pc, #72]	; (80016d8 <HAL_RCC_GetSysClockFreq+0x60>)
 8001690:	6853      	ldr	r3, [r2, #4]
  switch (tmpreg & RCC_CFGR_SWS)
 8001692:	f003 010c 	and.w	r1, r3, #12
 8001696:	2908      	cmp	r1, #8
 8001698:	d002      	beq.n	80016a0 <HAL_RCC_GetSysClockFreq+0x28>
      sysclockfreq = HSE_VALUE;
 800169a:	4810      	ldr	r0, [pc, #64]	; (80016dc <HAL_RCC_GetSysClockFreq+0x64>)
}
 800169c:	b006      	add	sp, #24
 800169e:	4770      	bx	lr
      pllmul = aPLLMULFactorTable[(uint32_t)(tmpreg & RCC_CFGR_PLLMULL) >> RCC_CFGR_PLLMULL_Pos];
 80016a0:	f3c3 4183 	ubfx	r1, r3, #18, #4
 80016a4:	4461      	add	r1, ip
      if ((tmpreg & RCC_CFGR_PLLSRC) != RCC_PLLSOURCE_HSI_DIV2)
 80016a6:	03db      	lsls	r3, r3, #15
      pllmul = aPLLMULFactorTable[(uint32_t)(tmpreg & RCC_CFGR_PLLMULL) >> RCC_CFGR_PLLMULL_Pos];
 80016a8:	f811 1c10 	ldrb.w	r1, [r1, #-16]
      if ((tmpreg & RCC_CFGR_PLLSRC) != RCC_PLLSOURCE_HSI_DIV2)
 80016ac:	d50c      	bpl.n	80016c8 <HAL_RCC_GetSysClockFreq+0x50>
        prediv = aPredivFactorTable[(uint32_t)(RCC->CFGR & RCC_CFGR_PLLXTPRE) >> RCC_CFGR_PLLXTPRE_Pos];
 80016ae:	6853      	ldr	r3, [r2, #4]
        pllclk = (uint32_t)((HSE_VALUE  * pllmul) / prediv);
 80016b0:	480a      	ldr	r0, [pc, #40]	; (80016dc <HAL_RCC_GetSysClockFreq+0x64>)
        prediv = aPredivFactorTable[(uint32_t)(RCC->CFGR & RCC_CFGR_PLLXTPRE) >> RCC_CFGR_PLLXTPRE_Pos];
 80016b2:	f3c3 4340 	ubfx	r3, r3, #17, #1
        pllclk = (uint32_t)((HSE_VALUE  * pllmul) / prediv);
 80016b6:	fb00 f001 	mul.w	r0, r0, r1
        prediv = aPredivFactorTable[(uint32_t)(RCC->CFGR & RCC_CFGR_PLLXTPRE) >> RCC_CFGR_PLLXTPRE_Pos];
 80016ba:	4463      	add	r3, ip
 80016bc:	f813 3c14 	ldrb.w	r3, [r3, #-20]
        pllclk = (uint32_t)((HSE_VALUE  * pllmul) / prediv);
 80016c0:	fbb0 f0f3 	udiv	r0, r0, r3
}
 80016c4:	b006      	add	sp, #24
 80016c6:	4770      	bx	lr
        pllclk = (uint32_t)((HSI_VALUE >> 1) * pllmul);
 80016c8:	4805      	ldr	r0, [pc, #20]	; (80016e0 <HAL_RCC_GetSysClockFreq+0x68>)
 80016ca:	fb00 f001 	mul.w	r0, r0, r1
}
 80016ce:	b006      	add	sp, #24
 80016d0:	4770      	bx	lr
 80016d2:	bf00      	nop
 80016d4:	08002910 	.word	0x08002910
 80016d8:	40021000 	.word	0x40021000
 80016dc:	007a1200 	.word	0x007a1200
 80016e0:	003d0900 	.word	0x003d0900

080016e4 <HAL_RCC_ClockConfig>:
  if (RCC_ClkInitStruct == NULL)
 80016e4:	2800      	cmp	r0, #0
 80016e6:	f000 808c 	beq.w	8001802 <HAL_RCC_ClockConfig+0x11e>
  if (FLatency > __HAL_FLASH_GET_LATENCY())
 80016ea:	4a49      	ldr	r2, [pc, #292]	; (8001810 <HAL_RCC_ClockConfig+0x12c>)
{
 80016ec:	e92d 41f0 	stmdb	sp!, {r4, r5, r6, r7, r8, lr}
  if (FLatency > __HAL_FLASH_GET_LATENCY())
 80016f0:	6813      	ldr	r3, [r2, #0]
 80016f2:	4604      	mov	r4, r0
 80016f4:	f003 0307 	and.w	r3, r3, #7
 80016f8:	428b      	cmp	r3, r1
 80016fa:	460d      	mov	r5, r1
 80016fc:	d20c      	bcs.n	8001718 <HAL_RCC_ClockConfig+0x34>
    __HAL_FLASH_SET_LATENCY(FLatency);
 80016fe:	6813      	ldr	r3, [r2, #0]
 8001700:	f023 0307 	bic.w	r3, r3, #7
 8001704:	430b      	orrs	r3, r1
 8001706:	6013      	str	r3, [r2, #0]
    if (__HAL_FLASH_GET_LATENCY() != FLatency)
 8001708:	6813      	ldr	r3, [r2, #0]
 800170a:	f003 0307 	and.w	r3, r3, #7
 800170e:	428b      	cmp	r3, r1
 8001710:	d002      	beq.n	8001718 <HAL_RCC_ClockConfig+0x34>
    return HAL_ERROR;
 8001712:	2001      	movs	r0, #1
}
 8001714:	e8bd 81f0 	ldmia.w	sp!, {r4, r5, r6, r7, r8, pc}
if (((RCC_ClkInitStruct->ClockType) & RCC_CLOCKTYPE_HCLK) == RCC_CLOCKTYPE_HCLK)
 8001718:	6823      	ldr	r3, [r4, #0]
 800171a:	0798      	lsls	r0, r3, #30
 800171c:	d514      	bpl.n	8001748 <HAL_RCC_ClockConfig+0x64>
    if (((RCC_ClkInitStruct->ClockType) & RCC_CLOCKTYPE_PCLK1) == RCC_CLOCKTYPE_PCLK1)
 800171e:	0759      	lsls	r1, r3, #29
 8001720:	d504      	bpl.n	800172c <HAL_RCC_ClockConfig+0x48>
      MODIFY_REG(RCC->CFGR, RCC_CFGR_PPRE1, RCC_HCLK_DIV16);
 8001722:	493c      	ldr	r1, [pc, #240]	; (8001814 <HAL_RCC_ClockConfig+0x130>)
 8001724:	684a      	ldr	r2, [r1, #4]
 8001726:	f442 62e0 	orr.w	r2, r2, #1792	; 0x700
 800172a:	604a      	str	r2, [r1, #4]
    if (((RCC_ClkInitStruct->ClockType) & RCC_CLOCKTYPE_PCLK2) == RCC_CLOCKTYPE_PCLK2)
 800172c:	071a      	lsls	r2, r3, #28
 800172e:	d504      	bpl.n	800173a <HAL_RCC_ClockConfig+0x56>
      MODIFY_REG(RCC->CFGR, RCC_CFGR_PPRE2, (RCC_HCLK_DIV16 << 3));
 8001730:	4938      	ldr	r1, [pc, #224]	; (8001814 <HAL_RCC_ClockConfig+0x130>)
 8001732:	684a      	ldr	r2, [r1, #4]
 8001734:	f442 5260 	orr.w	r2, r2, #14336	; 0x3800
 8001738:	604a      	str	r2, [r1, #4]
    MODIFY_REG(RCC->CFGR, RCC_CFGR_HPRE, RCC_ClkInitStruct->AHBCLKDivider);
 800173a:	4936      	ldr	r1, [pc, #216]	; (8001814 <HAL_RCC_ClockConfig+0x130>)
 800173c:	68a0      	ldr	r0, [r4, #8]
 800173e:	684a      	ldr	r2, [r1, #4]
 8001740:	f022 02f0 	bic.w	r2, r2, #240	; 0xf0
 8001744:	4302      	orrs	r2, r0
 8001746:	604a      	str	r2, [r1, #4]
  if (((RCC_ClkInitStruct->ClockType) & RCC_CLOCKTYPE_SYSCLK) == RCC_CLOCKTYPE_SYSCLK)
 8001748:	07df      	lsls	r7, r3, #31
 800174a:	d520      	bpl.n	800178e <HAL_RCC_ClockConfig+0xaa>
    if (RCC_ClkInitStruct->SYSCLKSource == RCC_SYSCLKSOURCE_HSE)
 800174c:	6862      	ldr	r2, [r4, #4]
      if (__HAL_RCC_GET_FLAG(RCC_FLAG_HSERDY) == RESET)
 800174e:	4b31      	ldr	r3, [pc, #196]	; (8001814 <HAL_RCC_ClockConfig+0x130>)
    if (RCC_ClkInitStruct->SYSCLKSource == RCC_SYSCLKSOURCE_HSE)
 8001750:	2a01      	cmp	r2, #1
      if (__HAL_RCC_GET_FLAG(RCC_FLAG_HSERDY) == RESET)
 8001752:	681b      	ldr	r3, [r3, #0]
    if (RCC_ClkInitStruct->SYSCLKSource == RCC_SYSCLKSOURCE_HSE)
 8001754:	d057      	beq.n	8001806 <HAL_RCC_ClockConfig+0x122>
    else if (RCC_ClkInitStruct->SYSCLKSource == RCC_SYSCLKSOURCE_PLLCLK)
 8001756:	2a02      	cmp	r2, #2
 8001758:	d050      	beq.n	80017fc <HAL_RCC_ClockConfig+0x118>
      if (__HAL_RCC_GET_FLAG(RCC_FLAG_HSIRDY) == RESET)
 800175a:	0799      	lsls	r1, r3, #30
 800175c:	d5d9      	bpl.n	8001712 <HAL_RCC_ClockConfig+0x2e>
    __HAL_RCC_SYSCLK_CONFIG(RCC_ClkInitStruct->SYSCLKSource);
 800175e:	4e2d      	ldr	r6, [pc, #180]	; (8001814 <HAL_RCC_ClockConfig+0x130>)
      if ((HAL_GetTick() - tickstart) > CLOCKSWITCH_TIMEOUT_VALUE)
 8001760:	f241 3888 	movw	r8, #5000	; 0x1388
    __HAL_RCC_SYSCLK_CONFIG(RCC_ClkInitStruct->SYSCLKSource);
 8001764:	6873      	ldr	r3, [r6, #4]
 8001766:	f023 0303 	bic.w	r3, r3, #3
 800176a:	4313      	orrs	r3, r2
 800176c:	6073      	str	r3, [r6, #4]
    tickstart = HAL_GetTick();
 800176e:	f7ff f9e7 	bl	8000b40 <HAL_GetTick>
 8001772:	4607      	mov	r7, r0
    while (__HAL_RCC_GET_SYSCLK_SOURCE() != (RCC_ClkInitStruct->SYSCLKSource << RCC_CFGR_SWS_Pos))
 8001774:	e004      	b.n	8001780 <HAL_RCC_ClockConfig+0x9c>
      if ((HAL_GetTick() - tickstart) > CLOCKSWITCH_TIMEOUT_VALUE)
 8001776:	f7ff f9e3 	bl	8000b40 <HAL_GetTick>
 800177a:	1bc0      	subs	r0, r0, r7
 800177c:	4540      	cmp	r0, r8
 800177e:	d845      	bhi.n	800180c <HAL_RCC_ClockConfig+0x128>
    while (__HAL_RCC_GET_SYSCLK_SOURCE() != (RCC_ClkInitStruct->SYSCLKSource << RCC_CFGR_SWS_Pos))
 8001780:	6873      	ldr	r3, [r6, #4]
 8001782:	6862      	ldr	r2, [r4, #4]
 8001784:	f003 030c 	and.w	r3, r3, #12
 8001788:	ebb3 0f82 	cmp.w	r3, r2, lsl #2
 800178c:	d1f3      	bne.n	8001776 <HAL_RCC_ClockConfig+0x92>
  if (FLatency < __HAL_FLASH_GET_LATENCY())
 800178e:	4a20      	ldr	r2, [pc, #128]	; (8001810 <HAL_RCC_ClockConfig+0x12c>)
 8001790:	6813      	ldr	r3, [r2, #0]
 8001792:	f003 0307 	and.w	r3, r3, #7
 8001796:	42ab      	cmp	r3, r5
 8001798:	d909      	bls.n	80017ae <HAL_RCC_ClockConfig+0xca>
    __HAL_FLASH_SET_LATENCY(FLatency);
 800179a:	6813      	ldr	r3, [r2, #0]
 800179c:	f023 0307 	bic.w	r3, r3, #7
 80017a0:	432b      	orrs	r3, r5
 80017a2:	6013      	str	r3, [r2, #0]
    if (__HAL_FLASH_GET_LATENCY() != FLatency)
 80017a4:	6813      	ldr	r3, [r2, #0]
 80017a6:	f003 0307 	and.w	r3, r3, #7
 80017aa:	42ab      	cmp	r3, r5
 80017ac:	d1b1      	bne.n	8001712 <HAL_RCC_ClockConfig+0x2e>
if (((RCC_ClkInitStruct->ClockType) & RCC_CLOCKTYPE_PCLK1) == RCC_CLOCKTYPE_PCLK1)
 80017ae:	6823      	ldr	r3, [r4, #0]
 80017b0:	075a      	lsls	r2, r3, #29
 80017b2:	d506      	bpl.n	80017c2 <HAL_RCC_ClockConfig+0xde>
    MODIFY_REG(RCC->CFGR, RCC_CFGR_PPRE1, RCC_ClkInitStruct->APB1CLKDivider);
 80017b4:	4917      	ldr	r1, [pc, #92]	; (8001814 <HAL_RCC_ClockConfig+0x130>)
 80017b6:	68e0      	ldr	r0, [r4, #12]
 80017b8:	684a      	ldr	r2, [r1, #4]
 80017ba:	f422 62e0 	bic.w	r2, r2, #1792	; 0x700
 80017be:	4302      	orrs	r2, r0
 80017c0:	604a      	str	r2, [r1, #4]
  if (((RCC_ClkInitStruct->ClockType) & RCC_CLOCKTYPE_PCLK2) == RCC_CLOCKTYPE_PCLK2)
 80017c2:	071b      	lsls	r3, r3, #28
 80017c4:	d507      	bpl.n	80017d6 <HAL_RCC_ClockConfig+0xf2>
    MODIFY_REG(RCC->CFGR, RCC_CFGR_PPRE2, ((RCC_ClkInitStruct->APB2CLKDivider) << 3));
 80017c6:	4a13      	ldr	r2, [pc, #76]	; (8001814 <HAL_RCC_ClockConfig+0x130>)
 80017c8:	6921      	ldr	r1, [r4, #16]
 80017ca:	6853      	ldr	r3, [r2, #4]
 80017cc:	f423 5360 	bic.w	r3, r3, #14336	; 0x3800
 80017d0:	ea43 03c1 	orr.w	r3, r3, r1, lsl #3
 80017d4:	6053      	str	r3, [r2, #4]
  SystemCoreClock = HAL_RCC_GetSysClockFreq() >> AHBPrescTable[(RCC->CFGR & RCC_CFGR_HPRE) >> RCC_CFGR_HPRE_Pos];
 80017d6:	f7ff ff4f 	bl	8001678 <HAL_RCC_GetSysClockFreq>
 80017da:	4b0e      	ldr	r3, [pc, #56]	; (8001814 <HAL_RCC_ClockConfig+0x130>)
 80017dc:	4a0e      	ldr	r2, [pc, #56]	; (8001818 <HAL_RCC_ClockConfig+0x134>)
 80017de:	685b      	ldr	r3, [r3, #4]
  HAL_InitTick(uwTickPrio);
 80017e0:	490e      	ldr	r1, [pc, #56]	; (800181c <HAL_RCC_ClockConfig+0x138>)
  SystemCoreClock = HAL_RCC_GetSysClockFreq() >> AHBPrescTable[(RCC->CFGR & RCC_CFGR_HPRE) >> RCC_CFGR_HPRE_Pos];
 80017e2:	f3c3 1303 	ubfx	r3, r3, #4, #4
 80017e6:	5cd3      	ldrb	r3, [r2, r3]
 80017e8:	4a0d      	ldr	r2, [pc, #52]	; (8001820 <HAL_RCC_ClockConfig+0x13c>)
 80017ea:	fa20 f303 	lsr.w	r3, r0, r3
  HAL_InitTick(uwTickPrio);
 80017ee:	6808      	ldr	r0, [r1, #0]
  SystemCoreClock = HAL_RCC_GetSysClockFreq() >> AHBPrescTable[(RCC->CFGR & RCC_CFGR_HPRE) >> RCC_CFGR_HPRE_Pos];
 80017f0:	6013      	str	r3, [r2, #0]
  HAL_InitTick(uwTickPrio);
 80017f2:	f7ff f963 	bl	8000abc <HAL_InitTick>
  return HAL_OK;
 80017f6:	2000      	movs	r0, #0
}
 80017f8:	e8bd 81f0 	ldmia.w	sp!, {r4, r5, r6, r7, r8, pc}
      if (__HAL_RCC_GET_FLAG(RCC_FLAG_PLLRDY) == RESET)
 80017fc:	0198      	lsls	r0, r3, #6
 80017fe:	d4ae      	bmi.n	800175e <HAL_RCC_ClockConfig+0x7a>
 8001800:	e787      	b.n	8001712 <HAL_RCC_ClockConfig+0x2e>
    return HAL_ERROR;
 8001802:	2001      	movs	r0, #1
}
 8001804:	4770      	bx	lr
      if (__HAL_RCC_GET_FLAG(RCC_FLAG_HSERDY) == RESET)
 8001806:	039e      	lsls	r6, r3, #14
 8001808:	d4a9      	bmi.n	800175e <HAL_RCC_ClockConfig+0x7a>
 800180a:	e782      	b.n	8001712 <HAL_RCC_ClockConfig+0x2e>
        return HAL_TIMEOUT;
 800180c:	2003      	movs	r0, #3
 800180e:	e781      	b.n	8001714 <HAL_RCC_ClockConfig+0x30>
 8001810:	40022000 	.word	0x40022000
 8001814:	40021000 	.word	0x40021000
 8001818:	080028f8 	.word	0x080028f8
 800181c:	2000000c 	.word	0x2000000c
 8001820:	20000004 	.word	0x20000004

08001824 <HAL_RCC_GetPCLK1Freq>:
  return (HAL_RCC_GetHCLKFreq() >> APBPrescTable[(RCC->CFGR & RCC_CFGR_PPRE1) >> RCC_CFGR_PPRE1_Pos]);
 8001824:	4b04      	ldr	r3, [pc, #16]	; (8001838 <HAL_RCC_GetPCLK1Freq+0x14>)
 8001826:	4905      	ldr	r1, [pc, #20]	; (800183c <HAL_RCC_GetPCLK1Freq+0x18>)
 8001828:	685b      	ldr	r3, [r3, #4]
  return SystemCoreClock;
 800182a:	4a05      	ldr	r2, [pc, #20]	; (8001840 <HAL_RCC_GetPCLK1Freq+0x1c>)
  return (HAL_RCC_GetHCLKFreq() >> APBPrescTable[(RCC->CFGR & RCC_CFGR_PPRE1) >> RCC_CFGR_PPRE1_Pos]);
 800182c:	f3c3 2302 	ubfx	r3, r3, #8, #3
 8001830:	5ccb      	ldrb	r3, [r1, r3]
 8001832:	6810      	ldr	r0, [r2, #0]
}
 8001834:	40d8      	lsrs	r0, r3
 8001836:	4770      	bx	lr
 8001838:	40021000 	.word	0x40021000
 800183c:	08002908 	.word	0x08002908
 8001840:	20000004 	.word	0x20000004

08001844 <HAL_RCC_GetPCLK2Freq>:
  return (HAL_RCC_GetHCLKFreq() >> APBPrescTable[(RCC->CFGR & RCC_CFGR_PPRE2) >> RCC_CFGR_PPRE2_Pos]);
 8001844:	4b04      	ldr	r3, [pc, #16]	; (8001858 <HAL_RCC_GetPCLK2Freq+0x14>)
 8001846:	4905      	ldr	r1, [pc, #20]	; (800185c <HAL_RCC_GetPCLK2Freq+0x18>)
 8001848:	685b      	ldr	r3, [r3, #4]
  return SystemCoreClock;
 800184a:	4a05      	ldr	r2, [pc, #20]	; (8001860 <HAL_RCC_GetPCLK2Freq+0x1c>)
  return (HAL_RCC_GetHCLKFreq() >> APBPrescTable[(RCC->CFGR & RCC_CFGR_PPRE2) >> RCC_CFGR_PPRE2_Pos]);
 800184c:	f3c3 23c2 	ubfx	r3, r3, #11, #3
 8001850:	5ccb      	ldrb	r3, [r1, r3]
 8001852:	6810      	ldr	r0, [r2, #0]
}
 8001854:	40d8      	lsrs	r0, r3
 8001856:	4770      	bx	lr
 8001858:	40021000 	.word	0x40021000
 800185c:	08002908 	.word	0x08002908
 8001860:	20000004 	.word	0x20000004

08001864 <HAL_RCCEx_PeriphCLKConfig>:
  *         manually disable it.
  *
  * @retval HAL status
  */
HAL_StatusTypeDef HAL_RCCEx_PeriphCLKConfig(RCC_PeriphCLKInitTypeDef  *PeriphClkInit)
{
 8001864:	e92d 41f0 	stmdb	sp!, {r4, r5, r6, r7, r8, lr}
 8001868:	4604      	mov	r4, r0

  /* Check the parameters */
  assert_param(IS_RCC_PERIPHCLOCK(PeriphClkInit->PeriphClockSelection));

  /*------------------------------- RTC/LCD Configuration ------------------------*/
  if ((((PeriphClkInit->PeriphClockSelection) & RCC_PERIPHCLK_RTC) == RCC_PERIPHCLK_RTC))
 800186a:	6800      	ldr	r0, [r0, #0]
{
 800186c:	b082      	sub	sp, #8
  if ((((PeriphClkInit->PeriphClockSelection) & RCC_PERIPHCLK_RTC) == RCC_PERIPHCLK_RTC))
 800186e:	07c3      	lsls	r3, r0, #31
 8001870:	d52a      	bpl.n	80018c8 <HAL_RCCEx_PeriphCLKConfig+0x64>
    FlagStatus       pwrclkchanged = RESET;

    /* As soon as function is called to change RTC clock source, activation of the
       power domain is done. */
    /* Requires to enable write access to Backup Domain of necessary */
    if (__HAL_RCC_PWR_IS_CLK_DISABLED())
 8001872:	4b39      	ldr	r3, [pc, #228]	; (8001958 <HAL_RCCEx_PeriphCLKConfig+0xf4>)
 8001874:	69da      	ldr	r2, [r3, #28]
 8001876:	00d7      	lsls	r7, r2, #3
 8001878:	d53d      	bpl.n	80018f6 <HAL_RCCEx_PeriphCLKConfig+0x92>
    {
      __HAL_RCC_PWR_CLK_ENABLE();
      pwrclkchanged = SET;
    }

    if (HAL_IS_BIT_CLR(PWR->CR, PWR_CR_DBP))
 800187a:	4b38      	ldr	r3, [pc, #224]	; (800195c <HAL_RCCEx_PeriphCLKConfig+0xf8>)
    FlagStatus       pwrclkchanged = RESET;
 800187c:	2500      	movs	r5, #0
    if (HAL_IS_BIT_CLR(PWR->CR, PWR_CR_DBP))
 800187e:	681a      	ldr	r2, [r3, #0]
 8001880:	05d6      	lsls	r6, r2, #23
 8001882:	d546      	bpl.n	8001912 <HAL_RCCEx_PeriphCLKConfig+0xae>
        }
      }
    }

    /* Reset the Backup domain only if the RTC Clock source selection is modified from reset value */
    temp_reg = (RCC->BDCR & RCC_BDCR_RTCSEL);
 8001884:	4e34      	ldr	r6, [pc, #208]	; (8001958 <HAL_RCCEx_PeriphCLKConfig+0xf4>)
 8001886:	6a33      	ldr	r3, [r6, #32]
    if ((temp_reg != 0x00000000U) && (temp_reg != (PeriphClkInit->RTCClockSelection & RCC_BDCR_RTCSEL)))
 8001888:	f413 7340 	ands.w	r3, r3, #768	; 0x300
 800188c:	d00f      	beq.n	80018ae <HAL_RCCEx_PeriphCLKConfig+0x4a>
 800188e:	6861      	ldr	r1, [r4, #4]
 8001890:	f401 7240 	and.w	r2, r1, #768	; 0x300
 8001894:	429a      	cmp	r2, r3
 8001896:	d00b      	beq.n	80018b0 <HAL_RCCEx_PeriphCLKConfig+0x4c>
    {
      /* Store the content of BDCR register before the reset of Backup Domain */
      temp_reg = (RCC->BDCR & ~(RCC_BDCR_RTCSEL));
      /* RTC Clock selection can be changed only if the Backup Domain is reset */
      __HAL_RCC_BACKUPRESET_FORCE();
 8001898:	2701      	movs	r7, #1
      __HAL_RCC_BACKUPRESET_RELEASE();
 800189a:	2000      	movs	r0, #0
      temp_reg = (RCC->BDCR & ~(RCC_BDCR_RTCSEL));
 800189c:	6a33      	ldr	r3, [r6, #32]
      __HAL_RCC_BACKUPRESET_FORCE();
 800189e:	4a30      	ldr	r2, [pc, #192]	; (8001960 <HAL_RCCEx_PeriphCLKConfig+0xfc>)
      temp_reg = (RCC->BDCR & ~(RCC_BDCR_RTCSEL));
 80018a0:	f423 7140 	bic.w	r1, r3, #768	; 0x300
      __HAL_RCC_BACKUPRESET_FORCE();
 80018a4:	6017      	str	r7, [r2, #0]
      __HAL_RCC_BACKUPRESET_RELEASE();
 80018a6:	6010      	str	r0, [r2, #0]
      /* Restore the Content of BDCR register */
      RCC->BDCR = temp_reg;
 80018a8:	6231      	str	r1, [r6, #32]

      /* Wait for LSERDY if LSE was enabled */
      if (HAL_IS_BIT_SET(temp_reg, RCC_BDCR_LSEON))
 80018aa:	07d9      	lsls	r1, r3, #31
 80018ac:	d445      	bmi.n	800193a <HAL_RCCEx_PeriphCLKConfig+0xd6>
 80018ae:	6861      	ldr	r1, [r4, #4]
            return HAL_TIMEOUT;
          }
        }
      }
    }
    __HAL_RCC_RTC_CONFIG(PeriphClkInit->RTCClockSelection);
 80018b0:	4a29      	ldr	r2, [pc, #164]	; (8001958 <HAL_RCCEx_PeriphCLKConfig+0xf4>)
 80018b2:	6a13      	ldr	r3, [r2, #32]
 80018b4:	f423 7340 	bic.w	r3, r3, #768	; 0x300
 80018b8:	430b      	orrs	r3, r1
 80018ba:	6213      	str	r3, [r2, #32]

    /* Require to disable power clock if necessary */
    if (pwrclkchanged == SET)
 80018bc:	b11d      	cbz	r5, 80018c6 <HAL_RCCEx_PeriphCLKConfig+0x62>
    {
      __HAL_RCC_PWR_CLK_DISABLE();
 80018be:	69d3      	ldr	r3, [r2, #28]
 80018c0:	f023 5380 	bic.w	r3, r3, #268435456	; 0x10000000
 80018c4:	61d3      	str	r3, [r2, #28]
 80018c6:	6820      	ldr	r0, [r4, #0]
    }
  }

  /*------------------------------ ADC clock Configuration ------------------*/
  if (((PeriphClkInit->PeriphClockSelection) & RCC_PERIPHCLK_ADC) == RCC_PERIPHCLK_ADC)
 80018c8:	0783      	lsls	r3, r0, #30
 80018ca:	d506      	bpl.n	80018da <HAL_RCCEx_PeriphCLKConfig+0x76>
  {
    /* Check the parameters */
    assert_param(IS_RCC_ADCPLLCLK_DIV(PeriphClkInit->AdcClockSelection));

    /* Configure the ADC clock source */
    __HAL_RCC_ADC_CONFIG(PeriphClkInit->AdcClockSelection);
 80018cc:	4922      	ldr	r1, [pc, #136]	; (8001958 <HAL_RCCEx_PeriphCLKConfig+0xf4>)
 80018ce:	68a3      	ldr	r3, [r4, #8]
 80018d0:	684a      	ldr	r2, [r1, #4]
 80018d2:	f422 4240 	bic.w	r2, r2, #49152	; 0xc000
 80018d6:	431a      	orrs	r2, r3
 80018d8:	604a      	str	r2, [r1, #4]

#if defined(STM32F102x6) || defined(STM32F102xB) || defined(STM32F103x6)\
 || defined(STM32F103xB) || defined(STM32F103xE) || defined(STM32F103xG)\
 || defined(STM32F105xC) || defined(STM32F107xC)
  /*------------------------------ USB clock Configuration ------------------*/
  if (((PeriphClkInit->PeriphClockSelection) & RCC_PERIPHCLK_USB) == RCC_PERIPHCLK_USB)
 80018da:	f010 0010 	ands.w	r0, r0, #16
 80018de:	d007      	beq.n	80018f0 <HAL_RCCEx_PeriphCLKConfig+0x8c>
    /* Configure the USB clock source */
    __HAL_RCC_USB_CONFIG(PeriphClkInit->UsbClockSelection);
  }
#endif /* STM32F102x6 || STM32F102xB || STM32F103x6 || STM32F103xB || STM32F103xE || STM32F103xG || STM32F105xC || STM32F107xC */

  return HAL_OK;
 80018e0:	2000      	movs	r0, #0
    __HAL_RCC_USB_CONFIG(PeriphClkInit->UsbClockSelection);
 80018e2:	4a1d      	ldr	r2, [pc, #116]	; (8001958 <HAL_RCCEx_PeriphCLKConfig+0xf4>)
 80018e4:	68e1      	ldr	r1, [r4, #12]
 80018e6:	6853      	ldr	r3, [r2, #4]
 80018e8:	f423 0380 	bic.w	r3, r3, #4194304	; 0x400000
 80018ec:	430b      	orrs	r3, r1
 80018ee:	6053      	str	r3, [r2, #4]
}
 80018f0:	b002      	add	sp, #8
 80018f2:	e8bd 81f0 	ldmia.w	sp!, {r4, r5, r6, r7, r8, pc}
      __HAL_RCC_PWR_CLK_ENABLE();
 80018f6:	69da      	ldr	r2, [r3, #28]
      pwrclkchanged = SET;
 80018f8:	2501      	movs	r5, #1
      __HAL_RCC_PWR_CLK_ENABLE();
 80018fa:	f042 5280 	orr.w	r2, r2, #268435456	; 0x10000000
 80018fe:	61da      	str	r2, [r3, #28]
 8001900:	69db      	ldr	r3, [r3, #28]
 8001902:	f003 5380 	and.w	r3, r3, #268435456	; 0x10000000
 8001906:	9301      	str	r3, [sp, #4]
 8001908:	9b01      	ldr	r3, [sp, #4]
    if (HAL_IS_BIT_CLR(PWR->CR, PWR_CR_DBP))
 800190a:	4b14      	ldr	r3, [pc, #80]	; (800195c <HAL_RCCEx_PeriphCLKConfig+0xf8>)
 800190c:	681a      	ldr	r2, [r3, #0]
 800190e:	05d6      	lsls	r6, r2, #23
 8001910:	d4b8      	bmi.n	8001884 <HAL_RCCEx_PeriphCLKConfig+0x20>
      SET_BIT(PWR->CR, PWR_CR_DBP);
 8001912:	681a      	ldr	r2, [r3, #0]
      while (HAL_IS_BIT_CLR(PWR->CR, PWR_CR_DBP))
 8001914:	461f      	mov	r7, r3
      SET_BIT(PWR->CR, PWR_CR_DBP);
 8001916:	f442 7280 	orr.w	r2, r2, #256	; 0x100
 800191a:	601a      	str	r2, [r3, #0]
      tickstart = HAL_GetTick();
 800191c:	f7ff f910 	bl	8000b40 <HAL_GetTick>
 8001920:	4606      	mov	r6, r0
      while (HAL_IS_BIT_CLR(PWR->CR, PWR_CR_DBP))
 8001922:	683b      	ldr	r3, [r7, #0]
 8001924:	05d8      	lsls	r0, r3, #23
 8001926:	d4ad      	bmi.n	8001884 <HAL_RCCEx_PeriphCLKConfig+0x20>
        if ((HAL_GetTick() - tickstart) > RCC_DBP_TIMEOUT_VALUE)
 8001928:	f7ff f90a 	bl	8000b40 <HAL_GetTick>
 800192c:	1b83      	subs	r3, r0, r6
 800192e:	2b64      	cmp	r3, #100	; 0x64
 8001930:	d9f7      	bls.n	8001922 <HAL_RCCEx_PeriphCLKConfig+0xbe>
          return HAL_TIMEOUT;
 8001932:	2003      	movs	r0, #3
}
 8001934:	b002      	add	sp, #8
 8001936:	e8bd 81f0 	ldmia.w	sp!, {r4, r5, r6, r7, r8, pc}
        tickstart = HAL_GetTick();
 800193a:	f7ff f901 	bl	8000b40 <HAL_GetTick>
          if ((HAL_GetTick() - tickstart) > RCC_LSE_TIMEOUT_VALUE)
 800193e:	f241 3888 	movw	r8, #5000	; 0x1388
        tickstart = HAL_GetTick();
 8001942:	4607      	mov	r7, r0
        while (__HAL_RCC_GET_FLAG(RCC_FLAG_LSERDY) == RESET)
 8001944:	e004      	b.n	8001950 <HAL_RCCEx_PeriphCLKConfig+0xec>
          if ((HAL_GetTick() - tickstart) > RCC_LSE_TIMEOUT_VALUE)
 8001946:	f7ff f8fb 	bl	8000b40 <HAL_GetTick>
 800194a:	1bc0      	subs	r0, r0, r7
 800194c:	4540      	cmp	r0, r8
 800194e:	d8f0      	bhi.n	8001932 <HAL_RCCEx_PeriphCLKConfig+0xce>
        while (__HAL_RCC_GET_FLAG(RCC_FLAG_LSERDY) == RESET)
 8001950:	6a33      	ldr	r3, [r6, #32]
 8001952:	079a      	lsls	r2, r3, #30
 8001954:	d5f7      	bpl.n	8001946 <HAL_RCCEx_PeriphCLKConfig+0xe2>
 8001956:	e7aa      	b.n	80018ae <HAL_RCCEx_PeriphCLKConfig+0x4a>
 8001958:	40021000 	.word	0x40021000
 800195c:	40007000 	.word	0x40007000
 8001960:	42420440 	.word	0x42420440

08001964 <UART_SetConfig>:
  * @param  huart  Pointer to a UART_HandleTypeDef structure that contains
  *                the configuration information for the specified UART module.
  * @retval None
  */
static void UART_SetConfig(UART_HandleTypeDef *huart)
{
 8001964:	b538      	push	{r3, r4, r5, lr}
 8001966:	4604      	mov	r4, r0
  assert_param(IS_UART_MODE(huart->Init.Mode));

  /*-------------------------- USART CR2 Configuration -----------------------*/
  /* Configure the UART Stop Bits: Set STOP[13:12] bits
     according to huart->Init.StopBits value */
  MODIFY_REG(huart->Instance->CR2, USART_CR2_STOP, huart->Init.StopBits);
 8001968:	6803      	ldr	r3, [r0, #0]
 800196a:	68c0      	ldr	r0, [r0, #12]
 800196c:	6919      	ldr	r1, [r3, #16]
  tmpreg = (uint32_t)huart->Init.WordLength | huart->Init.Parity | huart->Init.Mode | huart->Init.OverSampling;
  MODIFY_REG(huart->Instance->CR1,
             (uint32_t)(USART_CR1_M | USART_CR1_PCE | USART_CR1_PS | USART_CR1_TE | USART_CR1_RE | USART_CR1_OVER8),
             tmpreg);
#else
  tmpreg = (uint32_t)huart->Init.WordLength | huart->Init.Parity | huart->Init.Mode;
 800196e:	68a2      	ldr	r2, [r4, #8]
  MODIFY_REG(huart->Instance->CR2, USART_CR2_STOP, huart->Init.StopBits);
 8001970:	f421 5140 	bic.w	r1, r1, #12288	; 0x3000
 8001974:	4301      	orrs	r1, r0
 8001976:	6119      	str	r1, [r3, #16]
  MODIFY_REG(huart->Instance->CR1,
 8001978:	68d9      	ldr	r1, [r3, #12]
  tmpreg = (uint32_t)huart->Init.WordLength | huart->Init.Parity | huart->Init.Mode;
 800197a:	e9d4 5004 	ldrd	r5, r0, [r4, #16]
  MODIFY_REG(huart->Instance->CR1,
 800197e:	f421 51b0 	bic.w	r1, r1, #5632	; 0x1600
  tmpreg = (uint32_t)huart->Init.WordLength | huart->Init.Parity | huart->Init.Mode;
 8001982:	432a      	orrs	r2, r5
  MODIFY_REG(huart->Instance->CR1,
 8001984:	f021 010c 	bic.w	r1, r1, #12
  tmpreg = (uint32_t)huart->Init.WordLength | huart->Init.Parity | huart->Init.Mode;
 8001988:	4302      	orrs	r2, r0
  MODIFY_REG(huart->Instance->CR1,
 800198a:	430a      	orrs	r2, r1
 800198c:	60da      	str	r2, [r3, #12]
             tmpreg);
#endif /* USART_CR1_OVER8 */

  /*-------------------------- USART CR3 Configuration -----------------------*/
  /* Configure the UART HFC: Set CTSE and RTSE bits according to huart->Init.HwFlowCtl value */
  MODIFY_REG(huart->Instance->CR3, (USART_CR3_RTSE | USART_CR3_CTSE), huart->Init.HwFlowCtl);
 800198e:	695a      	ldr	r2, [r3, #20]
 8001990:	69a0      	ldr	r0, [r4, #24]


  if(huart->Instance == USART1)
 8001992:	4913      	ldr	r1, [pc, #76]	; (80019e0 <UART_SetConfig+0x7c>)
  MODIFY_REG(huart->Instance->CR3, (USART_CR3_RTSE | USART_CR3_CTSE), huart->Init.HwFlowCtl);
 8001994:	f422 7240 	bic.w	r2, r2, #768	; 0x300
 8001998:	4302      	orrs	r2, r0
  if(huart->Instance == USART1)
 800199a:	428b      	cmp	r3, r1
  MODIFY_REG(huart->Instance->CR3, (USART_CR3_RTSE | USART_CR3_CTSE), huart->Init.HwFlowCtl);
 800199c:	615a      	str	r2, [r3, #20]
  if(huart->Instance == USART1)
 800199e:	d01b      	beq.n	80019d8 <UART_SetConfig+0x74>
  {
    pclk = HAL_RCC_GetPCLK2Freq();
  }
  else
  {
    pclk = HAL_RCC_GetPCLK1Freq();
 80019a0:	f7ff ff40 	bl	8001824 <HAL_RCC_GetPCLK1Freq>
 80019a4:	4603      	mov	r3, r0
  else
  {
    huart->Instance->BRR = UART_BRR_SAMPLING16(pclk, huart->Init.BaudRate);
  }
#else
  huart->Instance->BRR = UART_BRR_SAMPLING16(pclk, huart->Init.BaudRate);
 80019a6:	6862      	ldr	r2, [r4, #4]
 80019a8:	eb03 0383 	add.w	r3, r3, r3, lsl #2
 80019ac:	0092      	lsls	r2, r2, #2
 80019ae:	eb03 0383 	add.w	r3, r3, r3, lsl #2
 80019b2:	fbb3 f3f2 	udiv	r3, r3, r2
 80019b6:	2264      	movs	r2, #100	; 0x64
 80019b8:	480a      	ldr	r0, [pc, #40]	; (80019e4 <UART_SetConfig+0x80>)
 80019ba:	6824      	ldr	r4, [r4, #0]
 80019bc:	fba0 5103 	umull	r5, r1, r0, r3
 80019c0:	0949      	lsrs	r1, r1, #5
 80019c2:	fb02 3311 	mls	r3, r2, r1, r3
 80019c6:	011b      	lsls	r3, r3, #4
 80019c8:	3332      	adds	r3, #50	; 0x32
 80019ca:	fba0 2303 	umull	r2, r3, r0, r3
 80019ce:	0109      	lsls	r1, r1, #4
 80019d0:	eb01 1353 	add.w	r3, r1, r3, lsr #5
 80019d4:	60a3      	str	r3, [r4, #8]
#endif /* USART_CR1_OVER8 */
}
 80019d6:	bd38      	pop	{r3, r4, r5, pc}
    pclk = HAL_RCC_GetPCLK2Freq();
 80019d8:	f7ff ff34 	bl	8001844 <HAL_RCC_GetPCLK2Freq>
 80019dc:	4603      	mov	r3, r0
 80019de:	e7e2      	b.n	80019a6 <UART_SetConfig+0x42>
 80019e0:	40013800 	.word	0x40013800
 80019e4:	51eb851f 	.word	0x51eb851f

080019e8 <UART_WaitOnFlagUntilTimeout.constprop.0>:
static HAL_StatusTypeDef UART_WaitOnFlagUntilTimeout(UART_HandleTypeDef *huart, uint32_t Flag, FlagStatus Status, uint32_t Tickstart, uint32_t Timeout)
 80019e8:	e92d 41f0 	stmdb	sp!, {r4, r5, r6, r7, r8, lr}
 80019ec:	4607      	mov	r7, r0
 80019ee:	460e      	mov	r6, r1
 80019f0:	4690      	mov	r8, r2
 80019f2:	461d      	mov	r5, r3
  while ((__HAL_UART_GET_FLAG(huart, Flag) ? SET : RESET) == Status)
 80019f4:	683b      	ldr	r3, [r7, #0]
 80019f6:	e001      	b.n	80019fc <UART_WaitOnFlagUntilTimeout.constprop.0+0x14>
    if (Timeout != HAL_MAX_DELAY)
 80019f8:	1c6a      	adds	r2, r5, #1
 80019fa:	d106      	bne.n	8001a0a <UART_WaitOnFlagUntilTimeout.constprop.0+0x22>
  while ((__HAL_UART_GET_FLAG(huart, Flag) ? SET : RESET) == Status)
 80019fc:	681c      	ldr	r4, [r3, #0]
 80019fe:	ea36 0204 	bics.w	r2, r6, r4
 8001a02:	d1f9      	bne.n	80019f8 <UART_WaitOnFlagUntilTimeout.constprop.0+0x10>
  return HAL_OK;
 8001a04:	2000      	movs	r0, #0
}
 8001a06:	e8bd 81f0 	ldmia.w	sp!, {r4, r5, r6, r7, r8, pc}
      if ((Timeout == 0U) || ((HAL_GetTick() - Tickstart) > Timeout))
 8001a0a:	b135      	cbz	r5, 8001a1a <UART_WaitOnFlagUntilTimeout.constprop.0+0x32>
 8001a0c:	f7ff f898 	bl	8000b40 <HAL_GetTick>
 8001a10:	eba0 0008 	sub.w	r0, r0, r8
 8001a14:	4285      	cmp	r5, r0
 8001a16:	d2ed      	bcs.n	80019f4 <UART_WaitOnFlagUntilTimeout.constprop.0+0xc>
 8001a18:	683b      	ldr	r3, [r7, #0]
        huart->gState  = HAL_UART_STATE_READY;
 8001a1a:	2120      	movs	r1, #32
        __HAL_UNLOCK(huart);
 8001a1c:	2400      	movs	r4, #0
        CLEAR_BIT(huart->Instance->CR1, (USART_CR1_RXNEIE | USART_CR1_PEIE | USART_CR1_TXEIE));
 8001a1e:	68da      	ldr	r2, [r3, #12]
        __HAL_UNLOCK(huart);
 8001a20:	2003      	movs	r0, #3
        CLEAR_BIT(huart->Instance->CR1, (USART_CR1_RXNEIE | USART_CR1_PEIE | USART_CR1_TXEIE));
 8001a22:	f422 72d0 	bic.w	r2, r2, #416	; 0x1a0
 8001a26:	60da      	str	r2, [r3, #12]
        CLEAR_BIT(huart->Instance->CR3, USART_CR3_EIE);
 8001a28:	695a      	ldr	r2, [r3, #20]
 8001a2a:	f022 0201 	bic.w	r2, r2, #1
 8001a2e:	615a      	str	r2, [r3, #20]
        huart->gState  = HAL_UART_STATE_READY;
 8001a30:	f887 1039 	strb.w	r1, [r7, #57]	; 0x39
        __HAL_UNLOCK(huart);
 8001a34:	f887 4038 	strb.w	r4, [r7, #56]	; 0x38
        huart->RxState = HAL_UART_STATE_READY;
 8001a38:	f887 103a 	strb.w	r1, [r7, #58]	; 0x3a
        return HAL_TIMEOUT;
 8001a3c:	e7e3      	b.n	8001a06 <UART_WaitOnFlagUntilTimeout.constprop.0+0x1e>
 8001a3e:	bf00      	nop

08001a40 <HAL_UART_Init>:
  if (huart == NULL)
 8001a40:	b360      	cbz	r0, 8001a9c <HAL_UART_Init+0x5c>
{
 8001a42:	b538      	push	{r3, r4, r5, lr}
  if (huart->gState == HAL_UART_STATE_RESET)
 8001a44:	f890 3039 	ldrb.w	r3, [r0, #57]	; 0x39
 8001a48:	4604      	mov	r4, r0
 8001a4a:	f003 02ff 	and.w	r2, r3, #255	; 0xff
 8001a4e:	b303      	cbz	r3, 8001a92 <HAL_UART_Init+0x52>
  huart->gState = HAL_UART_STATE_BUSY;
 8001a50:	2324      	movs	r3, #36	; 0x24
  __HAL_UART_DISABLE(huart);
 8001a52:	6822      	ldr	r2, [r4, #0]
  huart->gState = HAL_UART_STATE_BUSY;
 8001a54:	f884 3039 	strb.w	r3, [r4, #57]	; 0x39
  __HAL_UART_DISABLE(huart);
 8001a58:	68d3      	ldr	r3, [r2, #12]
  UART_SetConfig(huart);
 8001a5a:	4620      	mov	r0, r4
  __HAL_UART_DISABLE(huart);
 8001a5c:	f423 5300 	bic.w	r3, r3, #8192	; 0x2000
 8001a60:	60d3      	str	r3, [r2, #12]
  UART_SetConfig(huart);
 8001a62:	f7ff ff7f 	bl	8001964 <UART_SetConfig>
  huart->ErrorCode = HAL_UART_ERROR_NONE;
 8001a66:	2500      	movs	r5, #0
  huart->gState = HAL_UART_STATE_READY;
 8001a68:	2120      	movs	r1, #32
  CLEAR_BIT(huart->Instance->CR2, (USART_CR2_LINEN | USART_CR2_CLKEN));
 8001a6a:	6823      	ldr	r3, [r4, #0]
  return HAL_OK;
 8001a6c:	4628      	mov	r0, r5
  CLEAR_BIT(huart->Instance->CR2, (USART_CR2_LINEN | USART_CR2_CLKEN));
 8001a6e:	691a      	ldr	r2, [r3, #16]
 8001a70:	f422 4290 	bic.w	r2, r2, #18432	; 0x4800
 8001a74:	611a      	str	r2, [r3, #16]
  CLEAR_BIT(huart->Instance->CR3, (USART_CR3_SCEN | USART_CR3_HDSEL | USART_CR3_IREN));
 8001a76:	695a      	ldr	r2, [r3, #20]
 8001a78:	f022 022a 	bic.w	r2, r2, #42	; 0x2a
 8001a7c:	615a      	str	r2, [r3, #20]
  __HAL_UART_ENABLE(huart);
 8001a7e:	68da      	ldr	r2, [r3, #12]
 8001a80:	f442 5200 	orr.w	r2, r2, #8192	; 0x2000
 8001a84:	60da      	str	r2, [r3, #12]
  huart->ErrorCode = HAL_UART_ERROR_NONE;
 8001a86:	63e5      	str	r5, [r4, #60]	; 0x3c
  huart->gState = HAL_UART_STATE_READY;
 8001a88:	f884 1039 	strb.w	r1, [r4, #57]	; 0x39
  huart->RxState = HAL_UART_STATE_READY;
 8001a8c:	f884 103a 	strb.w	r1, [r4, #58]	; 0x3a
}
 8001a90:	bd38      	pop	{r3, r4, r5, pc}
    huart->Lock = HAL_UNLOCKED;
 8001a92:	f880 2038 	strb.w	r2, [r0, #56]	; 0x38
    HAL_UART_MspInit(huart);
 8001a96:	f7fe fdd1 	bl	800063c <HAL_UART_MspInit>
 8001a9a:	e7d9      	b.n	8001a50 <HAL_UART_Init+0x10>
    return HAL_ERROR;
 8001a9c:	2001      	movs	r0, #1
}
 8001a9e:	4770      	bx	lr

08001aa0 <HAL_UART_Transmit>:
{
 8001aa0:	e92d 43f8 	stmdb	sp!, {r3, r4, r5, r6, r7, r8, r9, lr}
 8001aa4:	4604      	mov	r4, r0
  if (huart->gState == HAL_UART_STATE_READY)
 8001aa6:	f890 0039 	ldrb.w	r0, [r0, #57]	; 0x39
 8001aaa:	2820      	cmp	r0, #32
 8001aac:	d142      	bne.n	8001b34 <HAL_UART_Transmit+0x94>
    if ((pData == NULL) || (Size == 0U))
 8001aae:	460e      	mov	r6, r1
 8001ab0:	2900      	cmp	r1, #0
 8001ab2:	d03c      	beq.n	8001b2e <HAL_UART_Transmit+0x8e>
 8001ab4:	4615      	mov	r5, r2
 8001ab6:	2a00      	cmp	r2, #0
 8001ab8:	d039      	beq.n	8001b2e <HAL_UART_Transmit+0x8e>
 8001aba:	461f      	mov	r7, r3
    __HAL_LOCK(huart);
 8001abc:	f894 3038 	ldrb.w	r3, [r4, #56]	; 0x38
 8001ac0:	2b01      	cmp	r3, #1
 8001ac2:	d037      	beq.n	8001b34 <HAL_UART_Transmit+0x94>
    huart->gState = HAL_UART_STATE_BUSY_TX;
 8001ac4:	2321      	movs	r3, #33	; 0x21
    __HAL_LOCK(huart);
 8001ac6:	2201      	movs	r2, #1
    huart->ErrorCode = HAL_UART_ERROR_NONE;
 8001ac8:	f04f 0800 	mov.w	r8, #0
    __HAL_LOCK(huart);
 8001acc:	f884 2038 	strb.w	r2, [r4, #56]	; 0x38
    huart->ErrorCode = HAL_UART_ERROR_NONE;
 8001ad0:	f8c4 803c 	str.w	r8, [r4, #60]	; 0x3c
    huart->gState = HAL_UART_STATE_BUSY_TX;
 8001ad4:	f884 3039 	strb.w	r3, [r4, #57]	; 0x39
    tickstart = HAL_GetTick();
 8001ad8:	f7ff f832 	bl	8000b40 <HAL_GetTick>
    if ((huart->Init.WordLength == UART_WORDLENGTH_9B) && (huart->Init.Parity == UART_PARITY_NONE))
 8001adc:	68a3      	ldr	r3, [r4, #8]
    tickstart = HAL_GetTick();
 8001ade:	4681      	mov	r9, r0
    if ((huart->Init.WordLength == UART_WORDLENGTH_9B) && (huart->Init.Parity == UART_PARITY_NONE))
 8001ae0:	f5b3 5f80 	cmp.w	r3, #4096	; 0x1000
    huart->TxXferSize = Size;
 8001ae4:	84a5      	strh	r5, [r4, #36]	; 0x24
    huart->TxXferCount = Size;
 8001ae6:	84e5      	strh	r5, [r4, #38]	; 0x26
    if ((huart->Init.WordLength == UART_WORDLENGTH_9B) && (huart->Init.Parity == UART_PARITY_NONE))
 8001ae8:	d027      	beq.n	8001b3a <HAL_UART_Transmit+0x9a>
    __HAL_UNLOCK(huart);
 8001aea:	2200      	movs	r2, #0
    while (huart->TxXferCount > 0U)
 8001aec:	8ce3      	ldrh	r3, [r4, #38]	; 0x26
    __HAL_UNLOCK(huart);
 8001aee:	f884 2038 	strb.w	r2, [r4, #56]	; 0x38
    while (huart->TxXferCount > 0U)
 8001af2:	b29b      	uxth	r3, r3
 8001af4:	b95b      	cbnz	r3, 8001b0e <HAL_UART_Transmit+0x6e>
 8001af6:	e029      	b.n	8001b4c <HAL_UART_Transmit+0xac>
        huart->Instance->DR = (uint8_t)(*pdata8bits & 0xFFU);
 8001af8:	6823      	ldr	r3, [r4, #0]
 8001afa:	f816 2b01 	ldrb.w	r2, [r6], #1
 8001afe:	605a      	str	r2, [r3, #4]
      huart->TxXferCount--;
 8001b00:	8ce5      	ldrh	r5, [r4, #38]	; 0x26
 8001b02:	3d01      	subs	r5, #1
 8001b04:	b2ad      	uxth	r5, r5
 8001b06:	84e5      	strh	r5, [r4, #38]	; 0x26
    while (huart->TxXferCount > 0U)
 8001b08:	8ce1      	ldrh	r1, [r4, #38]	; 0x26
 8001b0a:	b289      	uxth	r1, r1
 8001b0c:	b1f1      	cbz	r1, 8001b4c <HAL_UART_Transmit+0xac>
      if (UART_WaitOnFlagUntilTimeout(huart, UART_FLAG_TXE, RESET, tickstart, Timeout) != HAL_OK)
 8001b0e:	463b      	mov	r3, r7
 8001b10:	464a      	mov	r2, r9
 8001b12:	2180      	movs	r1, #128	; 0x80
 8001b14:	4620      	mov	r0, r4
 8001b16:	f7ff ff67 	bl	80019e8 <UART_WaitOnFlagUntilTimeout.constprop.0>
 8001b1a:	b9a0      	cbnz	r0, 8001b46 <HAL_UART_Transmit+0xa6>
      if (pdata8bits == NULL)
 8001b1c:	2e00      	cmp	r6, #0
 8001b1e:	d1eb      	bne.n	8001af8 <HAL_UART_Transmit+0x58>
        huart->Instance->DR = (uint16_t)(*pdata16bits & 0x01FFU);
 8001b20:	f838 3b02 	ldrh.w	r3, [r8], #2
 8001b24:	6822      	ldr	r2, [r4, #0]
 8001b26:	f3c3 0308 	ubfx	r3, r3, #0, #9
 8001b2a:	6053      	str	r3, [r2, #4]
        pdata16bits++;
 8001b2c:	e7e8      	b.n	8001b00 <HAL_UART_Transmit+0x60>
      return  HAL_ERROR;
 8001b2e:	2001      	movs	r0, #1
}
 8001b30:	e8bd 83f8 	ldmia.w	sp!, {r3, r4, r5, r6, r7, r8, r9, pc}
    return HAL_BUSY;
 8001b34:	2002      	movs	r0, #2
}
 8001b36:	e8bd 83f8 	ldmia.w	sp!, {r3, r4, r5, r6, r7, r8, r9, pc}
    if ((huart->Init.WordLength == UART_WORDLENGTH_9B) && (huart->Init.Parity == UART_PARITY_NONE))
 8001b3a:	6923      	ldr	r3, [r4, #16]
 8001b3c:	2b00      	cmp	r3, #0
 8001b3e:	d1d4      	bne.n	8001aea <HAL_UART_Transmit+0x4a>
 8001b40:	46b0      	mov	r8, r6
      pdata8bits  = NULL;
 8001b42:	461e      	mov	r6, r3
 8001b44:	e7d1      	b.n	8001aea <HAL_UART_Transmit+0x4a>
        return HAL_TIMEOUT;
 8001b46:	2003      	movs	r0, #3
}
 8001b48:	e8bd 83f8 	ldmia.w	sp!, {r3, r4, r5, r6, r7, r8, r9, pc}
    if (UART_WaitOnFlagUntilTimeout(huart, UART_FLAG_TC, RESET, tickstart, Timeout) != HAL_OK)
 8001b4c:	463b      	mov	r3, r7
 8001b4e:	464a      	mov	r2, r9
 8001b50:	2140      	movs	r1, #64	; 0x40
 8001b52:	4620      	mov	r0, r4
 8001b54:	f7ff ff48 	bl	80019e8 <UART_WaitOnFlagUntilTimeout.constprop.0>
 8001b58:	2800      	cmp	r0, #0
 8001b5a:	d1f4      	bne.n	8001b46 <HAL_UART_Transmit+0xa6>
    huart->gState = HAL_UART_STATE_READY;
 8001b5c:	2320      	movs	r3, #32
 8001b5e:	f884 3039 	strb.w	r3, [r4, #57]	; 0x39
    return HAL_OK;
 8001b62:	e7e5      	b.n	8001b30 <HAL_UART_Transmit+0x90>

08001b64 <HAL_UART_Receive_DMA>:
  if (huart->RxState == HAL_UART_STATE_READY)
 8001b64:	f890 303a 	ldrb.w	r3, [r0, #58]	; 0x3a
 8001b68:	2b20      	cmp	r3, #32
 8001b6a:	d13c      	bne.n	8001be6 <HAL_UART_Receive_DMA+0x82>
    if ((pData == NULL) || (Size == 0U))
 8001b6c:	2900      	cmp	r1, #0
 8001b6e:	d038      	beq.n	8001be2 <HAL_UART_Receive_DMA+0x7e>
 8001b70:	2a00      	cmp	r2, #0
 8001b72:	d036      	beq.n	8001be2 <HAL_UART_Receive_DMA+0x7e>
{
 8001b74:	b5f0      	push	{r4, r5, r6, r7, lr}
    __HAL_LOCK(huart);
 8001b76:	f890 3038 	ldrb.w	r3, [r0, #56]	; 0x38
 8001b7a:	4604      	mov	r4, r0
 8001b7c:	2b01      	cmp	r3, #1
{
 8001b7e:	b083      	sub	sp, #12
    __HAL_LOCK(huart);
 8001b80:	d033      	beq.n	8001bea <HAL_UART_Receive_DMA+0x86>
 8001b82:	2601      	movs	r6, #1
    huart->ErrorCode = HAL_UART_ERROR_NONE;
 8001b84:	2500      	movs	r5, #0
    huart->RxState = HAL_UART_STATE_BUSY_RX;
 8001b86:	2722      	movs	r7, #34	; 0x22
    huart->hdmarx->XferCpltCallback = UART_DMAReceiveCplt;
 8001b88:	6b40      	ldr	r0, [r0, #52]	; 0x34
    HAL_DMA_Start_IT(huart->hdmarx, (uint32_t)&huart->Instance->DR, *(uint32_t *)tmp, Size);
 8001b8a:	4613      	mov	r3, r2
    huart->pRxBuffPtr = pData;
 8001b8c:	62a1      	str	r1, [r4, #40]	; 0x28
    huart->RxXferSize = Size;
 8001b8e:	85a2      	strh	r2, [r4, #44]	; 0x2c
    __HAL_LOCK(huart);
 8001b90:	f884 6038 	strb.w	r6, [r4, #56]	; 0x38
    HAL_DMA_Start_IT(huart->hdmarx, (uint32_t)&huart->Instance->DR, *(uint32_t *)tmp, Size);
 8001b94:	460a      	mov	r2, r1
    huart->hdmarx->XferCpltCallback = UART_DMAReceiveCplt;
 8001b96:	4e16      	ldr	r6, [pc, #88]	; (8001bf0 <HAL_UART_Receive_DMA+0x8c>)
    huart->hdmarx->XferHalfCpltCallback = UART_DMARxHalfCplt;
 8001b98:	4916      	ldr	r1, [pc, #88]	; (8001bf4 <HAL_UART_Receive_DMA+0x90>)
    huart->ErrorCode = HAL_UART_ERROR_NONE;
 8001b9a:	63e5      	str	r5, [r4, #60]	; 0x3c
    huart->RxState = HAL_UART_STATE_BUSY_RX;
 8001b9c:	f884 703a 	strb.w	r7, [r4, #58]	; 0x3a
    huart->hdmarx->XferCpltCallback = UART_DMAReceiveCplt;
 8001ba0:	6286      	str	r6, [r0, #40]	; 0x28
    huart->hdmarx->XferHalfCpltCallback = UART_DMARxHalfCplt;
 8001ba2:	62c1      	str	r1, [r0, #44]	; 0x2c
    huart->hdmarx->XferErrorCallback = UART_DMAError;
 8001ba4:	4e14      	ldr	r6, [pc, #80]	; (8001bf8 <HAL_UART_Receive_DMA+0x94>)
    HAL_DMA_Start_IT(huart->hdmarx, (uint32_t)&huart->Instance->DR, *(uint32_t *)tmp, Size);
 8001ba6:	6821      	ldr	r1, [r4, #0]
    huart->hdmarx->XferAbortCallback = NULL;
 8001ba8:	6345      	str	r5, [r0, #52]	; 0x34
    huart->hdmarx->XferErrorCallback = UART_DMAError;
 8001baa:	6306      	str	r6, [r0, #48]	; 0x30
    HAL_DMA_Start_IT(huart->hdmarx, (uint32_t)&huart->Instance->DR, *(uint32_t *)tmp, Size);
 8001bac:	3104      	adds	r1, #4
 8001bae:	f7ff f881 	bl	8000cb4 <HAL_DMA_Start_IT>
    return HAL_OK;
 8001bb2:	4628      	mov	r0, r5
    __HAL_UART_CLEAR_OREFLAG(huart);
 8001bb4:	6823      	ldr	r3, [r4, #0]
 8001bb6:	9501      	str	r5, [sp, #4]
 8001bb8:	681a      	ldr	r2, [r3, #0]
 8001bba:	9201      	str	r2, [sp, #4]
 8001bbc:	685a      	ldr	r2, [r3, #4]
    __HAL_UNLOCK(huart);
 8001bbe:	f884 5038 	strb.w	r5, [r4, #56]	; 0x38
    __HAL_UART_CLEAR_OREFLAG(huart);
 8001bc2:	9201      	str	r2, [sp, #4]
 8001bc4:	9a01      	ldr	r2, [sp, #4]
    SET_BIT(huart->Instance->CR1, USART_CR1_PEIE);
 8001bc6:	68da      	ldr	r2, [r3, #12]
 8001bc8:	f442 7280 	orr.w	r2, r2, #256	; 0x100
 8001bcc:	60da      	str	r2, [r3, #12]
    SET_BIT(huart->Instance->CR3, USART_CR3_EIE);
 8001bce:	695a      	ldr	r2, [r3, #20]
 8001bd0:	f042 0201 	orr.w	r2, r2, #1
 8001bd4:	615a      	str	r2, [r3, #20]
    SET_BIT(huart->Instance->CR3, USART_CR3_DMAR);
 8001bd6:	695a      	ldr	r2, [r3, #20]
 8001bd8:	f042 0240 	orr.w	r2, r2, #64	; 0x40
 8001bdc:	615a      	str	r2, [r3, #20]
}
 8001bde:	b003      	add	sp, #12
 8001be0:	bdf0      	pop	{r4, r5, r6, r7, pc}
      return HAL_ERROR;
 8001be2:	2001      	movs	r0, #1
}
 8001be4:	4770      	bx	lr
    return HAL_BUSY;
 8001be6:	2002      	movs	r0, #2
 8001be8:	4770      	bx	lr
 8001bea:	2002      	movs	r0, #2
}
 8001bec:	b003      	add	sp, #12
 8001bee:	bdf0      	pop	{r4, r5, r6, r7, pc}
 8001bf0:	08001c7d 	.word	0x08001c7d
 8001bf4:	08001d3d 	.word	0x08001d3d
 8001bf8:	08001d4d 	.word	0x08001d4d

08001bfc <HAL_UART_DMAStop>:
{
 8001bfc:	b510      	push	{r4, lr}
  dmarequest = HAL_IS_BIT_SET(huart->Instance->CR3, USART_CR3_DMAT);
 8001bfe:	6803      	ldr	r3, [r0, #0]
{
 8001c00:	4604      	mov	r4, r0
  dmarequest = HAL_IS_BIT_SET(huart->Instance->CR3, USART_CR3_DMAT);
 8001c02:	6959      	ldr	r1, [r3, #20]
  if ((huart->gState == HAL_UART_STATE_BUSY_TX) && dmarequest)
 8001c04:	f890 2039 	ldrb.w	r2, [r0, #57]	; 0x39
 8001c08:	2a21      	cmp	r2, #33	; 0x21
 8001c0a:	d006      	beq.n	8001c1a <HAL_UART_DMAStop+0x1e>
  dmarequest = HAL_IS_BIT_SET(huart->Instance->CR3, USART_CR3_DMAR);
 8001c0c:	6959      	ldr	r1, [r3, #20]
  if ((huart->RxState == HAL_UART_STATE_BUSY_RX) && dmarequest)
 8001c0e:	f894 203a 	ldrb.w	r2, [r4, #58]	; 0x3a
 8001c12:	2a22      	cmp	r2, #34	; 0x22
 8001c14:	d018      	beq.n	8001c48 <HAL_UART_DMAStop+0x4c>
}
 8001c16:	2000      	movs	r0, #0
 8001c18:	bd10      	pop	{r4, pc}
  if ((huart->gState == HAL_UART_STATE_BUSY_TX) && dmarequest)
 8001c1a:	0609      	lsls	r1, r1, #24
 8001c1c:	d5f6      	bpl.n	8001c0c <HAL_UART_DMAStop+0x10>
    CLEAR_BIT(huart->Instance->CR3, USART_CR3_DMAT);
 8001c1e:	695a      	ldr	r2, [r3, #20]
    if (huart->hdmatx != NULL)
 8001c20:	6b00      	ldr	r0, [r0, #48]	; 0x30
    CLEAR_BIT(huart->Instance->CR3, USART_CR3_DMAT);
 8001c22:	f022 0280 	bic.w	r2, r2, #128	; 0x80
 8001c26:	615a      	str	r2, [r3, #20]
    if (huart->hdmatx != NULL)
 8001c28:	b110      	cbz	r0, 8001c30 <HAL_UART_DMAStop+0x34>
      HAL_DMA_Abort(huart->hdmatx);
 8001c2a:	f7ff f885 	bl	8000d38 <HAL_DMA_Abort>
 8001c2e:	6823      	ldr	r3, [r4, #0]
  huart->gState = HAL_UART_STATE_READY;
 8001c30:	2120      	movs	r1, #32
  CLEAR_BIT(huart->Instance->CR1, (USART_CR1_TXEIE | USART_CR1_TCIE));
 8001c32:	68da      	ldr	r2, [r3, #12]
 8001c34:	f022 02c0 	bic.w	r2, r2, #192	; 0xc0
 8001c38:	60da      	str	r2, [r3, #12]
  huart->gState = HAL_UART_STATE_READY;
 8001c3a:	f884 1039 	strb.w	r1, [r4, #57]	; 0x39
  dmarequest = HAL_IS_BIT_SET(huart->Instance->CR3, USART_CR3_DMAR);
 8001c3e:	6959      	ldr	r1, [r3, #20]
  if ((huart->RxState == HAL_UART_STATE_BUSY_RX) && dmarequest)
 8001c40:	f894 203a 	ldrb.w	r2, [r4, #58]	; 0x3a
 8001c44:	2a22      	cmp	r2, #34	; 0x22
 8001c46:	d1e6      	bne.n	8001c16 <HAL_UART_DMAStop+0x1a>
 8001c48:	064a      	lsls	r2, r1, #25
 8001c4a:	d5e4      	bpl.n	8001c16 <HAL_UART_DMAStop+0x1a>
    CLEAR_BIT(huart->Instance->CR3, USART_CR3_DMAR);
 8001c4c:	695a      	ldr	r2, [r3, #20]
    if (huart->hdmarx != NULL)
 8001c4e:	6b60      	ldr	r0, [r4, #52]	; 0x34
    CLEAR_BIT(huart->Instance->CR3, USART_CR3_DMAR);
 8001c50:	f022 0240 	bic.w	r2, r2, #64	; 0x40
 8001c54:	615a      	str	r2, [r3, #20]
    if (huart->hdmarx != NULL)
 8001c56:	b110      	cbz	r0, 8001c5e <HAL_UART_DMAStop+0x62>
      HAL_DMA_Abort(huart->hdmarx);
 8001c58:	f7ff f86e 	bl	8000d38 <HAL_DMA_Abort>
 8001c5c:	6823      	ldr	r3, [r4, #0]
  huart->RxState = HAL_UART_STATE_READY;
 8001c5e:	2120      	movs	r1, #32
  CLEAR_BIT(huart->Instance->CR1, (USART_CR1_RXNEIE | USART_CR1_PEIE));
 8001c60:	68da      	ldr	r2, [r3, #12]
}
 8001c62:	2000      	movs	r0, #0
  CLEAR_BIT(huart->Instance->CR1, (USART_CR1_RXNEIE | USART_CR1_PEIE));
 8001c64:	f422 7290 	bic.w	r2, r2, #288	; 0x120
 8001c68:	60da      	str	r2, [r3, #12]
  CLEAR_BIT(huart->Instance->CR3, USART_CR3_EIE);
 8001c6a:	695a      	ldr	r2, [r3, #20]
 8001c6c:	f022 0201 	bic.w	r2, r2, #1
 8001c70:	615a      	str	r2, [r3, #20]
  huart->RxState = HAL_UART_STATE_READY;
 8001c72:	f884 103a 	strb.w	r1, [r4, #58]	; 0x3a
}
 8001c76:	bd10      	pop	{r4, pc}

08001c78 <HAL_UART_TxCpltCallback>:
 8001c78:	4770      	bx	lr
 8001c7a:	bf00      	nop

08001c7c <UART_DMAReceiveCplt>:
{
 8001c7c:	b508      	push	{r3, lr}
  if ((hdma->Instance->CCR & DMA_CCR_CIRC) == 0U)
 8001c7e:	6803      	ldr	r3, [r0, #0]
  UART_HandleTypeDef *huart = (UART_HandleTypeDef *)((DMA_HandleTypeDef *)hdma)->Parent;
 8001c80:	6a40      	ldr	r0, [r0, #36]	; 0x24
  if ((hdma->Instance->CCR & DMA_CCR_CIRC) == 0U)
 8001c82:	681b      	ldr	r3, [r3, #0]
 8001c84:	f013 0320 	ands.w	r3, r3, #32
 8001c88:	d110      	bne.n	8001cac <UART_DMAReceiveCplt+0x30>
    huart->RxState = HAL_UART_STATE_READY;
 8001c8a:	2120      	movs	r1, #32
    CLEAR_BIT(huart->Instance->CR1, USART_CR1_PEIE);
 8001c8c:	6802      	ldr	r2, [r0, #0]
    huart->RxXferCount = 0U;
 8001c8e:	85c3      	strh	r3, [r0, #46]	; 0x2e
    CLEAR_BIT(huart->Instance->CR1, USART_CR1_PEIE);
 8001c90:	68d3      	ldr	r3, [r2, #12]
 8001c92:	f423 7380 	bic.w	r3, r3, #256	; 0x100
 8001c96:	60d3      	str	r3, [r2, #12]
    CLEAR_BIT(huart->Instance->CR3, USART_CR3_EIE);
 8001c98:	6953      	ldr	r3, [r2, #20]
 8001c9a:	f023 0301 	bic.w	r3, r3, #1
 8001c9e:	6153      	str	r3, [r2, #20]
    CLEAR_BIT(huart->Instance->CR3, USART_CR3_DMAR);
 8001ca0:	6953      	ldr	r3, [r2, #20]
 8001ca2:	f023 0340 	bic.w	r3, r3, #64	; 0x40
 8001ca6:	6153      	str	r3, [r2, #20]
    huart->RxState = HAL_UART_STATE_READY;
 8001ca8:	f880 103a 	strb.w	r1, [r0, #58]	; 0x3a
  HAL_UART_RxCpltCallback(huart);
 8001cac:	f7fe fbec 	bl	8000488 <HAL_UART_RxCpltCallback>
}
 8001cb0:	bd08      	pop	{r3, pc}
 8001cb2:	bf00      	nop

08001cb4 <UART_Receive_IT.part.0>:
static HAL_StatusTypeDef UART_Receive_IT(UART_HandleTypeDef *huart)
 8001cb4:	b508      	push	{r3, lr}
    if ((huart->Init.WordLength == UART_WORDLENGTH_9B) && (huart->Init.Parity == UART_PARITY_NONE))
 8001cb6:	6883      	ldr	r3, [r0, #8]
 8001cb8:	f5b3 5f80 	cmp.w	r3, #4096	; 0x1000
 8001cbc:	d017      	beq.n	8001cee <UART_Receive_IT.part.0+0x3a>
      pdata8bits = (uint8_t *) huart->pRxBuffPtr;
 8001cbe:	6a82      	ldr	r2, [r0, #40]	; 0x28
      if ((huart->Init.WordLength == UART_WORDLENGTH_9B) || ((huart->Init.WordLength == UART_WORDLENGTH_8B) && (huart->Init.Parity == UART_PARITY_NONE)))
 8001cc0:	b173      	cbz	r3, 8001ce0 <UART_Receive_IT.part.0+0x2c>
        *pdata8bits = (uint8_t)(huart->Instance->DR & (uint8_t)0x007F);
 8001cc2:	6803      	ldr	r3, [r0, #0]
 8001cc4:	685b      	ldr	r3, [r3, #4]
 8001cc6:	f003 037f 	and.w	r3, r3, #127	; 0x7f
 8001cca:	7013      	strb	r3, [r2, #0]
      huart->pRxBuffPtr += 1U;
 8001ccc:	6a83      	ldr	r3, [r0, #40]	; 0x28
 8001cce:	3301      	adds	r3, #1
 8001cd0:	6283      	str	r3, [r0, #40]	; 0x28
    if (--huart->RxXferCount == 0U)
 8001cd2:	8dc3      	ldrh	r3, [r0, #46]	; 0x2e
 8001cd4:	3b01      	subs	r3, #1
 8001cd6:	b29b      	uxth	r3, r3
 8001cd8:	85c3      	strh	r3, [r0, #46]	; 0x2e
 8001cda:	b19b      	cbz	r3, 8001d04 <UART_Receive_IT.part.0+0x50>
}
 8001cdc:	2000      	movs	r0, #0
 8001cde:	bd08      	pop	{r3, pc}
      if ((huart->Init.WordLength == UART_WORDLENGTH_9B) || ((huart->Init.WordLength == UART_WORDLENGTH_8B) && (huart->Init.Parity == UART_PARITY_NONE)))
 8001ce0:	6903      	ldr	r3, [r0, #16]
 8001ce2:	2b00      	cmp	r3, #0
 8001ce4:	d1ed      	bne.n	8001cc2 <UART_Receive_IT.part.0+0xe>
        *pdata8bits = (uint8_t)(huart->Instance->DR & (uint8_t)0x00FF);
 8001ce6:	6803      	ldr	r3, [r0, #0]
 8001ce8:	685b      	ldr	r3, [r3, #4]
 8001cea:	7013      	strb	r3, [r2, #0]
 8001cec:	e7ee      	b.n	8001ccc <UART_Receive_IT.part.0+0x18>
    if ((huart->Init.WordLength == UART_WORDLENGTH_9B) && (huart->Init.Parity == UART_PARITY_NONE))
 8001cee:	6903      	ldr	r3, [r0, #16]
 8001cf0:	b9e3      	cbnz	r3, 8001d2c <UART_Receive_IT.part.0+0x78>
      *pdata16bits = (uint16_t)(huart->Instance->DR & (uint16_t)0x01FF);
 8001cf2:	6802      	ldr	r2, [r0, #0]
 8001cf4:	6a83      	ldr	r3, [r0, #40]	; 0x28
 8001cf6:	6852      	ldr	r2, [r2, #4]
 8001cf8:	f3c2 0208 	ubfx	r2, r2, #0, #9
 8001cfc:	f823 2b02 	strh.w	r2, [r3], #2
      huart->pRxBuffPtr += 2U;
 8001d00:	6283      	str	r3, [r0, #40]	; 0x28
 8001d02:	e7e6      	b.n	8001cd2 <UART_Receive_IT.part.0+0x1e>
      huart->RxState = HAL_UART_STATE_READY;
 8001d04:	2120      	movs	r1, #32
      __HAL_UART_DISABLE_IT(huart, UART_IT_RXNE);
 8001d06:	6803      	ldr	r3, [r0, #0]
 8001d08:	68da      	ldr	r2, [r3, #12]
 8001d0a:	f022 0220 	bic.w	r2, r2, #32
 8001d0e:	60da      	str	r2, [r3, #12]
      __HAL_UART_DISABLE_IT(huart, UART_IT_PE);
 8001d10:	68da      	ldr	r2, [r3, #12]
 8001d12:	f422 7280 	bic.w	r2, r2, #256	; 0x100
 8001d16:	60da      	str	r2, [r3, #12]
      __HAL_UART_DISABLE_IT(huart, UART_IT_ERR);
 8001d18:	695a      	ldr	r2, [r3, #20]
 8001d1a:	f022 0201 	bic.w	r2, r2, #1
 8001d1e:	615a      	str	r2, [r3, #20]
      huart->RxState = HAL_UART_STATE_READY;
 8001d20:	f880 103a 	strb.w	r1, [r0, #58]	; 0x3a
      HAL_UART_RxCpltCallback(huart);
 8001d24:	f7fe fbb0 	bl	8000488 <HAL_UART_RxCpltCallback>
}
 8001d28:	2000      	movs	r0, #0
 8001d2a:	bd08      	pop	{r3, pc}
        *pdata8bits = (uint8_t)(huart->Instance->DR & (uint8_t)0x00FF);
 8001d2c:	6803      	ldr	r3, [r0, #0]
      pdata8bits = (uint8_t *) huart->pRxBuffPtr;
 8001d2e:	6a82      	ldr	r2, [r0, #40]	; 0x28
        *pdata8bits = (uint8_t)(huart->Instance->DR & (uint8_t)0x00FF);
 8001d30:	685b      	ldr	r3, [r3, #4]
 8001d32:	7013      	strb	r3, [r2, #0]
 8001d34:	e7ca      	b.n	8001ccc <UART_Receive_IT.part.0+0x18>
 8001d36:	bf00      	nop

08001d38 <HAL_UART_RxHalfCpltCallback>:
 8001d38:	4770      	bx	lr
 8001d3a:	bf00      	nop

08001d3c <UART_DMARxHalfCplt>:
{
 8001d3c:	b508      	push	{r3, lr}
  HAL_UART_RxHalfCpltCallback(huart);
 8001d3e:	6a40      	ldr	r0, [r0, #36]	; 0x24
 8001d40:	f7ff fffa 	bl	8001d38 <HAL_UART_RxHalfCpltCallback>
}
 8001d44:	bd08      	pop	{r3, pc}
 8001d46:	bf00      	nop

08001d48 <HAL_UART_ErrorCallback>:
 8001d48:	4770      	bx	lr
 8001d4a:	bf00      	nop

08001d4c <UART_DMAError>:
{
 8001d4c:	b508      	push	{r3, lr}
  UART_HandleTypeDef *huart = (UART_HandleTypeDef *)((DMA_HandleTypeDef *)hdma)->Parent;
 8001d4e:	6a40      	ldr	r0, [r0, #36]	; 0x24
  dmarequest = HAL_IS_BIT_SET(huart->Instance->CR3, USART_CR3_DMAT);
 8001d50:	6803      	ldr	r3, [r0, #0]
 8001d52:	6959      	ldr	r1, [r3, #20]
  if ((huart->gState == HAL_UART_STATE_BUSY_TX) && dmarequest)
 8001d54:	f890 2039 	ldrb.w	r2, [r0, #57]	; 0x39
 8001d58:	2a21      	cmp	r2, #33	; 0x21
 8001d5a:	d00b      	beq.n	8001d74 <UART_DMAError+0x28>
  dmarequest = HAL_IS_BIT_SET(huart->Instance->CR3, USART_CR3_DMAR);
 8001d5c:	6959      	ldr	r1, [r3, #20]
  if ((huart->RxState == HAL_UART_STATE_BUSY_RX) && dmarequest)
 8001d5e:	f890 203a 	ldrb.w	r2, [r0, #58]	; 0x3a
 8001d62:	2a22      	cmp	r2, #34	; 0x22
 8001d64:	d016      	beq.n	8001d94 <UART_DMAError+0x48>
  huart->ErrorCode |= HAL_UART_ERROR_DMA;
 8001d66:	6bc3      	ldr	r3, [r0, #60]	; 0x3c
 8001d68:	f043 0310 	orr.w	r3, r3, #16
 8001d6c:	63c3      	str	r3, [r0, #60]	; 0x3c
  HAL_UART_ErrorCallback(huart);
 8001d6e:	f7ff ffeb 	bl	8001d48 <HAL_UART_ErrorCallback>
}
 8001d72:	bd08      	pop	{r3, pc}
  if ((huart->gState == HAL_UART_STATE_BUSY_TX) && dmarequest)
 8001d74:	0609      	lsls	r1, r1, #24
 8001d76:	d5f1      	bpl.n	8001d5c <UART_DMAError+0x10>
    huart->TxXferCount = 0x00U;
 8001d78:	2200      	movs	r2, #0
  huart->gState = HAL_UART_STATE_READY;
 8001d7a:	2120      	movs	r1, #32
    huart->TxXferCount = 0x00U;
 8001d7c:	84c2      	strh	r2, [r0, #38]	; 0x26
  CLEAR_BIT(huart->Instance->CR1, (USART_CR1_TXEIE | USART_CR1_TCIE));
 8001d7e:	68da      	ldr	r2, [r3, #12]
 8001d80:	f022 02c0 	bic.w	r2, r2, #192	; 0xc0
 8001d84:	60da      	str	r2, [r3, #12]
  huart->gState = HAL_UART_STATE_READY;
 8001d86:	f880 1039 	strb.w	r1, [r0, #57]	; 0x39
  dmarequest = HAL_IS_BIT_SET(huart->Instance->CR3, USART_CR3_DMAR);
 8001d8a:	6959      	ldr	r1, [r3, #20]
  if ((huart->RxState == HAL_UART_STATE_BUSY_RX) && dmarequest)
 8001d8c:	f890 203a 	ldrb.w	r2, [r0, #58]	; 0x3a
 8001d90:	2a22      	cmp	r2, #34	; 0x22
 8001d92:	d1e8      	bne.n	8001d66 <UART_DMAError+0x1a>
 8001d94:	064a      	lsls	r2, r1, #25
 8001d96:	d5e6      	bpl.n	8001d66 <UART_DMAError+0x1a>
    huart->RxXferCount = 0x00U;
 8001d98:	2200      	movs	r2, #0
  huart->RxState = HAL_UART_STATE_READY;
 8001d9a:	2120      	movs	r1, #32
    huart->RxXferCount = 0x00U;
 8001d9c:	85c2      	strh	r2, [r0, #46]	; 0x2e
  CLEAR_BIT(huart->Instance->CR1, (USART_CR1_RXNEIE | USART_CR1_PEIE));
 8001d9e:	68da      	ldr	r2, [r3, #12]
 8001da0:	f422 7290 	bic.w	r2, r2, #288	; 0x120
 8001da4:	60da      	str	r2, [r3, #12]
  CLEAR_BIT(huart->Instance->CR3, USART_CR3_EIE);
 8001da6:	695a      	ldr	r2, [r3, #20]
 8001da8:	f022 0201 	bic.w	r2, r2, #1
 8001dac:	615a      	str	r2, [r3, #20]
  huart->RxState = HAL_UART_STATE_READY;
 8001dae:	f880 103a 	strb.w	r1, [r0, #58]	; 0x3a
}
 8001db2:	e7d8      	b.n	8001d66 <UART_DMAError+0x1a>

08001db4 <HAL_UART_IRQHandler>:
  uint32_t isrflags   = READ_REG(huart->Instance->SR);
 8001db4:	6803      	ldr	r3, [r0, #0]
{
 8001db6:	b570      	push	{r4, r5, r6, lr}
  uint32_t isrflags   = READ_REG(huart->Instance->SR);
 8001db8:	681a      	ldr	r2, [r3, #0]
{
 8001dba:	4604      	mov	r4, r0
  if (errorflags == RESET)
 8001dbc:	0716      	lsls	r6, r2, #28
  uint32_t cr1its     = READ_REG(huart->Instance->CR1);
 8001dbe:	68dd      	ldr	r5, [r3, #12]
  uint32_t cr3its     = READ_REG(huart->Instance->CR3);
 8001dc0:	6959      	ldr	r1, [r3, #20]
  if (errorflags == RESET)
 8001dc2:	d10c      	bne.n	8001dde <HAL_UART_IRQHandler+0x2a>
    if (((isrflags & USART_SR_RXNE) != RESET) && ((cr1its & USART_CR1_RXNEIE) != RESET))
 8001dc4:	0691      	lsls	r1, r2, #26
 8001dc6:	d501      	bpl.n	8001dcc <HAL_UART_IRQHandler+0x18>
 8001dc8:	06ae      	lsls	r6, r5, #26
 8001dca:	d44e      	bmi.n	8001e6a <HAL_UART_IRQHandler+0xb6>
  if (((isrflags & USART_SR_TXE) != RESET) && ((cr1its & USART_CR1_TXEIE) != RESET))
 8001dcc:	0616      	lsls	r6, r2, #24
 8001dce:	d501      	bpl.n	8001dd4 <HAL_UART_IRQHandler+0x20>
 8001dd0:	0628      	lsls	r0, r5, #24
 8001dd2:	d452      	bmi.n	8001e7a <HAL_UART_IRQHandler+0xc6>
  if (((isrflags & USART_SR_TC) != RESET) && ((cr1its & USART_CR1_TCIE) != RESET))
 8001dd4:	0651      	lsls	r1, r2, #25
 8001dd6:	d501      	bpl.n	8001ddc <HAL_UART_IRQHandler+0x28>
 8001dd8:	066a      	lsls	r2, r5, #25
 8001dda:	d46a      	bmi.n	8001eb2 <HAL_UART_IRQHandler+0xfe>
}
 8001ddc:	bd70      	pop	{r4, r5, r6, pc}
  if ((errorflags != RESET) && (((cr3its & USART_CR3_EIE) != RESET) || ((cr1its & (USART_CR1_RXNEIE | USART_CR1_PEIE)) != RESET)))
 8001dde:	f001 0101 	and.w	r1, r1, #1
 8001de2:	f405 7090 	and.w	r0, r5, #288	; 0x120
 8001de6:	4308      	orrs	r0, r1
 8001de8:	d0f0      	beq.n	8001dcc <HAL_UART_IRQHandler+0x18>
    if (((isrflags & USART_SR_PE) != RESET) && ((cr1its & USART_CR1_PEIE) != RESET))
 8001dea:	07d0      	lsls	r0, r2, #31
 8001dec:	d505      	bpl.n	8001dfa <HAL_UART_IRQHandler+0x46>
 8001dee:	05ee      	lsls	r6, r5, #23
 8001df0:	d503      	bpl.n	8001dfa <HAL_UART_IRQHandler+0x46>
      huart->ErrorCode |= HAL_UART_ERROR_PE;
 8001df2:	6be0      	ldr	r0, [r4, #60]	; 0x3c
 8001df4:	f040 0001 	orr.w	r0, r0, #1
 8001df8:	63e0      	str	r0, [r4, #60]	; 0x3c
    if (((isrflags & USART_SR_NE) != RESET) && ((cr3its & USART_CR3_EIE) != RESET))
 8001dfa:	0750      	lsls	r0, r2, #29
 8001dfc:	d52c      	bpl.n	8001e58 <HAL_UART_IRQHandler+0xa4>
 8001dfe:	b129      	cbz	r1, 8001e0c <HAL_UART_IRQHandler+0x58>
      huart->ErrorCode |= HAL_UART_ERROR_NE;
 8001e00:	6be0      	ldr	r0, [r4, #60]	; 0x3c
    if (((isrflags & USART_SR_FE) != RESET) && ((cr3its & USART_CR3_EIE) != RESET))
 8001e02:	0796      	lsls	r6, r2, #30
      huart->ErrorCode |= HAL_UART_ERROR_NE;
 8001e04:	f040 0002 	orr.w	r0, r0, #2
 8001e08:	63e0      	str	r0, [r4, #60]	; 0x3c
    if (((isrflags & USART_SR_FE) != RESET) && ((cr3its & USART_CR3_EIE) != RESET))
 8001e0a:	d429      	bmi.n	8001e60 <HAL_UART_IRQHandler+0xac>
    if (((isrflags & USART_SR_ORE) != RESET) && (((cr1its & USART_CR1_RXNEIE) != RESET) || ((cr3its & USART_CR3_EIE) != RESET)))
 8001e0c:	0716      	lsls	r6, r2, #28
 8001e0e:	d507      	bpl.n	8001e20 <HAL_UART_IRQHandler+0x6c>
 8001e10:	f005 0020 	and.w	r0, r5, #32
 8001e14:	4301      	orrs	r1, r0
 8001e16:	d003      	beq.n	8001e20 <HAL_UART_IRQHandler+0x6c>
      huart->ErrorCode |= HAL_UART_ERROR_ORE;
 8001e18:	6be1      	ldr	r1, [r4, #60]	; 0x3c
 8001e1a:	f041 0108 	orr.w	r1, r1, #8
 8001e1e:	63e1      	str	r1, [r4, #60]	; 0x3c
    if (huart->ErrorCode != HAL_UART_ERROR_NONE)
 8001e20:	6be1      	ldr	r1, [r4, #60]	; 0x3c
 8001e22:	2900      	cmp	r1, #0
 8001e24:	d0da      	beq.n	8001ddc <HAL_UART_IRQHandler+0x28>
      if (((isrflags & USART_SR_RXNE) != RESET) && ((cr1its & USART_CR1_RXNEIE) != RESET))
 8001e26:	0690      	lsls	r0, r2, #26
 8001e28:	d509      	bpl.n	8001e3e <HAL_UART_IRQHandler+0x8a>
 8001e2a:	06a9      	lsls	r1, r5, #26
 8001e2c:	d507      	bpl.n	8001e3e <HAL_UART_IRQHandler+0x8a>
  if (huart->RxState == HAL_UART_STATE_BUSY_RX)
 8001e2e:	f894 203a 	ldrb.w	r2, [r4, #58]	; 0x3a
 8001e32:	2a22      	cmp	r2, #34	; 0x22
 8001e34:	d103      	bne.n	8001e3e <HAL_UART_IRQHandler+0x8a>
 8001e36:	4620      	mov	r0, r4
 8001e38:	f7ff ff3c 	bl	8001cb4 <UART_Receive_IT.part.0>
 8001e3c:	6823      	ldr	r3, [r4, #0]
      dmarequest = HAL_IS_BIT_SET(huart->Instance->CR3, USART_CR3_DMAR);
 8001e3e:	695a      	ldr	r2, [r3, #20]
      if (((huart->ErrorCode & HAL_UART_ERROR_ORE) != RESET) || dmarequest)
 8001e40:	6be5      	ldr	r5, [r4, #60]	; 0x3c
      dmarequest = HAL_IS_BIT_SET(huart->Instance->CR3, USART_CR3_DMAR);
 8001e42:	f002 0240 	and.w	r2, r2, #64	; 0x40
      if (((huart->ErrorCode & HAL_UART_ERROR_ORE) != RESET) || dmarequest)
 8001e46:	f005 0508 	and.w	r5, r5, #8
 8001e4a:	4315      	orrs	r5, r2
 8001e4c:	d13c      	bne.n	8001ec8 <HAL_UART_IRQHandler+0x114>
        HAL_UART_ErrorCallback(huart);
 8001e4e:	4620      	mov	r0, r4
 8001e50:	f7ff ff7a 	bl	8001d48 <HAL_UART_ErrorCallback>
        huart->ErrorCode = HAL_UART_ERROR_NONE;
 8001e54:	63e5      	str	r5, [r4, #60]	; 0x3c
}
 8001e56:	bd70      	pop	{r4, r5, r6, pc}
    if (((isrflags & USART_SR_FE) != RESET) && ((cr3its & USART_CR3_EIE) != RESET))
 8001e58:	0790      	lsls	r0, r2, #30
 8001e5a:	d5d7      	bpl.n	8001e0c <HAL_UART_IRQHandler+0x58>
 8001e5c:	2900      	cmp	r1, #0
 8001e5e:	d0d5      	beq.n	8001e0c <HAL_UART_IRQHandler+0x58>
      huart->ErrorCode |= HAL_UART_ERROR_FE;
 8001e60:	6be0      	ldr	r0, [r4, #60]	; 0x3c
 8001e62:	f040 0004 	orr.w	r0, r0, #4
 8001e66:	63e0      	str	r0, [r4, #60]	; 0x3c
 8001e68:	e7d0      	b.n	8001e0c <HAL_UART_IRQHandler+0x58>
  if (huart->RxState == HAL_UART_STATE_BUSY_RX)
 8001e6a:	f890 303a 	ldrb.w	r3, [r0, #58]	; 0x3a
 8001e6e:	2b22      	cmp	r3, #34	; 0x22
 8001e70:	d1b4      	bne.n	8001ddc <HAL_UART_IRQHandler+0x28>
}
 8001e72:	e8bd 4070 	ldmia.w	sp!, {r4, r5, r6, lr}
 8001e76:	f7ff bf1d 	b.w	8001cb4 <UART_Receive_IT.part.0>
  if (huart->gState == HAL_UART_STATE_BUSY_TX)
 8001e7a:	f894 2039 	ldrb.w	r2, [r4, #57]	; 0x39
 8001e7e:	2a21      	cmp	r2, #33	; 0x21
 8001e80:	d1ac      	bne.n	8001ddc <HAL_UART_IRQHandler+0x28>
    if ((huart->Init.WordLength == UART_WORDLENGTH_9B) && (huart->Init.Parity == UART_PARITY_NONE))
 8001e82:	68a2      	ldr	r2, [r4, #8]
 8001e84:	f5b2 5f80 	cmp.w	r2, #4096	; 0x1000
 8001e88:	d042      	beq.n	8001f10 <HAL_UART_IRQHandler+0x15c>
      huart->Instance->DR = (uint8_t)(*huart->pTxBuffPtr++ & (uint8_t)0x00FF);
 8001e8a:	6a22      	ldr	r2, [r4, #32]
 8001e8c:	1c51      	adds	r1, r2, #1
 8001e8e:	6221      	str	r1, [r4, #32]
 8001e90:	7812      	ldrb	r2, [r2, #0]
 8001e92:	605a      	str	r2, [r3, #4]
    if (--huart->TxXferCount == 0U)
 8001e94:	8ce2      	ldrh	r2, [r4, #38]	; 0x26
 8001e96:	3a01      	subs	r2, #1
 8001e98:	b292      	uxth	r2, r2
 8001e9a:	84e2      	strh	r2, [r4, #38]	; 0x26
 8001e9c:	2a00      	cmp	r2, #0
 8001e9e:	d19d      	bne.n	8001ddc <HAL_UART_IRQHandler+0x28>
      __HAL_UART_DISABLE_IT(huart, UART_IT_TXE);
 8001ea0:	68da      	ldr	r2, [r3, #12]
 8001ea2:	f022 0280 	bic.w	r2, r2, #128	; 0x80
 8001ea6:	60da      	str	r2, [r3, #12]
      __HAL_UART_ENABLE_IT(huart, UART_IT_TC);
 8001ea8:	68da      	ldr	r2, [r3, #12]
 8001eaa:	f042 0240 	orr.w	r2, r2, #64	; 0x40
 8001eae:	60da      	str	r2, [r3, #12]
}
 8001eb0:	bd70      	pop	{r4, r5, r6, pc}
  huart->gState = HAL_UART_STATE_READY;
 8001eb2:	2120      	movs	r1, #32
  __HAL_UART_DISABLE_IT(huart, UART_IT_TC);
 8001eb4:	68da      	ldr	r2, [r3, #12]
  HAL_UART_TxCpltCallback(huart);
 8001eb6:	4620      	mov	r0, r4
  __HAL_UART_DISABLE_IT(huart, UART_IT_TC);
 8001eb8:	f022 0240 	bic.w	r2, r2, #64	; 0x40
 8001ebc:	60da      	str	r2, [r3, #12]
  huart->gState = HAL_UART_STATE_READY;
 8001ebe:	f884 1039 	strb.w	r1, [r4, #57]	; 0x39
  HAL_UART_TxCpltCallback(huart);
 8001ec2:	f7ff fed9 	bl	8001c78 <HAL_UART_TxCpltCallback>
}
 8001ec6:	bd70      	pop	{r4, r5, r6, pc}
  huart->RxState = HAL_UART_STATE_READY;
 8001ec8:	2120      	movs	r1, #32
  CLEAR_BIT(huart->Instance->CR1, (USART_CR1_RXNEIE | USART_CR1_PEIE));
 8001eca:	68da      	ldr	r2, [r3, #12]
 8001ecc:	f422 7290 	bic.w	r2, r2, #288	; 0x120
 8001ed0:	60da      	str	r2, [r3, #12]
  CLEAR_BIT(huart->Instance->CR3, USART_CR3_EIE);
 8001ed2:	695a      	ldr	r2, [r3, #20]
 8001ed4:	f022 0201 	bic.w	r2, r2, #1
 8001ed8:	615a      	str	r2, [r3, #20]
  huart->RxState = HAL_UART_STATE_READY;
 8001eda:	f884 103a 	strb.w	r1, [r4, #58]	; 0x3a
        if (HAL_IS_BIT_SET(huart->Instance->CR3, USART_CR3_DMAR))
 8001ede:	695a      	ldr	r2, [r3, #20]
 8001ee0:	0652      	lsls	r2, r2, #25
 8001ee2:	d511      	bpl.n	8001f08 <HAL_UART_IRQHandler+0x154>
          CLEAR_BIT(huart->Instance->CR3, USART_CR3_DMAR);
 8001ee4:	695a      	ldr	r2, [r3, #20]
          if (huart->hdmarx != NULL)
 8001ee6:	6b60      	ldr	r0, [r4, #52]	; 0x34
          CLEAR_BIT(huart->Instance->CR3, USART_CR3_DMAR);
 8001ee8:	f022 0240 	bic.w	r2, r2, #64	; 0x40
 8001eec:	615a      	str	r2, [r3, #20]
          if (huart->hdmarx != NULL)
 8001eee:	b158      	cbz	r0, 8001f08 <HAL_UART_IRQHandler+0x154>
            huart->hdmarx->XferAbortCallback = UART_DMAAbortOnError;
 8001ef0:	4b0d      	ldr	r3, [pc, #52]	; (8001f28 <HAL_UART_IRQHandler+0x174>)
 8001ef2:	6343      	str	r3, [r0, #52]	; 0x34
            if (HAL_DMA_Abort_IT(huart->hdmarx) != HAL_OK)
 8001ef4:	f7fe ff42 	bl	8000d7c <HAL_DMA_Abort_IT>
 8001ef8:	2800      	cmp	r0, #0
 8001efa:	f43f af6f 	beq.w	8001ddc <HAL_UART_IRQHandler+0x28>
              huart->hdmarx->XferAbortCallback(huart->hdmarx);
 8001efe:	6b60      	ldr	r0, [r4, #52]	; 0x34
}
 8001f00:	e8bd 4070 	ldmia.w	sp!, {r4, r5, r6, lr}
              huart->hdmarx->XferAbortCallback(huart->hdmarx);
 8001f04:	6b43      	ldr	r3, [r0, #52]	; 0x34
 8001f06:	4718      	bx	r3
            HAL_UART_ErrorCallback(huart);
 8001f08:	4620      	mov	r0, r4
 8001f0a:	f7ff ff1d 	bl	8001d48 <HAL_UART_ErrorCallback>
}
 8001f0e:	bd70      	pop	{r4, r5, r6, pc}
    if ((huart->Init.WordLength == UART_WORDLENGTH_9B) && (huart->Init.Parity == UART_PARITY_NONE))
 8001f10:	6922      	ldr	r2, [r4, #16]
 8001f12:	2a00      	cmp	r2, #0
 8001f14:	d1b9      	bne.n	8001e8a <HAL_UART_IRQHandler+0xd6>
      huart->Instance->DR = (uint16_t)(*tmp & (uint16_t)0x01FF);
 8001f16:	6a22      	ldr	r2, [r4, #32]
 8001f18:	f832 1b02 	ldrh.w	r1, [r2], #2
 8001f1c:	f3c1 0108 	ubfx	r1, r1, #0, #9
 8001f20:	6059      	str	r1, [r3, #4]
      huart->pTxBuffPtr += 2U;
 8001f22:	6222      	str	r2, [r4, #32]
 8001f24:	e7b6      	b.n	8001e94 <HAL_UART_IRQHandler+0xe0>
 8001f26:	bf00      	nop
 8001f28:	08001f2d 	.word	0x08001f2d

08001f2c <UART_DMAAbortOnError>:
{
 8001f2c:	b508      	push	{r3, lr}
  huart->RxXferCount = 0x00U;
 8001f2e:	2300      	movs	r3, #0
  UART_HandleTypeDef *huart = (UART_HandleTypeDef *)((DMA_HandleTypeDef *)hdma)->Parent;
 8001f30:	6a40      	ldr	r0, [r0, #36]	; 0x24
  huart->RxXferCount = 0x00U;
 8001f32:	85c3      	strh	r3, [r0, #46]	; 0x2e
  huart->TxXferCount = 0x00U;
 8001f34:	84c3      	strh	r3, [r0, #38]	; 0x26
  HAL_UART_ErrorCallback(huart);
 8001f36:	f7ff ff07 	bl	8001d48 <HAL_UART_ErrorCallback>
}
 8001f3a:	bd08      	pop	{r3, pc}

08001f3c <USB_CoreInit>:
  * @param  cfg pointer to a USB_CfgTypeDef structure that contains
  *         the configuration information for the specified USBx peripheral.
  * @retval HAL status
  */
HAL_StatusTypeDef USB_CoreInit(USB_TypeDef *USBx, USB_CfgTypeDef cfg)
{
 8001f3c:	b084      	sub	sp, #16
 8001f3e:	a801      	add	r0, sp, #4
 8001f40:	e880 000e 	stmia.w	r0, {r1, r2, r3}
              only by USB OTG FS peripheral.
            - This function is added to ensure compatibility across platforms.
   */

  return HAL_OK;
}
 8001f44:	b004      	add	sp, #16
 8001f46:	2000      	movs	r0, #0
 8001f48:	4770      	bx	lr
 8001f4a:	bf00      	nop

08001f4c <USB_DisableGlobalInt>:
                   USB_CNTR_SUSPM | USB_CNTR_ERRM |
                   USB_CNTR_SOFM | USB_CNTR_ESOFM |
                   USB_CNTR_RESETM;

  /* Clear interrupt mask */
  USBx->CNTR &= (uint16_t)(~winterruptmask);
 8001f4c:	f244 02ff 	movw	r2, #16639	; 0x40ff
{
 8001f50:	4603      	mov	r3, r0
  USBx->CNTR &= (uint16_t)(~winterruptmask);
 8001f52:	f8b0 1040 	ldrh.w	r1, [r0, #64]	; 0x40

  return HAL_OK;
}
 8001f56:	2000      	movs	r0, #0
  USBx->CNTR &= (uint16_t)(~winterruptmask);
 8001f58:	400a      	ands	r2, r1
 8001f5a:	f8a3 2040 	strh.w	r2, [r3, #64]	; 0x40
}
 8001f5e:	4770      	bx	lr

08001f60 <USB_SetCurrentMode>:
  /* NOTE : - This function is not required by USB Device FS peripheral, it is used
              only by USB OTG FS peripheral.
            - This function is added to ensure compatibility across platforms.
   */
  return HAL_OK;
}
 8001f60:	2000      	movs	r0, #0
 8001f62:	4770      	bx	lr

08001f64 <USB_DevInit>:
  * @param  cfg  pointer to a USB_CfgTypeDef structure that contains
  *         the configuration information for the specified USBx peripheral.
  * @retval HAL status
  */
HAL_StatusTypeDef USB_DevInit(USB_TypeDef *USBx, USB_CfgTypeDef cfg)
{
 8001f64:	b084      	sub	sp, #16
 8001f66:	b430      	push	{r4, r5}
 8001f68:	4604      	mov	r4, r0
  /* Prevent unused argument(s) compilation warning */
  UNUSED(cfg);

  /* Init Device */
  /* CNTR_FRES = 1 */
  USBx->CNTR = (uint16_t)USB_CNTR_FRES;
 8001f6a:	2501      	movs	r5, #1

  /* CNTR_FRES = 0 */
  USBx->CNTR = 0U;
 8001f6c:	2000      	movs	r0, #0
  USBx->CNTR = (uint16_t)USB_CNTR_FRES;
 8001f6e:	f8a4 5040 	strh.w	r5, [r4, #64]	; 0x40
{
 8001f72:	ad03      	add	r5, sp, #12
  USBx->CNTR = 0U;
 8001f74:	f8a4 0040 	strh.w	r0, [r4, #64]	; 0x40
{
 8001f78:	e885 000e 	stmia.w	r5, {r1, r2, r3}

  /* Clear pending interrupts */
  USBx->ISTR = 0U;
 8001f7c:	f8a4 0044 	strh.w	r0, [r4, #68]	; 0x44

  /*Set Btable Address*/
  USBx->BTABLE = BTABLE_ADDRESS;
 8001f80:	f8a4 0050 	strh.w	r0, [r4, #80]	; 0x50

  return HAL_OK;
}
 8001f84:	bc30      	pop	{r4, r5}
 8001f86:	b004      	add	sp, #16
 8001f88:	4770      	bx	lr
 8001f8a:	bf00      	nop

08001f8c <USB_DevDisconnect>:
 8001f8c:	2000      	movs	r0, #0
 8001f8e:	4770      	bx	lr

08001f90 <__libc_init_array>:
 8001f90:	b570      	push	{r4, r5, r6, lr}
 8001f92:	2600      	movs	r6, #0
 8001f94:	4d0c      	ldr	r5, [pc, #48]	; (8001fc8 <__libc_init_array+0x38>)
 8001f96:	4c0d      	ldr	r4, [pc, #52]	; (8001fcc <__libc_init_array+0x3c>)
 8001f98:	1b64      	subs	r4, r4, r5
 8001f9a:	10a4      	asrs	r4, r4, #2
 8001f9c:	42a6      	cmp	r6, r4
 8001f9e:	d109      	bne.n	8001fb4 <__libc_init_array+0x24>
 8001fa0:	f000 fc8c 	bl	80028bc <_init>
 8001fa4:	2600      	movs	r6, #0
 8001fa6:	4d0a      	ldr	r5, [pc, #40]	; (8001fd0 <__libc_init_array+0x40>)
 8001fa8:	4c0a      	ldr	r4, [pc, #40]	; (8001fd4 <__libc_init_array+0x44>)
 8001faa:	1b64      	subs	r4, r4, r5
 8001fac:	10a4      	asrs	r4, r4, #2
 8001fae:	42a6      	cmp	r6, r4
 8001fb0:	d105      	bne.n	8001fbe <__libc_init_array+0x2e>
 8001fb2:	bd70      	pop	{r4, r5, r6, pc}
 8001fb4:	f855 3b04 	ldr.w	r3, [r5], #4
 8001fb8:	4798      	blx	r3
 8001fba:	3601      	adds	r6, #1
 8001fbc:	e7ee      	b.n	8001f9c <__libc_init_array+0xc>
 8001fbe:	f855 3b04 	ldr.w	r3, [r5], #4
 8001fc2:	4798      	blx	r3
 8001fc4:	3601      	adds	r6, #1
 8001fc6:	e7f2      	b.n	8001fae <__libc_init_array+0x1e>
 8001fc8:	08002954 	.word	0x08002954
 8001fcc:	08002954 	.word	0x08002954
 8001fd0:	08002954 	.word	0x08002954
 8001fd4:	08002958 	.word	0x08002958

08001fd8 <malloc>:
 8001fd8:	4b02      	ldr	r3, [pc, #8]	; (8001fe4 <malloc+0xc>)
 8001fda:	4601      	mov	r1, r0
 8001fdc:	6818      	ldr	r0, [r3, #0]
 8001fde:	f000 b857 	b.w	8002090 <_malloc_r>
 8001fe2:	bf00      	nop
 8001fe4:	20000010 	.word	0x20000010

08001fe8 <free>:
 8001fe8:	4b02      	ldr	r3, [pc, #8]	; (8001ff4 <free+0xc>)
 8001fea:	4601      	mov	r1, r0
 8001fec:	6818      	ldr	r0, [r3, #0]
 8001fee:	f000 b803 	b.w	8001ff8 <_free_r>
 8001ff2:	bf00      	nop
 8001ff4:	20000010 	.word	0x20000010

08001ff8 <_free_r>:
 8001ff8:	b538      	push	{r3, r4, r5, lr}
 8001ffa:	4605      	mov	r5, r0
 8001ffc:	2900      	cmp	r1, #0
 8001ffe:	d043      	beq.n	8002088 <_free_r+0x90>
 8002000:	f851 3c04 	ldr.w	r3, [r1, #-4]
 8002004:	1f0c      	subs	r4, r1, #4
 8002006:	2b00      	cmp	r3, #0
 8002008:	bfb8      	it	lt
 800200a:	18e4      	addlt	r4, r4, r3
 800200c:	f000 f8e4 	bl	80021d8 <__malloc_lock>
 8002010:	4a1e      	ldr	r2, [pc, #120]	; (800208c <_free_r+0x94>)
 8002012:	6813      	ldr	r3, [r2, #0]
 8002014:	4610      	mov	r0, r2
 8002016:	b933      	cbnz	r3, 8002026 <_free_r+0x2e>
 8002018:	6063      	str	r3, [r4, #4]
 800201a:	6014      	str	r4, [r2, #0]
 800201c:	4628      	mov	r0, r5
 800201e:	e8bd 4038 	ldmia.w	sp!, {r3, r4, r5, lr}
 8002022:	f000 b8df 	b.w	80021e4 <__malloc_unlock>
 8002026:	42a3      	cmp	r3, r4
 8002028:	d90a      	bls.n	8002040 <_free_r+0x48>
 800202a:	6821      	ldr	r1, [r4, #0]
 800202c:	1862      	adds	r2, r4, r1
 800202e:	4293      	cmp	r3, r2
 8002030:	bf01      	itttt	eq
 8002032:	681a      	ldreq	r2, [r3, #0]
 8002034:	685b      	ldreq	r3, [r3, #4]
 8002036:	1852      	addeq	r2, r2, r1
 8002038:	6022      	streq	r2, [r4, #0]
 800203a:	6063      	str	r3, [r4, #4]
 800203c:	6004      	str	r4, [r0, #0]
 800203e:	e7ed      	b.n	800201c <_free_r+0x24>
 8002040:	461a      	mov	r2, r3
 8002042:	685b      	ldr	r3, [r3, #4]
 8002044:	b10b      	cbz	r3, 800204a <_free_r+0x52>
 8002046:	42a3      	cmp	r3, r4
 8002048:	d9fa      	bls.n	8002040 <_free_r+0x48>
 800204a:	6811      	ldr	r1, [r2, #0]
 800204c:	1850      	adds	r0, r2, r1
 800204e:	42a0      	cmp	r0, r4
 8002050:	d10b      	bne.n	800206a <_free_r+0x72>
 8002052:	6820      	ldr	r0, [r4, #0]
 8002054:	4401      	add	r1, r0
 8002056:	1850      	adds	r0, r2, r1
 8002058:	4283      	cmp	r3, r0
 800205a:	6011      	str	r1, [r2, #0]
 800205c:	d1de      	bne.n	800201c <_free_r+0x24>
 800205e:	6818      	ldr	r0, [r3, #0]
 8002060:	685b      	ldr	r3, [r3, #4]
 8002062:	4401      	add	r1, r0
 8002064:	6011      	str	r1, [r2, #0]
 8002066:	6053      	str	r3, [r2, #4]
 8002068:	e7d8      	b.n	800201c <_free_r+0x24>
 800206a:	d902      	bls.n	8002072 <_free_r+0x7a>
 800206c:	230c      	movs	r3, #12
 800206e:	602b      	str	r3, [r5, #0]
 8002070:	e7d4      	b.n	800201c <_free_r+0x24>
 8002072:	6820      	ldr	r0, [r4, #0]
 8002074:	1821      	adds	r1, r4, r0
 8002076:	428b      	cmp	r3, r1
 8002078:	bf01      	itttt	eq
 800207a:	6819      	ldreq	r1, [r3, #0]
 800207c:	685b      	ldreq	r3, [r3, #4]
 800207e:	1809      	addeq	r1, r1, r0
 8002080:	6021      	streq	r1, [r4, #0]
 8002082:	6063      	str	r3, [r4, #4]
 8002084:	6054      	str	r4, [r2, #4]
 8002086:	e7c9      	b.n	800201c <_free_r+0x24>
 8002088:	bd38      	pop	{r3, r4, r5, pc}
 800208a:	bf00      	nop
 800208c:	20000150 	.word	0x20000150

08002090 <_malloc_r>:
 8002090:	b5f8      	push	{r3, r4, r5, r6, r7, lr}
 8002092:	1ccd      	adds	r5, r1, #3
 8002094:	f025 0503 	bic.w	r5, r5, #3
 8002098:	3508      	adds	r5, #8
 800209a:	2d0c      	cmp	r5, #12
 800209c:	bf38      	it	cc
 800209e:	250c      	movcc	r5, #12
 80020a0:	2d00      	cmp	r5, #0
 80020a2:	4606      	mov	r6, r0
 80020a4:	db01      	blt.n	80020aa <_malloc_r+0x1a>
 80020a6:	42a9      	cmp	r1, r5
 80020a8:	d903      	bls.n	80020b2 <_malloc_r+0x22>
 80020aa:	230c      	movs	r3, #12
 80020ac:	6033      	str	r3, [r6, #0]
 80020ae:	2000      	movs	r0, #0
 80020b0:	bdf8      	pop	{r3, r4, r5, r6, r7, pc}
 80020b2:	f000 f891 	bl	80021d8 <__malloc_lock>
 80020b6:	4921      	ldr	r1, [pc, #132]	; (800213c <_malloc_r+0xac>)
 80020b8:	680a      	ldr	r2, [r1, #0]
 80020ba:	4614      	mov	r4, r2
 80020bc:	b99c      	cbnz	r4, 80020e6 <_malloc_r+0x56>
 80020be:	4f20      	ldr	r7, [pc, #128]	; (8002140 <_malloc_r+0xb0>)
 80020c0:	683b      	ldr	r3, [r7, #0]
 80020c2:	b923      	cbnz	r3, 80020ce <_malloc_r+0x3e>
 80020c4:	4621      	mov	r1, r4
 80020c6:	4630      	mov	r0, r6
 80020c8:	f000 f83c 	bl	8002144 <_sbrk_r>
 80020cc:	6038      	str	r0, [r7, #0]
 80020ce:	4629      	mov	r1, r5
 80020d0:	4630      	mov	r0, r6
 80020d2:	f000 f837 	bl	8002144 <_sbrk_r>
 80020d6:	1c43      	adds	r3, r0, #1
 80020d8:	d123      	bne.n	8002122 <_malloc_r+0x92>
 80020da:	230c      	movs	r3, #12
 80020dc:	4630      	mov	r0, r6
 80020de:	6033      	str	r3, [r6, #0]
 80020e0:	f000 f880 	bl	80021e4 <__malloc_unlock>
 80020e4:	e7e3      	b.n	80020ae <_malloc_r+0x1e>
 80020e6:	6823      	ldr	r3, [r4, #0]
 80020e8:	1b5b      	subs	r3, r3, r5
 80020ea:	d417      	bmi.n	800211c <_malloc_r+0x8c>
 80020ec:	2b0b      	cmp	r3, #11
 80020ee:	d903      	bls.n	80020f8 <_malloc_r+0x68>
 80020f0:	6023      	str	r3, [r4, #0]
 80020f2:	441c      	add	r4, r3
 80020f4:	6025      	str	r5, [r4, #0]
 80020f6:	e004      	b.n	8002102 <_malloc_r+0x72>
 80020f8:	6863      	ldr	r3, [r4, #4]
 80020fa:	42a2      	cmp	r2, r4
 80020fc:	bf0c      	ite	eq
 80020fe:	600b      	streq	r3, [r1, #0]
 8002100:	6053      	strne	r3, [r2, #4]
 8002102:	4630      	mov	r0, r6
 8002104:	f000 f86e 	bl	80021e4 <__malloc_unlock>
 8002108:	f104 000b 	add.w	r0, r4, #11
 800210c:	1d23      	adds	r3, r4, #4
 800210e:	f020 0007 	bic.w	r0, r0, #7
 8002112:	1ac2      	subs	r2, r0, r3
 8002114:	d0cc      	beq.n	80020b0 <_malloc_r+0x20>
 8002116:	1a1b      	subs	r3, r3, r0
 8002118:	50a3      	str	r3, [r4, r2]
 800211a:	e7c9      	b.n	80020b0 <_malloc_r+0x20>
 800211c:	4622      	mov	r2, r4
 800211e:	6864      	ldr	r4, [r4, #4]
 8002120:	e7cc      	b.n	80020bc <_malloc_r+0x2c>
 8002122:	1cc4      	adds	r4, r0, #3
 8002124:	f024 0403 	bic.w	r4, r4, #3
 8002128:	42a0      	cmp	r0, r4
 800212a:	d0e3      	beq.n	80020f4 <_malloc_r+0x64>
 800212c:	1a21      	subs	r1, r4, r0
 800212e:	4630      	mov	r0, r6
 8002130:	f000 f808 	bl	8002144 <_sbrk_r>
 8002134:	3001      	adds	r0, #1
 8002136:	d1dd      	bne.n	80020f4 <_malloc_r+0x64>
 8002138:	e7cf      	b.n	80020da <_malloc_r+0x4a>
 800213a:	bf00      	nop
 800213c:	20000150 	.word	0x20000150
 8002140:	20000154 	.word	0x20000154

08002144 <_sbrk_r>:
 8002144:	b538      	push	{r3, r4, r5, lr}
 8002146:	2300      	movs	r3, #0
 8002148:	4d05      	ldr	r5, [pc, #20]	; (8002160 <_sbrk_r+0x1c>)
 800214a:	4604      	mov	r4, r0
 800214c:	4608      	mov	r0, r1
 800214e:	602b      	str	r3, [r5, #0]
 8002150:	f000 fba6 	bl	80028a0 <_sbrk>
 8002154:	1c43      	adds	r3, r0, #1
 8002156:	d102      	bne.n	800215e <_sbrk_r+0x1a>
 8002158:	682b      	ldr	r3, [r5, #0]
 800215a:	b103      	cbz	r3, 800215e <_sbrk_r+0x1a>
 800215c:	6023      	str	r3, [r4, #0]
 800215e:	bd38      	pop	{r3, r4, r5, pc}
 8002160:	20000554 	.word	0x20000554

08002164 <siprintf>:
 8002164:	b40e      	push	{r1, r2, r3}
 8002166:	f06f 4100 	mvn.w	r1, #2147483648	; 0x80000000
 800216a:	b500      	push	{lr}
 800216c:	b09c      	sub	sp, #112	; 0x70
 800216e:	ab1d      	add	r3, sp, #116	; 0x74
 8002170:	9002      	str	r0, [sp, #8]
 8002172:	9006      	str	r0, [sp, #24]
 8002174:	9107      	str	r1, [sp, #28]
 8002176:	9104      	str	r1, [sp, #16]
 8002178:	4808      	ldr	r0, [pc, #32]	; (800219c <siprintf+0x38>)
 800217a:	4909      	ldr	r1, [pc, #36]	; (80021a0 <siprintf+0x3c>)
 800217c:	f853 2b04 	ldr.w	r2, [r3], #4
 8002180:	9105      	str	r1, [sp, #20]
 8002182:	6800      	ldr	r0, [r0, #0]
 8002184:	a902      	add	r1, sp, #8
 8002186:	9301      	str	r3, [sp, #4]
 8002188:	f000 f88e 	bl	80022a8 <_svfiprintf_r>
 800218c:	2200      	movs	r2, #0
 800218e:	9b02      	ldr	r3, [sp, #8]
 8002190:	701a      	strb	r2, [r3, #0]
 8002192:	b01c      	add	sp, #112	; 0x70
 8002194:	f85d eb04 	ldr.w	lr, [sp], #4
 8002198:	b003      	add	sp, #12
 800219a:	4770      	bx	lr
 800219c:	20000010 	.word	0x20000010
 80021a0:	ffff0208 	.word	0xffff0208

080021a4 <strcpy>:
 80021a4:	4603      	mov	r3, r0
 80021a6:	f811 2b01 	ldrb.w	r2, [r1], #1
 80021aa:	f803 2b01 	strb.w	r2, [r3], #1
 80021ae:	2a00      	cmp	r2, #0
 80021b0:	d1f9      	bne.n	80021a6 <strcpy+0x2>
 80021b2:	4770      	bx	lr

080021b4 <strncmp>:
 80021b4:	b510      	push	{r4, lr}
 80021b6:	b16a      	cbz	r2, 80021d4 <strncmp+0x20>
 80021b8:	3901      	subs	r1, #1
 80021ba:	1884      	adds	r4, r0, r2
 80021bc:	f810 3b01 	ldrb.w	r3, [r0], #1
 80021c0:	f811 2f01 	ldrb.w	r2, [r1, #1]!
 80021c4:	4293      	cmp	r3, r2
 80021c6:	d103      	bne.n	80021d0 <strncmp+0x1c>
 80021c8:	42a0      	cmp	r0, r4
 80021ca:	d001      	beq.n	80021d0 <strncmp+0x1c>
 80021cc:	2b00      	cmp	r3, #0
 80021ce:	d1f5      	bne.n	80021bc <strncmp+0x8>
 80021d0:	1a98      	subs	r0, r3, r2
 80021d2:	bd10      	pop	{r4, pc}
 80021d4:	4610      	mov	r0, r2
 80021d6:	e7fc      	b.n	80021d2 <strncmp+0x1e>

080021d8 <__malloc_lock>:
 80021d8:	4801      	ldr	r0, [pc, #4]	; (80021e0 <__malloc_lock+0x8>)
 80021da:	f000 bafb 	b.w	80027d4 <__retarget_lock_acquire_recursive>
 80021de:	bf00      	nop
 80021e0:	2000055c 	.word	0x2000055c

080021e4 <__malloc_unlock>:
 80021e4:	4801      	ldr	r0, [pc, #4]	; (80021ec <__malloc_unlock+0x8>)
 80021e6:	f000 baf6 	b.w	80027d6 <__retarget_lock_release_recursive>
 80021ea:	bf00      	nop
 80021ec:	2000055c 	.word	0x2000055c

080021f0 <__ssputs_r>:
 80021f0:	e92d 47f0 	stmdb	sp!, {r4, r5, r6, r7, r8, r9, sl, lr}
 80021f4:	688e      	ldr	r6, [r1, #8]
 80021f6:	4682      	mov	sl, r0
 80021f8:	429e      	cmp	r6, r3
 80021fa:	460c      	mov	r4, r1
 80021fc:	4690      	mov	r8, r2
 80021fe:	461f      	mov	r7, r3
 8002200:	d838      	bhi.n	8002274 <__ssputs_r+0x84>
 8002202:	898a      	ldrh	r2, [r1, #12]
 8002204:	f412 6f90 	tst.w	r2, #1152	; 0x480
 8002208:	d032      	beq.n	8002270 <__ssputs_r+0x80>
 800220a:	6825      	ldr	r5, [r4, #0]
 800220c:	6909      	ldr	r1, [r1, #16]
 800220e:	3301      	adds	r3, #1
 8002210:	eba5 0901 	sub.w	r9, r5, r1
 8002214:	6965      	ldr	r5, [r4, #20]
 8002216:	444b      	add	r3, r9
 8002218:	eb05 0545 	add.w	r5, r5, r5, lsl #1
 800221c:	eb05 75d5 	add.w	r5, r5, r5, lsr #31
 8002220:	106d      	asrs	r5, r5, #1
 8002222:	429d      	cmp	r5, r3
 8002224:	bf38      	it	cc
 8002226:	461d      	movcc	r5, r3
 8002228:	0553      	lsls	r3, r2, #21
 800222a:	d531      	bpl.n	8002290 <__ssputs_r+0xa0>
 800222c:	4629      	mov	r1, r5
 800222e:	f7ff ff2f 	bl	8002090 <_malloc_r>
 8002232:	4606      	mov	r6, r0
 8002234:	b950      	cbnz	r0, 800224c <__ssputs_r+0x5c>
 8002236:	230c      	movs	r3, #12
 8002238:	f04f 30ff 	mov.w	r0, #4294967295
 800223c:	f8ca 3000 	str.w	r3, [sl]
 8002240:	89a3      	ldrh	r3, [r4, #12]
 8002242:	f043 0340 	orr.w	r3, r3, #64	; 0x40
 8002246:	81a3      	strh	r3, [r4, #12]
 8002248:	e8bd 87f0 	ldmia.w	sp!, {r4, r5, r6, r7, r8, r9, sl, pc}
 800224c:	464a      	mov	r2, r9
 800224e:	6921      	ldr	r1, [r4, #16]
 8002250:	f000 fad0 	bl	80027f4 <memcpy>
 8002254:	89a3      	ldrh	r3, [r4, #12]
 8002256:	f423 6390 	bic.w	r3, r3, #1152	; 0x480
 800225a:	f043 0380 	orr.w	r3, r3, #128	; 0x80
 800225e:	81a3      	strh	r3, [r4, #12]
 8002260:	6126      	str	r6, [r4, #16]
 8002262:	444e      	add	r6, r9
 8002264:	6026      	str	r6, [r4, #0]
 8002266:	463e      	mov	r6, r7
 8002268:	6165      	str	r5, [r4, #20]
 800226a:	eba5 0509 	sub.w	r5, r5, r9
 800226e:	60a5      	str	r5, [r4, #8]
 8002270:	42be      	cmp	r6, r7
 8002272:	d900      	bls.n	8002276 <__ssputs_r+0x86>
 8002274:	463e      	mov	r6, r7
 8002276:	4632      	mov	r2, r6
 8002278:	4641      	mov	r1, r8
 800227a:	6820      	ldr	r0, [r4, #0]
 800227c:	f000 fac8 	bl	8002810 <memmove>
 8002280:	68a3      	ldr	r3, [r4, #8]
 8002282:	6822      	ldr	r2, [r4, #0]
 8002284:	1b9b      	subs	r3, r3, r6
 8002286:	4432      	add	r2, r6
 8002288:	2000      	movs	r0, #0
 800228a:	60a3      	str	r3, [r4, #8]
 800228c:	6022      	str	r2, [r4, #0]
 800228e:	e7db      	b.n	8002248 <__ssputs_r+0x58>
 8002290:	462a      	mov	r2, r5
 8002292:	f000 fad7 	bl	8002844 <_realloc_r>
 8002296:	4606      	mov	r6, r0
 8002298:	2800      	cmp	r0, #0
 800229a:	d1e1      	bne.n	8002260 <__ssputs_r+0x70>
 800229c:	4650      	mov	r0, sl
 800229e:	6921      	ldr	r1, [r4, #16]
 80022a0:	f7ff feaa 	bl	8001ff8 <_free_r>
 80022a4:	e7c7      	b.n	8002236 <__ssputs_r+0x46>
	...

080022a8 <_svfiprintf_r>:
 80022a8:	e92d 4ff0 	stmdb	sp!, {r4, r5, r6, r7, r8, r9, sl, fp, lr}
 80022ac:	4698      	mov	r8, r3
 80022ae:	898b      	ldrh	r3, [r1, #12]
 80022b0:	4607      	mov	r7, r0
 80022b2:	061b      	lsls	r3, r3, #24
 80022b4:	460d      	mov	r5, r1
 80022b6:	4614      	mov	r4, r2
 80022b8:	b09d      	sub	sp, #116	; 0x74
 80022ba:	d50e      	bpl.n	80022da <_svfiprintf_r+0x32>
 80022bc:	690b      	ldr	r3, [r1, #16]
 80022be:	b963      	cbnz	r3, 80022da <_svfiprintf_r+0x32>
 80022c0:	2140      	movs	r1, #64	; 0x40
 80022c2:	f7ff fee5 	bl	8002090 <_malloc_r>
 80022c6:	6028      	str	r0, [r5, #0]
 80022c8:	6128      	str	r0, [r5, #16]
 80022ca:	b920      	cbnz	r0, 80022d6 <_svfiprintf_r+0x2e>
 80022cc:	230c      	movs	r3, #12
 80022ce:	603b      	str	r3, [r7, #0]
 80022d0:	f04f 30ff 	mov.w	r0, #4294967295
 80022d4:	e0d1      	b.n	800247a <_svfiprintf_r+0x1d2>
 80022d6:	2340      	movs	r3, #64	; 0x40
 80022d8:	616b      	str	r3, [r5, #20]
 80022da:	2300      	movs	r3, #0
 80022dc:	9309      	str	r3, [sp, #36]	; 0x24
 80022de:	2320      	movs	r3, #32
 80022e0:	f88d 3029 	strb.w	r3, [sp, #41]	; 0x29
 80022e4:	2330      	movs	r3, #48	; 0x30
 80022e6:	f04f 0901 	mov.w	r9, #1
 80022ea:	f8cd 800c 	str.w	r8, [sp, #12]
 80022ee:	f8df 81a4 	ldr.w	r8, [pc, #420]	; 8002494 <_svfiprintf_r+0x1ec>
 80022f2:	f88d 302a 	strb.w	r3, [sp, #42]	; 0x2a
 80022f6:	4623      	mov	r3, r4
 80022f8:	469a      	mov	sl, r3
 80022fa:	f813 2b01 	ldrb.w	r2, [r3], #1
 80022fe:	b10a      	cbz	r2, 8002304 <_svfiprintf_r+0x5c>
 8002300:	2a25      	cmp	r2, #37	; 0x25
 8002302:	d1f9      	bne.n	80022f8 <_svfiprintf_r+0x50>
 8002304:	ebba 0b04 	subs.w	fp, sl, r4
 8002308:	d00b      	beq.n	8002322 <_svfiprintf_r+0x7a>
 800230a:	465b      	mov	r3, fp
 800230c:	4622      	mov	r2, r4
 800230e:	4629      	mov	r1, r5
 8002310:	4638      	mov	r0, r7
 8002312:	f7ff ff6d 	bl	80021f0 <__ssputs_r>
 8002316:	3001      	adds	r0, #1
 8002318:	f000 80aa 	beq.w	8002470 <_svfiprintf_r+0x1c8>
 800231c:	9a09      	ldr	r2, [sp, #36]	; 0x24
 800231e:	445a      	add	r2, fp
 8002320:	9209      	str	r2, [sp, #36]	; 0x24
 8002322:	f89a 3000 	ldrb.w	r3, [sl]
 8002326:	2b00      	cmp	r3, #0
 8002328:	f000 80a2 	beq.w	8002470 <_svfiprintf_r+0x1c8>
 800232c:	2300      	movs	r3, #0
 800232e:	f04f 32ff 	mov.w	r2, #4294967295
 8002332:	e9cd 2305 	strd	r2, r3, [sp, #20]
 8002336:	f10a 0a01 	add.w	sl, sl, #1
 800233a:	9304      	str	r3, [sp, #16]
 800233c:	9307      	str	r3, [sp, #28]
 800233e:	f88d 3053 	strb.w	r3, [sp, #83]	; 0x53
 8002342:	931a      	str	r3, [sp, #104]	; 0x68
 8002344:	4654      	mov	r4, sl
 8002346:	2205      	movs	r2, #5
 8002348:	f814 1b01 	ldrb.w	r1, [r4], #1
 800234c:	4851      	ldr	r0, [pc, #324]	; (8002494 <_svfiprintf_r+0x1ec>)
 800234e:	f000 fa43 	bl	80027d8 <memchr>
 8002352:	9a04      	ldr	r2, [sp, #16]
 8002354:	b9d8      	cbnz	r0, 800238e <_svfiprintf_r+0xe6>
 8002356:	06d0      	lsls	r0, r2, #27
 8002358:	bf44      	itt	mi
 800235a:	2320      	movmi	r3, #32
 800235c:	f88d 3053 	strbmi.w	r3, [sp, #83]	; 0x53
 8002360:	0711      	lsls	r1, r2, #28
 8002362:	bf44      	itt	mi
 8002364:	232b      	movmi	r3, #43	; 0x2b
 8002366:	f88d 3053 	strbmi.w	r3, [sp, #83]	; 0x53
 800236a:	f89a 3000 	ldrb.w	r3, [sl]
 800236e:	2b2a      	cmp	r3, #42	; 0x2a
 8002370:	d015      	beq.n	800239e <_svfiprintf_r+0xf6>
 8002372:	4654      	mov	r4, sl
 8002374:	2000      	movs	r0, #0
 8002376:	f04f 0c0a 	mov.w	ip, #10
 800237a:	9a07      	ldr	r2, [sp, #28]
 800237c:	4621      	mov	r1, r4
 800237e:	f811 3b01 	ldrb.w	r3, [r1], #1
 8002382:	3b30      	subs	r3, #48	; 0x30
 8002384:	2b09      	cmp	r3, #9
 8002386:	d94e      	bls.n	8002426 <_svfiprintf_r+0x17e>
 8002388:	b1b0      	cbz	r0, 80023b8 <_svfiprintf_r+0x110>
 800238a:	9207      	str	r2, [sp, #28]
 800238c:	e014      	b.n	80023b8 <_svfiprintf_r+0x110>
 800238e:	eba0 0308 	sub.w	r3, r0, r8
 8002392:	fa09 f303 	lsl.w	r3, r9, r3
 8002396:	4313      	orrs	r3, r2
 8002398:	46a2      	mov	sl, r4
 800239a:	9304      	str	r3, [sp, #16]
 800239c:	e7d2      	b.n	8002344 <_svfiprintf_r+0x9c>
 800239e:	9b03      	ldr	r3, [sp, #12]
 80023a0:	1d19      	adds	r1, r3, #4
 80023a2:	681b      	ldr	r3, [r3, #0]
 80023a4:	9103      	str	r1, [sp, #12]
 80023a6:	2b00      	cmp	r3, #0
 80023a8:	bfbb      	ittet	lt
 80023aa:	425b      	neglt	r3, r3
 80023ac:	f042 0202 	orrlt.w	r2, r2, #2
 80023b0:	9307      	strge	r3, [sp, #28]
 80023b2:	9307      	strlt	r3, [sp, #28]
 80023b4:	bfb8      	it	lt
 80023b6:	9204      	strlt	r2, [sp, #16]
 80023b8:	7823      	ldrb	r3, [r4, #0]
 80023ba:	2b2e      	cmp	r3, #46	; 0x2e
 80023bc:	d10c      	bne.n	80023d8 <_svfiprintf_r+0x130>
 80023be:	7863      	ldrb	r3, [r4, #1]
 80023c0:	2b2a      	cmp	r3, #42	; 0x2a
 80023c2:	d135      	bne.n	8002430 <_svfiprintf_r+0x188>
 80023c4:	9b03      	ldr	r3, [sp, #12]
 80023c6:	3402      	adds	r4, #2
 80023c8:	1d1a      	adds	r2, r3, #4
 80023ca:	681b      	ldr	r3, [r3, #0]
 80023cc:	9203      	str	r2, [sp, #12]
 80023ce:	2b00      	cmp	r3, #0
 80023d0:	bfb8      	it	lt
 80023d2:	f04f 33ff 	movlt.w	r3, #4294967295
 80023d6:	9305      	str	r3, [sp, #20]
 80023d8:	f8df a0c8 	ldr.w	sl, [pc, #200]	; 80024a4 <_svfiprintf_r+0x1fc>
 80023dc:	2203      	movs	r2, #3
 80023de:	4650      	mov	r0, sl
 80023e0:	7821      	ldrb	r1, [r4, #0]
 80023e2:	f000 f9f9 	bl	80027d8 <memchr>
 80023e6:	b140      	cbz	r0, 80023fa <_svfiprintf_r+0x152>
 80023e8:	2340      	movs	r3, #64	; 0x40
 80023ea:	eba0 000a 	sub.w	r0, r0, sl
 80023ee:	fa03 f000 	lsl.w	r0, r3, r0
 80023f2:	9b04      	ldr	r3, [sp, #16]
 80023f4:	3401      	adds	r4, #1
 80023f6:	4303      	orrs	r3, r0
 80023f8:	9304      	str	r3, [sp, #16]
 80023fa:	f814 1b01 	ldrb.w	r1, [r4], #1
 80023fe:	2206      	movs	r2, #6
 8002400:	4825      	ldr	r0, [pc, #148]	; (8002498 <_svfiprintf_r+0x1f0>)
 8002402:	f88d 1028 	strb.w	r1, [sp, #40]	; 0x28
 8002406:	f000 f9e7 	bl	80027d8 <memchr>
 800240a:	2800      	cmp	r0, #0
 800240c:	d038      	beq.n	8002480 <_svfiprintf_r+0x1d8>
 800240e:	4b23      	ldr	r3, [pc, #140]	; (800249c <_svfiprintf_r+0x1f4>)
 8002410:	bb1b      	cbnz	r3, 800245a <_svfiprintf_r+0x1b2>
 8002412:	9b03      	ldr	r3, [sp, #12]
 8002414:	3307      	adds	r3, #7
 8002416:	f023 0307 	bic.w	r3, r3, #7
 800241a:	3308      	adds	r3, #8
 800241c:	9303      	str	r3, [sp, #12]
 800241e:	9b09      	ldr	r3, [sp, #36]	; 0x24
 8002420:	4433      	add	r3, r6
 8002422:	9309      	str	r3, [sp, #36]	; 0x24
 8002424:	e767      	b.n	80022f6 <_svfiprintf_r+0x4e>
 8002426:	460c      	mov	r4, r1
 8002428:	2001      	movs	r0, #1
 800242a:	fb0c 3202 	mla	r2, ip, r2, r3
 800242e:	e7a5      	b.n	800237c <_svfiprintf_r+0xd4>
 8002430:	2300      	movs	r3, #0
 8002432:	f04f 0c0a 	mov.w	ip, #10
 8002436:	4619      	mov	r1, r3
 8002438:	3401      	adds	r4, #1
 800243a:	9305      	str	r3, [sp, #20]
 800243c:	4620      	mov	r0, r4
 800243e:	f810 2b01 	ldrb.w	r2, [r0], #1
 8002442:	3a30      	subs	r2, #48	; 0x30
 8002444:	2a09      	cmp	r2, #9
 8002446:	d903      	bls.n	8002450 <_svfiprintf_r+0x1a8>
 8002448:	2b00      	cmp	r3, #0
 800244a:	d0c5      	beq.n	80023d8 <_svfiprintf_r+0x130>
 800244c:	9105      	str	r1, [sp, #20]
 800244e:	e7c3      	b.n	80023d8 <_svfiprintf_r+0x130>
 8002450:	4604      	mov	r4, r0
 8002452:	2301      	movs	r3, #1
 8002454:	fb0c 2101 	mla	r1, ip, r1, r2
 8002458:	e7f0      	b.n	800243c <_svfiprintf_r+0x194>
 800245a:	ab03      	add	r3, sp, #12
 800245c:	9300      	str	r3, [sp, #0]
 800245e:	462a      	mov	r2, r5
 8002460:	4638      	mov	r0, r7
 8002462:	4b0f      	ldr	r3, [pc, #60]	; (80024a0 <_svfiprintf_r+0x1f8>)
 8002464:	a904      	add	r1, sp, #16
 8002466:	f3af 8000 	nop.w
 800246a:	1c42      	adds	r2, r0, #1
 800246c:	4606      	mov	r6, r0
 800246e:	d1d6      	bne.n	800241e <_svfiprintf_r+0x176>
 8002470:	89ab      	ldrh	r3, [r5, #12]
 8002472:	065b      	lsls	r3, r3, #25
 8002474:	f53f af2c 	bmi.w	80022d0 <_svfiprintf_r+0x28>
 8002478:	9809      	ldr	r0, [sp, #36]	; 0x24
 800247a:	b01d      	add	sp, #116	; 0x74
 800247c:	e8bd 8ff0 	ldmia.w	sp!, {r4, r5, r6, r7, r8, r9, sl, fp, pc}
 8002480:	ab03      	add	r3, sp, #12
 8002482:	9300      	str	r3, [sp, #0]
 8002484:	462a      	mov	r2, r5
 8002486:	4638      	mov	r0, r7
 8002488:	4b05      	ldr	r3, [pc, #20]	; (80024a0 <_svfiprintf_r+0x1f8>)
 800248a:	a904      	add	r1, sp, #16
 800248c:	f000 f87c 	bl	8002588 <_printf_i>
 8002490:	e7eb      	b.n	800246a <_svfiprintf_r+0x1c2>
 8002492:	bf00      	nop
 8002494:	08002921 	.word	0x08002921
 8002498:	0800292b 	.word	0x0800292b
 800249c:	00000000 	.word	0x00000000
 80024a0:	080021f1 	.word	0x080021f1
 80024a4:	08002927 	.word	0x08002927

080024a8 <_printf_common>:
 80024a8:	e92d 47f0 	stmdb	sp!, {r4, r5, r6, r7, r8, r9, sl, lr}
 80024ac:	4616      	mov	r6, r2
 80024ae:	4699      	mov	r9, r3
 80024b0:	688a      	ldr	r2, [r1, #8]
 80024b2:	690b      	ldr	r3, [r1, #16]
 80024b4:	4607      	mov	r7, r0
 80024b6:	4293      	cmp	r3, r2
 80024b8:	bfb8      	it	lt
 80024ba:	4613      	movlt	r3, r2
 80024bc:	6033      	str	r3, [r6, #0]
 80024be:	f891 2043 	ldrb.w	r2, [r1, #67]	; 0x43
 80024c2:	460c      	mov	r4, r1
 80024c4:	f8dd 8020 	ldr.w	r8, [sp, #32]
 80024c8:	b10a      	cbz	r2, 80024ce <_printf_common+0x26>
 80024ca:	3301      	adds	r3, #1
 80024cc:	6033      	str	r3, [r6, #0]
 80024ce:	6823      	ldr	r3, [r4, #0]
 80024d0:	0699      	lsls	r1, r3, #26
 80024d2:	bf42      	ittt	mi
 80024d4:	6833      	ldrmi	r3, [r6, #0]
 80024d6:	3302      	addmi	r3, #2
 80024d8:	6033      	strmi	r3, [r6, #0]
 80024da:	6825      	ldr	r5, [r4, #0]
 80024dc:	f015 0506 	ands.w	r5, r5, #6
 80024e0:	d106      	bne.n	80024f0 <_printf_common+0x48>
 80024e2:	f104 0a19 	add.w	sl, r4, #25
 80024e6:	68e3      	ldr	r3, [r4, #12]
 80024e8:	6832      	ldr	r2, [r6, #0]
 80024ea:	1a9b      	subs	r3, r3, r2
 80024ec:	42ab      	cmp	r3, r5
 80024ee:	dc28      	bgt.n	8002542 <_printf_common+0x9a>
 80024f0:	f894 2043 	ldrb.w	r2, [r4, #67]	; 0x43
 80024f4:	1e13      	subs	r3, r2, #0
 80024f6:	6822      	ldr	r2, [r4, #0]
 80024f8:	bf18      	it	ne
 80024fa:	2301      	movne	r3, #1
 80024fc:	0692      	lsls	r2, r2, #26
 80024fe:	d42d      	bmi.n	800255c <_printf_common+0xb4>
 8002500:	4649      	mov	r1, r9
 8002502:	4638      	mov	r0, r7
 8002504:	f104 0243 	add.w	r2, r4, #67	; 0x43
 8002508:	47c0      	blx	r8
 800250a:	3001      	adds	r0, #1
 800250c:	d020      	beq.n	8002550 <_printf_common+0xa8>
 800250e:	6823      	ldr	r3, [r4, #0]
 8002510:	68e5      	ldr	r5, [r4, #12]
 8002512:	f003 0306 	and.w	r3, r3, #6
 8002516:	2b04      	cmp	r3, #4
 8002518:	bf18      	it	ne
 800251a:	2500      	movne	r5, #0
 800251c:	6832      	ldr	r2, [r6, #0]
 800251e:	f04f 0600 	mov.w	r6, #0
 8002522:	68a3      	ldr	r3, [r4, #8]
 8002524:	bf08      	it	eq
 8002526:	1aad      	subeq	r5, r5, r2
 8002528:	6922      	ldr	r2, [r4, #16]
 800252a:	bf08      	it	eq
 800252c:	ea25 75e5 	biceq.w	r5, r5, r5, asr #31
 8002530:	4293      	cmp	r3, r2
 8002532:	bfc4      	itt	gt
 8002534:	1a9b      	subgt	r3, r3, r2
 8002536:	18ed      	addgt	r5, r5, r3
 8002538:	341a      	adds	r4, #26
 800253a:	42b5      	cmp	r5, r6
 800253c:	d11a      	bne.n	8002574 <_printf_common+0xcc>
 800253e:	2000      	movs	r0, #0
 8002540:	e008      	b.n	8002554 <_printf_common+0xac>
 8002542:	2301      	movs	r3, #1
 8002544:	4652      	mov	r2, sl
 8002546:	4649      	mov	r1, r9
 8002548:	4638      	mov	r0, r7
 800254a:	47c0      	blx	r8
 800254c:	3001      	adds	r0, #1
 800254e:	d103      	bne.n	8002558 <_printf_common+0xb0>
 8002550:	f04f 30ff 	mov.w	r0, #4294967295
 8002554:	e8bd 87f0 	ldmia.w	sp!, {r4, r5, r6, r7, r8, r9, sl, pc}
 8002558:	3501      	adds	r5, #1
 800255a:	e7c4      	b.n	80024e6 <_printf_common+0x3e>
 800255c:	2030      	movs	r0, #48	; 0x30
 800255e:	18e1      	adds	r1, r4, r3
 8002560:	f881 0043 	strb.w	r0, [r1, #67]	; 0x43
 8002564:	1c5a      	adds	r2, r3, #1
 8002566:	f894 1045 	ldrb.w	r1, [r4, #69]	; 0x45
 800256a:	4422      	add	r2, r4
 800256c:	3302      	adds	r3, #2
 800256e:	f882 1043 	strb.w	r1, [r2, #67]	; 0x43
 8002572:	e7c5      	b.n	8002500 <_printf_common+0x58>
 8002574:	2301      	movs	r3, #1
 8002576:	4622      	mov	r2, r4
 8002578:	4649      	mov	r1, r9
 800257a:	4638      	mov	r0, r7
 800257c:	47c0      	blx	r8
 800257e:	3001      	adds	r0, #1
 8002580:	d0e6      	beq.n	8002550 <_printf_common+0xa8>
 8002582:	3601      	adds	r6, #1
 8002584:	e7d9      	b.n	800253a <_printf_common+0x92>
	...

08002588 <_printf_i>:
 8002588:	e92d 47ff 	stmdb	sp!, {r0, r1, r2, r3, r4, r5, r6, r7, r8, r9, sl, lr}
 800258c:	460c      	mov	r4, r1
 800258e:	7e27      	ldrb	r7, [r4, #24]
 8002590:	4691      	mov	r9, r2
 8002592:	2f78      	cmp	r7, #120	; 0x78
 8002594:	4680      	mov	r8, r0
 8002596:	469a      	mov	sl, r3
 8002598:	990c      	ldr	r1, [sp, #48]	; 0x30
 800259a:	f104 0243 	add.w	r2, r4, #67	; 0x43
 800259e:	d807      	bhi.n	80025b0 <_printf_i+0x28>
 80025a0:	2f62      	cmp	r7, #98	; 0x62
 80025a2:	d80a      	bhi.n	80025ba <_printf_i+0x32>
 80025a4:	2f00      	cmp	r7, #0
 80025a6:	f000 80d9 	beq.w	800275c <_printf_i+0x1d4>
 80025aa:	2f58      	cmp	r7, #88	; 0x58
 80025ac:	f000 80a4 	beq.w	80026f8 <_printf_i+0x170>
 80025b0:	f104 0642 	add.w	r6, r4, #66	; 0x42
 80025b4:	f884 7042 	strb.w	r7, [r4, #66]	; 0x42
 80025b8:	e03a      	b.n	8002630 <_printf_i+0xa8>
 80025ba:	f1a7 0363 	sub.w	r3, r7, #99	; 0x63
 80025be:	2b15      	cmp	r3, #21
 80025c0:	d8f6      	bhi.n	80025b0 <_printf_i+0x28>
 80025c2:	a001      	add	r0, pc, #4	; (adr r0, 80025c8 <_printf_i+0x40>)
 80025c4:	f850 f023 	ldr.w	pc, [r0, r3, lsl #2]
 80025c8:	08002621 	.word	0x08002621
 80025cc:	08002635 	.word	0x08002635
 80025d0:	080025b1 	.word	0x080025b1
 80025d4:	080025b1 	.word	0x080025b1
 80025d8:	080025b1 	.word	0x080025b1
 80025dc:	080025b1 	.word	0x080025b1
 80025e0:	08002635 	.word	0x08002635
 80025e4:	080025b1 	.word	0x080025b1
 80025e8:	080025b1 	.word	0x080025b1
 80025ec:	080025b1 	.word	0x080025b1
 80025f0:	080025b1 	.word	0x080025b1
 80025f4:	08002743 	.word	0x08002743
 80025f8:	08002665 	.word	0x08002665
 80025fc:	08002725 	.word	0x08002725
 8002600:	080025b1 	.word	0x080025b1
 8002604:	080025b1 	.word	0x080025b1
 8002608:	08002765 	.word	0x08002765
 800260c:	080025b1 	.word	0x080025b1
 8002610:	08002665 	.word	0x08002665
 8002614:	080025b1 	.word	0x080025b1
 8002618:	080025b1 	.word	0x080025b1
 800261c:	0800272d 	.word	0x0800272d
 8002620:	680b      	ldr	r3, [r1, #0]
 8002622:	f104 0642 	add.w	r6, r4, #66	; 0x42
 8002626:	1d1a      	adds	r2, r3, #4
 8002628:	681b      	ldr	r3, [r3, #0]
 800262a:	600a      	str	r2, [r1, #0]
 800262c:	f884 3042 	strb.w	r3, [r4, #66]	; 0x42
 8002630:	2301      	movs	r3, #1
 8002632:	e0a4      	b.n	800277e <_printf_i+0x1f6>
 8002634:	6825      	ldr	r5, [r4, #0]
 8002636:	6808      	ldr	r0, [r1, #0]
 8002638:	062e      	lsls	r6, r5, #24
 800263a:	f100 0304 	add.w	r3, r0, #4
 800263e:	d50a      	bpl.n	8002656 <_printf_i+0xce>
 8002640:	6805      	ldr	r5, [r0, #0]
 8002642:	600b      	str	r3, [r1, #0]
 8002644:	2d00      	cmp	r5, #0
 8002646:	da03      	bge.n	8002650 <_printf_i+0xc8>
 8002648:	232d      	movs	r3, #45	; 0x2d
 800264a:	426d      	negs	r5, r5
 800264c:	f884 3043 	strb.w	r3, [r4, #67]	; 0x43
 8002650:	230a      	movs	r3, #10
 8002652:	485e      	ldr	r0, [pc, #376]	; (80027cc <_printf_i+0x244>)
 8002654:	e019      	b.n	800268a <_printf_i+0x102>
 8002656:	f015 0f40 	tst.w	r5, #64	; 0x40
 800265a:	6805      	ldr	r5, [r0, #0]
 800265c:	600b      	str	r3, [r1, #0]
 800265e:	bf18      	it	ne
 8002660:	b22d      	sxthne	r5, r5
 8002662:	e7ef      	b.n	8002644 <_printf_i+0xbc>
 8002664:	680b      	ldr	r3, [r1, #0]
 8002666:	6825      	ldr	r5, [r4, #0]
 8002668:	1d18      	adds	r0, r3, #4
 800266a:	6008      	str	r0, [r1, #0]
 800266c:	0628      	lsls	r0, r5, #24
 800266e:	d501      	bpl.n	8002674 <_printf_i+0xec>
 8002670:	681d      	ldr	r5, [r3, #0]
 8002672:	e002      	b.n	800267a <_printf_i+0xf2>
 8002674:	0669      	lsls	r1, r5, #25
 8002676:	d5fb      	bpl.n	8002670 <_printf_i+0xe8>
 8002678:	881d      	ldrh	r5, [r3, #0]
 800267a:	2f6f      	cmp	r7, #111	; 0x6f
 800267c:	bf0c      	ite	eq
 800267e:	2308      	moveq	r3, #8
 8002680:	230a      	movne	r3, #10
 8002682:	4852      	ldr	r0, [pc, #328]	; (80027cc <_printf_i+0x244>)
 8002684:	2100      	movs	r1, #0
 8002686:	f884 1043 	strb.w	r1, [r4, #67]	; 0x43
 800268a:	6866      	ldr	r6, [r4, #4]
 800268c:	2e00      	cmp	r6, #0
 800268e:	bfa8      	it	ge
 8002690:	6821      	ldrge	r1, [r4, #0]
 8002692:	60a6      	str	r6, [r4, #8]
 8002694:	bfa4      	itt	ge
 8002696:	f021 0104 	bicge.w	r1, r1, #4
 800269a:	6021      	strge	r1, [r4, #0]
 800269c:	b90d      	cbnz	r5, 80026a2 <_printf_i+0x11a>
 800269e:	2e00      	cmp	r6, #0
 80026a0:	d04d      	beq.n	800273e <_printf_i+0x1b6>
 80026a2:	4616      	mov	r6, r2
 80026a4:	fbb5 f1f3 	udiv	r1, r5, r3
 80026a8:	fb03 5711 	mls	r7, r3, r1, r5
 80026ac:	5dc7      	ldrb	r7, [r0, r7]
 80026ae:	f806 7d01 	strb.w	r7, [r6, #-1]!
 80026b2:	462f      	mov	r7, r5
 80026b4:	42bb      	cmp	r3, r7
 80026b6:	460d      	mov	r5, r1
 80026b8:	d9f4      	bls.n	80026a4 <_printf_i+0x11c>
 80026ba:	2b08      	cmp	r3, #8
 80026bc:	d10b      	bne.n	80026d6 <_printf_i+0x14e>
 80026be:	6823      	ldr	r3, [r4, #0]
 80026c0:	07df      	lsls	r7, r3, #31
 80026c2:	d508      	bpl.n	80026d6 <_printf_i+0x14e>
 80026c4:	6923      	ldr	r3, [r4, #16]
 80026c6:	6861      	ldr	r1, [r4, #4]
 80026c8:	4299      	cmp	r1, r3
 80026ca:	bfde      	ittt	le
 80026cc:	2330      	movle	r3, #48	; 0x30
 80026ce:	f806 3c01 	strble.w	r3, [r6, #-1]
 80026d2:	f106 36ff 	addle.w	r6, r6, #4294967295
 80026d6:	1b92      	subs	r2, r2, r6
 80026d8:	6122      	str	r2, [r4, #16]
 80026da:	464b      	mov	r3, r9
 80026dc:	4621      	mov	r1, r4
 80026de:	4640      	mov	r0, r8
 80026e0:	f8cd a000 	str.w	sl, [sp]
 80026e4:	aa03      	add	r2, sp, #12
 80026e6:	f7ff fedf 	bl	80024a8 <_printf_common>
 80026ea:	3001      	adds	r0, #1
 80026ec:	d14c      	bne.n	8002788 <_printf_i+0x200>
 80026ee:	f04f 30ff 	mov.w	r0, #4294967295
 80026f2:	b004      	add	sp, #16
 80026f4:	e8bd 87f0 	ldmia.w	sp!, {r4, r5, r6, r7, r8, r9, sl, pc}
 80026f8:	4834      	ldr	r0, [pc, #208]	; (80027cc <_printf_i+0x244>)
 80026fa:	f884 7045 	strb.w	r7, [r4, #69]	; 0x45
 80026fe:	680e      	ldr	r6, [r1, #0]
 8002700:	6823      	ldr	r3, [r4, #0]
 8002702:	f856 5b04 	ldr.w	r5, [r6], #4
 8002706:	061f      	lsls	r7, r3, #24
 8002708:	600e      	str	r6, [r1, #0]
 800270a:	d514      	bpl.n	8002736 <_printf_i+0x1ae>
 800270c:	07d9      	lsls	r1, r3, #31
 800270e:	bf44      	itt	mi
 8002710:	f043 0320 	orrmi.w	r3, r3, #32
 8002714:	6023      	strmi	r3, [r4, #0]
 8002716:	b91d      	cbnz	r5, 8002720 <_printf_i+0x198>
 8002718:	6823      	ldr	r3, [r4, #0]
 800271a:	f023 0320 	bic.w	r3, r3, #32
 800271e:	6023      	str	r3, [r4, #0]
 8002720:	2310      	movs	r3, #16
 8002722:	e7af      	b.n	8002684 <_printf_i+0xfc>
 8002724:	6823      	ldr	r3, [r4, #0]
 8002726:	f043 0320 	orr.w	r3, r3, #32
 800272a:	6023      	str	r3, [r4, #0]
 800272c:	2378      	movs	r3, #120	; 0x78
 800272e:	4828      	ldr	r0, [pc, #160]	; (80027d0 <_printf_i+0x248>)
 8002730:	f884 3045 	strb.w	r3, [r4, #69]	; 0x45
 8002734:	e7e3      	b.n	80026fe <_printf_i+0x176>
 8002736:	065e      	lsls	r6, r3, #25
 8002738:	bf48      	it	mi
 800273a:	b2ad      	uxthmi	r5, r5
 800273c:	e7e6      	b.n	800270c <_printf_i+0x184>
 800273e:	4616      	mov	r6, r2
 8002740:	e7bb      	b.n	80026ba <_printf_i+0x132>
 8002742:	680b      	ldr	r3, [r1, #0]
 8002744:	6826      	ldr	r6, [r4, #0]
 8002746:	1d1d      	adds	r5, r3, #4
 8002748:	6960      	ldr	r0, [r4, #20]
 800274a:	600d      	str	r5, [r1, #0]
 800274c:	0635      	lsls	r5, r6, #24
 800274e:	681b      	ldr	r3, [r3, #0]
 8002750:	d501      	bpl.n	8002756 <_printf_i+0x1ce>
 8002752:	6018      	str	r0, [r3, #0]
 8002754:	e002      	b.n	800275c <_printf_i+0x1d4>
 8002756:	0671      	lsls	r1, r6, #25
 8002758:	d5fb      	bpl.n	8002752 <_printf_i+0x1ca>
 800275a:	8018      	strh	r0, [r3, #0]
 800275c:	2300      	movs	r3, #0
 800275e:	4616      	mov	r6, r2
 8002760:	6123      	str	r3, [r4, #16]
 8002762:	e7ba      	b.n	80026da <_printf_i+0x152>
 8002764:	680b      	ldr	r3, [r1, #0]
 8002766:	1d1a      	adds	r2, r3, #4
 8002768:	600a      	str	r2, [r1, #0]
 800276a:	681e      	ldr	r6, [r3, #0]
 800276c:	2100      	movs	r1, #0
 800276e:	4630      	mov	r0, r6
 8002770:	6862      	ldr	r2, [r4, #4]
 8002772:	f000 f831 	bl	80027d8 <memchr>
 8002776:	b108      	cbz	r0, 800277c <_printf_i+0x1f4>
 8002778:	1b80      	subs	r0, r0, r6
 800277a:	6060      	str	r0, [r4, #4]
 800277c:	6863      	ldr	r3, [r4, #4]
 800277e:	6123      	str	r3, [r4, #16]
 8002780:	2300      	movs	r3, #0
 8002782:	f884 3043 	strb.w	r3, [r4, #67]	; 0x43
 8002786:	e7a8      	b.n	80026da <_printf_i+0x152>
 8002788:	4632      	mov	r2, r6
 800278a:	4649      	mov	r1, r9
 800278c:	4640      	mov	r0, r8
 800278e:	6923      	ldr	r3, [r4, #16]
 8002790:	47d0      	blx	sl
 8002792:	3001      	adds	r0, #1
 8002794:	d0ab      	beq.n	80026ee <_printf_i+0x166>
 8002796:	6823      	ldr	r3, [r4, #0]
 8002798:	079b      	lsls	r3, r3, #30
 800279a:	d413      	bmi.n	80027c4 <_printf_i+0x23c>
 800279c:	68e0      	ldr	r0, [r4, #12]
 800279e:	9b03      	ldr	r3, [sp, #12]
 80027a0:	4298      	cmp	r0, r3
 80027a2:	bfb8      	it	lt
 80027a4:	4618      	movlt	r0, r3
 80027a6:	e7a4      	b.n	80026f2 <_printf_i+0x16a>
 80027a8:	2301      	movs	r3, #1
 80027aa:	4632      	mov	r2, r6
 80027ac:	4649      	mov	r1, r9
 80027ae:	4640      	mov	r0, r8
 80027b0:	47d0      	blx	sl
 80027b2:	3001      	adds	r0, #1
 80027b4:	d09b      	beq.n	80026ee <_printf_i+0x166>
 80027b6:	3501      	adds	r5, #1
 80027b8:	68e3      	ldr	r3, [r4, #12]
 80027ba:	9903      	ldr	r1, [sp, #12]
 80027bc:	1a5b      	subs	r3, r3, r1
 80027be:	42ab      	cmp	r3, r5
 80027c0:	dcf2      	bgt.n	80027a8 <_printf_i+0x220>
 80027c2:	e7eb      	b.n	800279c <_printf_i+0x214>
 80027c4:	2500      	movs	r5, #0
 80027c6:	f104 0619 	add.w	r6, r4, #25
 80027ca:	e7f5      	b.n	80027b8 <_printf_i+0x230>
 80027cc:	08002932 	.word	0x08002932
 80027d0:	08002943 	.word	0x08002943

080027d4 <__retarget_lock_acquire_recursive>:
 80027d4:	4770      	bx	lr

080027d6 <__retarget_lock_release_recursive>:
 80027d6:	4770      	bx	lr

080027d8 <memchr>:
 80027d8:	4603      	mov	r3, r0
 80027da:	b510      	push	{r4, lr}
 80027dc:	b2c9      	uxtb	r1, r1
 80027de:	4402      	add	r2, r0
 80027e0:	4293      	cmp	r3, r2
 80027e2:	4618      	mov	r0, r3
 80027e4:	d101      	bne.n	80027ea <memchr+0x12>
 80027e6:	2000      	movs	r0, #0
 80027e8:	e003      	b.n	80027f2 <memchr+0x1a>
 80027ea:	7804      	ldrb	r4, [r0, #0]
 80027ec:	3301      	adds	r3, #1
 80027ee:	428c      	cmp	r4, r1
 80027f0:	d1f6      	bne.n	80027e0 <memchr+0x8>
 80027f2:	bd10      	pop	{r4, pc}

080027f4 <memcpy>:
 80027f4:	440a      	add	r2, r1
 80027f6:	4291      	cmp	r1, r2
 80027f8:	f100 33ff 	add.w	r3, r0, #4294967295
 80027fc:	d100      	bne.n	8002800 <memcpy+0xc>
 80027fe:	4770      	bx	lr
 8002800:	b510      	push	{r4, lr}
 8002802:	f811 4b01 	ldrb.w	r4, [r1], #1
 8002806:	4291      	cmp	r1, r2
 8002808:	f803 4f01 	strb.w	r4, [r3, #1]!
 800280c:	d1f9      	bne.n	8002802 <memcpy+0xe>
 800280e:	bd10      	pop	{r4, pc}

08002810 <memmove>:
 8002810:	4288      	cmp	r0, r1
 8002812:	b510      	push	{r4, lr}
 8002814:	eb01 0402 	add.w	r4, r1, r2
 8002818:	d902      	bls.n	8002820 <memmove+0x10>
 800281a:	4284      	cmp	r4, r0
 800281c:	4623      	mov	r3, r4
 800281e:	d807      	bhi.n	8002830 <memmove+0x20>
 8002820:	1e43      	subs	r3, r0, #1
 8002822:	42a1      	cmp	r1, r4
 8002824:	d008      	beq.n	8002838 <memmove+0x28>
 8002826:	f811 2b01 	ldrb.w	r2, [r1], #1
 800282a:	f803 2f01 	strb.w	r2, [r3, #1]!
 800282e:	e7f8      	b.n	8002822 <memmove+0x12>
 8002830:	4601      	mov	r1, r0
 8002832:	4402      	add	r2, r0
 8002834:	428a      	cmp	r2, r1
 8002836:	d100      	bne.n	800283a <memmove+0x2a>
 8002838:	bd10      	pop	{r4, pc}
 800283a:	f813 4d01 	ldrb.w	r4, [r3, #-1]!
 800283e:	f802 4d01 	strb.w	r4, [r2, #-1]!
 8002842:	e7f7      	b.n	8002834 <memmove+0x24>

08002844 <_realloc_r>:
 8002844:	b5f8      	push	{r3, r4, r5, r6, r7, lr}
 8002846:	4607      	mov	r7, r0
 8002848:	4614      	mov	r4, r2
 800284a:	460e      	mov	r6, r1
 800284c:	b921      	cbnz	r1, 8002858 <_realloc_r+0x14>
 800284e:	4611      	mov	r1, r2
 8002850:	e8bd 40f8 	ldmia.w	sp!, {r3, r4, r5, r6, r7, lr}
 8002854:	f7ff bc1c 	b.w	8002090 <_malloc_r>
 8002858:	b922      	cbnz	r2, 8002864 <_realloc_r+0x20>
 800285a:	f7ff fbcd 	bl	8001ff8 <_free_r>
 800285e:	4625      	mov	r5, r4
 8002860:	4628      	mov	r0, r5
 8002862:	bdf8      	pop	{r3, r4, r5, r6, r7, pc}
 8002864:	f000 f814 	bl	8002890 <_malloc_usable_size_r>
 8002868:	42a0      	cmp	r0, r4
 800286a:	d20f      	bcs.n	800288c <_realloc_r+0x48>
 800286c:	4621      	mov	r1, r4
 800286e:	4638      	mov	r0, r7
 8002870:	f7ff fc0e 	bl	8002090 <_malloc_r>
 8002874:	4605      	mov	r5, r0
 8002876:	2800      	cmp	r0, #0
 8002878:	d0f2      	beq.n	8002860 <_realloc_r+0x1c>
 800287a:	4631      	mov	r1, r6
 800287c:	4622      	mov	r2, r4
 800287e:	f7ff ffb9 	bl	80027f4 <memcpy>
 8002882:	4631      	mov	r1, r6
 8002884:	4638      	mov	r0, r7
 8002886:	f7ff fbb7 	bl	8001ff8 <_free_r>
 800288a:	e7e9      	b.n	8002860 <_realloc_r+0x1c>
 800288c:	4635      	mov	r5, r6
 800288e:	e7e7      	b.n	8002860 <_realloc_r+0x1c>

08002890 <_malloc_usable_size_r>:
 8002890:	f851 3c04 	ldr.w	r3, [r1, #-4]
 8002894:	1f18      	subs	r0, r3, #4
 8002896:	2b00      	cmp	r3, #0
 8002898:	bfbc      	itt	lt
 800289a:	580b      	ldrlt	r3, [r1, r0]
 800289c:	18c0      	addlt	r0, r0, r3
 800289e:	4770      	bx	lr

080028a0 <_sbrk>:
 80028a0:	4b04      	ldr	r3, [pc, #16]	; (80028b4 <_sbrk+0x14>)
 80028a2:	4602      	mov	r2, r0
 80028a4:	6819      	ldr	r1, [r3, #0]
 80028a6:	b909      	cbnz	r1, 80028ac <_sbrk+0xc>
 80028a8:	4903      	ldr	r1, [pc, #12]	; (80028b8 <_sbrk+0x18>)
 80028aa:	6019      	str	r1, [r3, #0]
 80028ac:	6818      	ldr	r0, [r3, #0]
 80028ae:	4402      	add	r2, r0
 80028b0:	601a      	str	r2, [r3, #0]
 80028b2:	4770      	bx	lr
 80028b4:	20000158 	.word	0x20000158
 80028b8:	20000568 	.word	0x20000568

080028bc <_init>:
 80028bc:	b5f8      	push	{r3, r4, r5, r6, r7, lr}
 80028be:	bf00      	nop
 80028c0:	bcf8      	pop	{r3, r4, r5, r6, r7}
 80028c2:	bc08      	pop	{r3}
 80028c4:	469e      	mov	lr, r3
 80028c6:	4770      	bx	lr

080028c8 <_fini>:
 80028c8:	b5f8      	push	{r3, r4, r5, r6, r7, lr}
 80028ca:	bf00      	nop
 80028cc:	bcf8      	pop	{r3, r4, r5, r6, r7}
 80028ce:	bc08      	pop	{r3}
 80028d0:	469e      	mov	lr, r3
 80028d2:	4770      	bx	lr
