
tanwa.elf:     file format elf32-littlearm

Sections:
Idx Name          Size      VMA       LMA       File off  Algn
  0 .isr_vector   0000010c  08000000  08000000  00010000  2**0
                  CONTENTS, ALLOC, LOAD, READONLY, DATA
  1 .text         00001cac  0800010c  0800010c  0001010c  2**2
                  CONTENTS, ALLOC, LOAD, READONLY, CODE
  2 .rodata       0000004c  08001db8  08001db8  00011db8  2**2
                  CONTENTS, ALLOC, LOAD, READONLY, DATA
  3 .ARM.extab    00000000  08001e04  08001e04  0002000c  2**0
                  CONTENTS
  4 .ARM          00000000  08001e04  08001e04  0002000c  2**0
                  CONTENTS
  5 .preinit_array 00000000  08001e04  08001e04  0002000c  2**0
                  CONTENTS, ALLOC, LOAD, DATA
  6 .init_array   00000004  08001e04  08001e04  00011e04  2**2
                  CONTENTS, ALLOC, LOAD, DATA
  7 .fini_array   00000004  08001e08  08001e08  00011e08  2**2
                  CONTENTS, ALLOC, LOAD, DATA
  8 .data         0000000c  20000000  08001e0c  00020000  2**2
                  CONTENTS, ALLOC, LOAD, DATA
  9 .bss          0000015c  2000000c  08001e18  0002000c  2**2
                  ALLOC
 10 ._user_heap_stack 00000600  20000168  08001e18  00020168  2**0
                  ALLOC
 11 .ARM.attributes 00000029  00000000  00000000  0002000c  2**0
                  CONTENTS, READONLY
 12 .debug_info   00011243  00000000  00000000  00020035  2**0
                  CONTENTS, READONLY, DEBUGGING, OCTETS
 13 .debug_abbrev 000028ba  00000000  00000000  00031278  2**0
                  CONTENTS, READONLY, DEBUGGING, OCTETS
 14 .debug_aranges 00000b48  00000000  00000000  00033b38  2**3
                  CONTENTS, READONLY, DEBUGGING, OCTETS
 15 .debug_ranges 00000ae0  00000000  00000000  00034680  2**3
                  CONTENTS, READONLY, DEBUGGING, OCTETS
 16 .debug_macro  0001ab47  00000000  00000000  00035160  2**0
                  CONTENTS, READONLY, DEBUGGING, OCTETS
 17 .debug_line   00011d1d  00000000  00000000  0004fca7  2**0
                  CONTENTS, READONLY, DEBUGGING, OCTETS
 18 .debug_str    0008f086  00000000  00000000  000619c4  2**0
                  CONTENTS, READONLY, DEBUGGING, OCTETS
 19 .comment      00000053  00000000  00000000  000f0a4a  2**0
                  CONTENTS, READONLY
 20 .debug_frame  00001db0  00000000  00000000  000f0aa0  2**2
                  CONTENTS, READONLY, DEBUGGING, OCTETS
 21 .debug_loc    00009c4f  00000000  00000000  000f2850  2**0
                  CONTENTS, READONLY, DEBUGGING, OCTETS

Disassembly of section .text:

0800010c <__do_global_dtors_aux>:
 800010c:	b510      	push	{r4, lr}
 800010e:	4c05      	ldr	r4, [pc, #20]	; (8000124 <__do_global_dtors_aux+0x18>)
 8000110:	7823      	ldrb	r3, [r4, #0]
 8000112:	b933      	cbnz	r3, 8000122 <__do_global_dtors_aux+0x16>
 8000114:	4b04      	ldr	r3, [pc, #16]	; (8000128 <__do_global_dtors_aux+0x1c>)
 8000116:	b113      	cbz	r3, 800011e <__do_global_dtors_aux+0x12>
 8000118:	4804      	ldr	r0, [pc, #16]	; (800012c <__do_global_dtors_aux+0x20>)
 800011a:	f3af 8000 	nop.w
 800011e:	2301      	movs	r3, #1
 8000120:	7023      	strb	r3, [r4, #0]
 8000122:	bd10      	pop	{r4, pc}
 8000124:	2000000c 	.word	0x2000000c
 8000128:	00000000 	.word	0x00000000
 800012c:	08001da0 	.word	0x08001da0

08000130 <frame_dummy>:
 8000130:	b508      	push	{r3, lr}
 8000132:	4b03      	ldr	r3, [pc, #12]	; (8000140 <frame_dummy+0x10>)
 8000134:	b11b      	cbz	r3, 800013e <frame_dummy+0xe>
 8000136:	4903      	ldr	r1, [pc, #12]	; (8000144 <frame_dummy+0x14>)
 8000138:	4803      	ldr	r0, [pc, #12]	; (8000148 <frame_dummy+0x18>)
 800013a:	f3af 8000 	nop.w
 800013e:	bd08      	pop	{r3, pc}
 8000140:	00000000 	.word	0x00000000
 8000144:	20000010 	.word	0x20000010
 8000148:	08001da0 	.word	0x08001da0

0800014c <_ZN7IgniterC1EP12GPIO_TypeDeftS1_t>:
#include <Igniter.hh>

//(names of args start with '_' sign)
Igniter::Igniter(GPIO_TypeDef* _GPIO_PORT_IGNITER, uint16_t _PIN_IGNITER, GPIO_TypeDef* _IGN_GPIO_PORT_TEST_CON, uint16_t _IGN_PIN_TEST_CON){
 800014c:	b480      	push	{r7}
 800014e:	b085      	sub	sp, #20
 8000150:	af00      	add	r7, sp, #0
 8000152:	60f8      	str	r0, [r7, #12]
 8000154:	60b9      	str	r1, [r7, #8]
 8000156:	603b      	str	r3, [r7, #0]
 8000158:	4613      	mov	r3, r2
 800015a:	80fb      	strh	r3, [r7, #6]
	GPIO_PORT_IGNITER = _GPIO_PORT_IGNITER;
 800015c:	68fb      	ldr	r3, [r7, #12]
 800015e:	68ba      	ldr	r2, [r7, #8]
 8000160:	601a      	str	r2, [r3, #0]
	PIN_IGNITER = _PIN_IGNITER;
 8000162:	68fb      	ldr	r3, [r7, #12]
 8000164:	88fa      	ldrh	r2, [r7, #6]
 8000166:	809a      	strh	r2, [r3, #4]
	GPIO_PORT_TEST_CON = _IGN_GPIO_PORT_TEST_CON;
 8000168:	68fb      	ldr	r3, [r7, #12]
 800016a:	683a      	ldr	r2, [r7, #0]
 800016c:	609a      	str	r2, [r3, #8]
	PIN_TEST_CON = _IGN_PIN_TEST_CON;
 800016e:	68fb      	ldr	r3, [r7, #12]
 8000170:	8b3a      	ldrh	r2, [r7, #24]
 8000172:	819a      	strh	r2, [r3, #12]
}
 8000174:	68fb      	ldr	r3, [r7, #12]
 8000176:	4618      	mov	r0, r3
 8000178:	3714      	adds	r7, #20
 800017a:	46bd      	mov	sp, r7
 800017c:	bc80      	pop	{r7}
 800017e:	4770      	bx	lr

08000180 <_ZNK7Igniter12is_connectedEv>:

bool Igniter::is_connected() const{
 8000180:	b580      	push	{r7, lr}
 8000182:	b082      	sub	sp, #8
 8000184:	af00      	add	r7, sp, #0
 8000186:	6078      	str	r0, [r7, #4]
	if(HAL_GPIO_ReadPin(GPIO_PORT_TEST_CON, PIN_TEST_CON) == GPIO_PIN_SET)
 8000188:	687b      	ldr	r3, [r7, #4]
 800018a:	689a      	ldr	r2, [r3, #8]
 800018c:	687b      	ldr	r3, [r7, #4]
 800018e:	899b      	ldrh	r3, [r3, #12]
 8000190:	4619      	mov	r1, r3
 8000192:	4610      	mov	r0, r2
 8000194:	f000 ff5a 	bl	800104c <HAL_GPIO_ReadPin>
 8000198:	4603      	mov	r3, r0
 800019a:	2b01      	cmp	r3, #1
 800019c:	bf0c      	ite	eq
 800019e:	2301      	moveq	r3, #1
 80001a0:	2300      	movne	r3, #0
 80001a2:	b2db      	uxtb	r3, r3
 80001a4:	2b00      	cmp	r3, #0
 80001a6:	d001      	beq.n	80001ac <_ZNK7Igniter12is_connectedEv+0x2c>
		return 1;
 80001a8:	2301      	movs	r3, #1
 80001aa:	e000      	b.n	80001ae <_ZNK7Igniter12is_connectedEv+0x2e>
	else
		return 0;
 80001ac:	2300      	movs	r3, #0
}
 80001ae:	4618      	mov	r0, r3
 80001b0:	3708      	adds	r7, #8
 80001b2:	46bd      	mov	sp, r7
 80001b4:	bd80      	pop	{r7, pc}

080001b6 <_ZN7Igniter4FIREEv>:

void Igniter::FIRE(){
 80001b6:	b580      	push	{r7, lr}
 80001b8:	b082      	sub	sp, #8
 80001ba:	af00      	add	r7, sp, #0
 80001bc:	6078      	str	r0, [r7, #4]
	HAL_GPIO_WritePin(GPIO_PORT_IGNITER, PIN_IGNITER, GPIO_PIN_SET);
 80001be:	687b      	ldr	r3, [r7, #4]
 80001c0:	6818      	ldr	r0, [r3, #0]
 80001c2:	687b      	ldr	r3, [r7, #4]
 80001c4:	889b      	ldrh	r3, [r3, #4]
 80001c6:	2201      	movs	r2, #1
 80001c8:	4619      	mov	r1, r3
 80001ca:	f000 ff45 	bl	8001058 <HAL_GPIO_WritePin>
}
 80001ce:	bf00      	nop
 80001d0:	3708      	adds	r7, #8
 80001d2:	46bd      	mov	sp, r7
 80001d4:	bd80      	pop	{r7, pc}

080001d6 <_ZN5MotorC1EP12GPIO_TypeDeftS1_tP17TIM_HandleTypeDeftS1_tS1_t>:
#include <L298.hh>

//make struct 'Motor', fill it, return pointer to it    (names for args start with '_' sign)
Motor::Motor(GPIO_TypeDef* _GPIO_PORT_IN1, uint16_t _PIN_IN1, GPIO_TypeDef* _GPIO_PORT_IN2, uint16_t _PIN_IN2,
 80001d6:	b580      	push	{r7, lr}
 80001d8:	b084      	sub	sp, #16
 80001da:	af00      	add	r7, sp, #0
 80001dc:	60f8      	str	r0, [r7, #12]
 80001de:	60b9      	str	r1, [r7, #8]
 80001e0:	603b      	str	r3, [r7, #0]
 80001e2:	4613      	mov	r3, r2
 80001e4:	80fb      	strh	r3, [r7, #6]
		TIM_HandleTypeDef* _TIM_NR_EN, uint16_t _TIM_CHANNEL_EN, GPIO_TypeDef* _GPIO_PORT_LS_OPEN, uint16_t _PIN_LS_OPEN,
		GPIO_TypeDef* _GPIO_PORT_LS_CLOSE, uint16_t _PIN_LS_CLOSE){

	GPIO_PORT_IN1 = _GPIO_PORT_IN1;
 80001e6:	68fb      	ldr	r3, [r7, #12]
 80001e8:	68ba      	ldr	r2, [r7, #8]
 80001ea:	601a      	str	r2, [r3, #0]
	PIN_IN1 = _PIN_IN1;
 80001ec:	68fb      	ldr	r3, [r7, #12]
 80001ee:	88fa      	ldrh	r2, [r7, #6]
 80001f0:	809a      	strh	r2, [r3, #4]
	GPIO_PORT_IN2 = _GPIO_PORT_IN2;
 80001f2:	68fb      	ldr	r3, [r7, #12]
 80001f4:	683a      	ldr	r2, [r7, #0]
 80001f6:	609a      	str	r2, [r3, #8]
	PIN_IN2 = _PIN_IN2;
 80001f8:	68fb      	ldr	r3, [r7, #12]
 80001fa:	8b3a      	ldrh	r2, [r7, #24]
 80001fc:	819a      	strh	r2, [r3, #12]
	TIM_NR_EN = _TIM_NR_EN;
 80001fe:	68fb      	ldr	r3, [r7, #12]
 8000200:	69fa      	ldr	r2, [r7, #28]
 8000202:	611a      	str	r2, [r3, #16]
	TIM_CHANNEL_EN = _TIM_CHANNEL_EN;
 8000204:	68fb      	ldr	r3, [r7, #12]
 8000206:	8c3a      	ldrh	r2, [r7, #32]
 8000208:	829a      	strh	r2, [r3, #20]
	GPIO_PORT_LS_OPEN = _GPIO_PORT_LS_OPEN;
 800020a:	68fb      	ldr	r3, [r7, #12]
 800020c:	6a7a      	ldr	r2, [r7, #36]	; 0x24
 800020e:	619a      	str	r2, [r3, #24]
	PIN_LS_OPEN = _PIN_LS_OPEN;
 8000210:	68fb      	ldr	r3, [r7, #12]
 8000212:	8d3a      	ldrh	r2, [r7, #40]	; 0x28
 8000214:	839a      	strh	r2, [r3, #28]
	GPIO_PORT_LS_CLOSE = _GPIO_PORT_LS_CLOSE;
 8000216:	68fb      	ldr	r3, [r7, #12]
 8000218:	6afa      	ldr	r2, [r7, #44]	; 0x2c
 800021a:	621a      	str	r2, [r3, #32]
	PIN_LS_CLOSE = _PIN_LS_CLOSE;
 800021c:	68fb      	ldr	r3, [r7, #12]
 800021e:	8e3a      	ldrh	r2, [r7, #48]	; 0x30
 8000220:	849a      	strh	r2, [r3, #36]	; 0x24
	status = Status::IDK;
 8000222:	68fb      	ldr	r3, [r7, #12]
 8000224:	2202      	movs	r2, #2
 8000226:	629a      	str	r2, [r3, #40]	; 0x28
	HAL_TIM_PWM_Start(TIM_NR_EN, TIM_CHANNEL_EN);
 8000228:	68fb      	ldr	r3, [r7, #12]
 800022a:	691a      	ldr	r2, [r3, #16]
 800022c:	68fb      	ldr	r3, [r7, #12]
 800022e:	8a9b      	ldrh	r3, [r3, #20]
 8000230:	4619      	mov	r1, r3
 8000232:	4610      	mov	r0, r2
 8000234:	f001 fc6a 	bl	8001b0c <HAL_TIM_PWM_Start>
}
 8000238:	68fb      	ldr	r3, [r7, #12]
 800023a:	4618      	mov	r0, r3
 800023c:	3710      	adds	r7, #16
 800023e:	46bd      	mov	sp, r7
 8000240:	bd80      	pop	{r7, pc}

08000242 <_ZN5Motor4stopEv>:

void Motor::stop(){
 8000242:	b580      	push	{r7, lr}
 8000244:	b082      	sub	sp, #8
 8000246:	af00      	add	r7, sp, #0
 8000248:	6078      	str	r0, [r7, #4]
	__HAL_TIM_SET_COMPARE(TIM_NR_EN, TIM_CHANNEL_EN, 0);
 800024a:	687b      	ldr	r3, [r7, #4]
 800024c:	8a9b      	ldrh	r3, [r3, #20]
 800024e:	2b00      	cmp	r3, #0
 8000250:	d105      	bne.n	800025e <_ZN5Motor4stopEv+0x1c>
 8000252:	687b      	ldr	r3, [r7, #4]
 8000254:	691b      	ldr	r3, [r3, #16]
 8000256:	681b      	ldr	r3, [r3, #0]
 8000258:	2200      	movs	r2, #0
 800025a:	635a      	str	r2, [r3, #52]	; 0x34
 800025c:	e018      	b.n	8000290 <_ZN5Motor4stopEv+0x4e>
 800025e:	687b      	ldr	r3, [r7, #4]
 8000260:	8a9b      	ldrh	r3, [r3, #20]
 8000262:	2b04      	cmp	r3, #4
 8000264:	d105      	bne.n	8000272 <_ZN5Motor4stopEv+0x30>
 8000266:	687b      	ldr	r3, [r7, #4]
 8000268:	691b      	ldr	r3, [r3, #16]
 800026a:	681b      	ldr	r3, [r3, #0]
 800026c:	2200      	movs	r2, #0
 800026e:	639a      	str	r2, [r3, #56]	; 0x38
 8000270:	e00e      	b.n	8000290 <_ZN5Motor4stopEv+0x4e>
 8000272:	687b      	ldr	r3, [r7, #4]
 8000274:	8a9b      	ldrh	r3, [r3, #20]
 8000276:	2b08      	cmp	r3, #8
 8000278:	d105      	bne.n	8000286 <_ZN5Motor4stopEv+0x44>
 800027a:	687b      	ldr	r3, [r7, #4]
 800027c:	691b      	ldr	r3, [r3, #16]
 800027e:	681b      	ldr	r3, [r3, #0]
 8000280:	2200      	movs	r2, #0
 8000282:	63da      	str	r2, [r3, #60]	; 0x3c
 8000284:	e004      	b.n	8000290 <_ZN5Motor4stopEv+0x4e>
 8000286:	687b      	ldr	r3, [r7, #4]
 8000288:	691b      	ldr	r3, [r3, #16]
 800028a:	681b      	ldr	r3, [r3, #0]
 800028c:	2200      	movs	r2, #0
 800028e:	641a      	str	r2, [r3, #64]	; 0x40
	HAL_GPIO_WritePin(GPIO_PORT_IN1, PIN_IN1, GPIO_PIN_RESET);
 8000290:	687b      	ldr	r3, [r7, #4]
 8000292:	6818      	ldr	r0, [r3, #0]
 8000294:	687b      	ldr	r3, [r7, #4]
 8000296:	889b      	ldrh	r3, [r3, #4]
 8000298:	2200      	movs	r2, #0
 800029a:	4619      	mov	r1, r3
 800029c:	f000 fedc 	bl	8001058 <HAL_GPIO_WritePin>
	HAL_GPIO_WritePin(GPIO_PORT_IN2, PIN_IN2, GPIO_PIN_RESET);
 80002a0:	687b      	ldr	r3, [r7, #4]
 80002a2:	6898      	ldr	r0, [r3, #8]
 80002a4:	687b      	ldr	r3, [r7, #4]
 80002a6:	899b      	ldrh	r3, [r3, #12]
 80002a8:	2200      	movs	r2, #0
 80002aa:	4619      	mov	r1, r3
 80002ac:	f000 fed4 	bl	8001058 <HAL_GPIO_WritePin>
}
 80002b0:	bf00      	nop
 80002b2:	3708      	adds	r7, #8
 80002b4:	46bd      	mov	sp, r7
 80002b6:	bd80      	pop	{r7, pc}

080002b8 <_ZN5Motor4openEh>:

void Motor::open(uint8_t secs){
 80002b8:	b580      	push	{r7, lr}
 80002ba:	b082      	sub	sp, #8
 80002bc:	af00      	add	r7, sp, #0
 80002be:	6078      	str	r0, [r7, #4]
 80002c0:	460b      	mov	r3, r1
 80002c2:	70fb      	strb	r3, [r7, #3]
		HAL_GPIO_WritePin(GPIO_PORT_IN1, PIN_IN1, GPIO_PIN_SET);
 80002c4:	687b      	ldr	r3, [r7, #4]
 80002c6:	6818      	ldr	r0, [r3, #0]
 80002c8:	687b      	ldr	r3, [r7, #4]
 80002ca:	889b      	ldrh	r3, [r3, #4]
 80002cc:	2201      	movs	r2, #1
 80002ce:	4619      	mov	r1, r3
 80002d0:	f000 fec2 	bl	8001058 <HAL_GPIO_WritePin>
		HAL_GPIO_WritePin(GPIO_PORT_IN2, PIN_IN2, GPIO_PIN_RESET);
 80002d4:	687b      	ldr	r3, [r7, #4]
 80002d6:	6898      	ldr	r0, [r3, #8]
 80002d8:	687b      	ldr	r3, [r7, #4]
 80002da:	899b      	ldrh	r3, [r3, #12]
 80002dc:	2200      	movs	r2, #0
 80002de:	4619      	mov	r1, r3
 80002e0:	f000 feba 	bl	8001058 <HAL_GPIO_WritePin>
		__HAL_TIM_SET_COMPARE(TIM_NR_EN, TIM_CHANNEL_EN, 999);
 80002e4:	687b      	ldr	r3, [r7, #4]
 80002e6:	8a9b      	ldrh	r3, [r3, #20]
 80002e8:	2b00      	cmp	r3, #0
 80002ea:	d106      	bne.n	80002fa <_ZN5Motor4openEh+0x42>
 80002ec:	687b      	ldr	r3, [r7, #4]
 80002ee:	691b      	ldr	r3, [r3, #16]
 80002f0:	681b      	ldr	r3, [r3, #0]
 80002f2:	f240 32e7 	movw	r2, #999	; 0x3e7
 80002f6:	635a      	str	r2, [r3, #52]	; 0x34
 80002f8:	e01b      	b.n	8000332 <_ZN5Motor4openEh+0x7a>
 80002fa:	687b      	ldr	r3, [r7, #4]
 80002fc:	8a9b      	ldrh	r3, [r3, #20]
 80002fe:	2b04      	cmp	r3, #4
 8000300:	d106      	bne.n	8000310 <_ZN5Motor4openEh+0x58>
 8000302:	687b      	ldr	r3, [r7, #4]
 8000304:	691b      	ldr	r3, [r3, #16]
 8000306:	681b      	ldr	r3, [r3, #0]
 8000308:	f240 32e7 	movw	r2, #999	; 0x3e7
 800030c:	639a      	str	r2, [r3, #56]	; 0x38
 800030e:	e010      	b.n	8000332 <_ZN5Motor4openEh+0x7a>
 8000310:	687b      	ldr	r3, [r7, #4]
 8000312:	8a9b      	ldrh	r3, [r3, #20]
 8000314:	2b08      	cmp	r3, #8
 8000316:	d106      	bne.n	8000326 <_ZN5Motor4openEh+0x6e>
 8000318:	687b      	ldr	r3, [r7, #4]
 800031a:	691b      	ldr	r3, [r3, #16]
 800031c:	681b      	ldr	r3, [r3, #0]
 800031e:	f240 32e7 	movw	r2, #999	; 0x3e7
 8000322:	63da      	str	r2, [r3, #60]	; 0x3c
 8000324:	e005      	b.n	8000332 <_ZN5Motor4openEh+0x7a>
 8000326:	687b      	ldr	r3, [r7, #4]
 8000328:	691b      	ldr	r3, [r3, #16]
 800032a:	681b      	ldr	r3, [r3, #0]
 800032c:	f240 32e7 	movw	r2, #999	; 0x3e7
 8000330:	641a      	str	r2, [r3, #64]	; 0x40
		status = Status::IDK;
 8000332:	687b      	ldr	r3, [r7, #4]
 8000334:	2202      	movs	r2, #2
 8000336:	629a      	str	r2, [r3, #40]	; 0x28
	if(GPIO_PORT_LS_CLOSE != nullptr && GPIO_PORT_LS_OPEN != nullptr){
 8000338:	687b      	ldr	r3, [r7, #4]
 800033a:	6a1b      	ldr	r3, [r3, #32]
 800033c:	2b00      	cmp	r3, #0
 800033e:	d018      	beq.n	8000372 <_ZN5Motor4openEh+0xba>
 8000340:	687b      	ldr	r3, [r7, #4]
 8000342:	699b      	ldr	r3, [r3, #24]
 8000344:	2b00      	cmp	r3, #0
 8000346:	d014      	beq.n	8000372 <_ZN5Motor4openEh+0xba>
		while(HAL_GPIO_ReadPin(GPIO_PORT_LS_OPEN, PIN_LS_OPEN) == GPIO_PIN_SET);
 8000348:	687b      	ldr	r3, [r7, #4]
 800034a:	699a      	ldr	r2, [r3, #24]
 800034c:	687b      	ldr	r3, [r7, #4]
 800034e:	8b9b      	ldrh	r3, [r3, #28]
 8000350:	4619      	mov	r1, r3
 8000352:	4610      	mov	r0, r2
 8000354:	f000 fe7a 	bl	800104c <HAL_GPIO_ReadPin>
 8000358:	4603      	mov	r3, r0
 800035a:	2b01      	cmp	r3, #1
 800035c:	bf0c      	ite	eq
 800035e:	2301      	moveq	r3, #1
 8000360:	2300      	movne	r3, #0
 8000362:	b2db      	uxtb	r3, r3
 8000364:	2b00      	cmp	r3, #0
 8000366:	d000      	beq.n	800036a <_ZN5Motor4openEh+0xb2>
 8000368:	e7ee      	b.n	8000348 <_ZN5Motor4openEh+0x90>
		status = Status::OPEN;
 800036a:	687b      	ldr	r3, [r7, #4]
 800036c:	2200      	movs	r2, #0
 800036e:	629a      	str	r2, [r3, #40]	; 0x28
 8000370:	e007      	b.n	8000382 <_ZN5Motor4openEh+0xca>
	}
	else{
		HAL_Delay(secs * 1000);
 8000372:	78fb      	ldrb	r3, [r7, #3]
 8000374:	f44f 727a 	mov.w	r2, #1000	; 0x3e8
 8000378:	fb02 f303 	mul.w	r3, r2, r3
 800037c:	4618      	mov	r0, r3
 800037e:	f000 fce7 	bl	8000d50 <HAL_Delay>
	}
	stop();
 8000382:	6878      	ldr	r0, [r7, #4]
 8000384:	f7ff ff5d 	bl	8000242 <_ZN5Motor4stopEv>
}
 8000388:	bf00      	nop
 800038a:	3708      	adds	r7, #8
 800038c:	46bd      	mov	sp, r7
 800038e:	bd80      	pop	{r7, pc}

08000390 <_ZN5Motor5closeEh>:

void Motor::close(uint8_t secs){
 8000390:	b580      	push	{r7, lr}
 8000392:	b082      	sub	sp, #8
 8000394:	af00      	add	r7, sp, #0
 8000396:	6078      	str	r0, [r7, #4]
 8000398:	460b      	mov	r3, r1
 800039a:	70fb      	strb	r3, [r7, #3]
	HAL_GPIO_WritePin(GPIO_PORT_IN1, PIN_IN1, GPIO_PIN_RESET);
 800039c:	687b      	ldr	r3, [r7, #4]
 800039e:	6818      	ldr	r0, [r3, #0]
 80003a0:	687b      	ldr	r3, [r7, #4]
 80003a2:	889b      	ldrh	r3, [r3, #4]
 80003a4:	2200      	movs	r2, #0
 80003a6:	4619      	mov	r1, r3
 80003a8:	f000 fe56 	bl	8001058 <HAL_GPIO_WritePin>
	HAL_GPIO_WritePin(GPIO_PORT_IN2, PIN_IN2, GPIO_PIN_SET);
 80003ac:	687b      	ldr	r3, [r7, #4]
 80003ae:	6898      	ldr	r0, [r3, #8]
 80003b0:	687b      	ldr	r3, [r7, #4]
 80003b2:	899b      	ldrh	r3, [r3, #12]
 80003b4:	2201      	movs	r2, #1
 80003b6:	4619      	mov	r1, r3
 80003b8:	f000 fe4e 	bl	8001058 <HAL_GPIO_WritePin>
	__HAL_TIM_SET_COMPARE(TIM_NR_EN, TIM_CHANNEL_EN, 999);
 80003bc:	687b      	ldr	r3, [r7, #4]
 80003be:	8a9b      	ldrh	r3, [r3, #20]
 80003c0:	2b00      	cmp	r3, #0
 80003c2:	d106      	bne.n	80003d2 <_ZN5Motor5closeEh+0x42>
 80003c4:	687b      	ldr	r3, [r7, #4]
 80003c6:	691b      	ldr	r3, [r3, #16]
 80003c8:	681b      	ldr	r3, [r3, #0]
 80003ca:	f240 32e7 	movw	r2, #999	; 0x3e7
 80003ce:	635a      	str	r2, [r3, #52]	; 0x34
 80003d0:	e01b      	b.n	800040a <_ZN5Motor5closeEh+0x7a>
 80003d2:	687b      	ldr	r3, [r7, #4]
 80003d4:	8a9b      	ldrh	r3, [r3, #20]
 80003d6:	2b04      	cmp	r3, #4
 80003d8:	d106      	bne.n	80003e8 <_ZN5Motor5closeEh+0x58>
 80003da:	687b      	ldr	r3, [r7, #4]
 80003dc:	691b      	ldr	r3, [r3, #16]
 80003de:	681b      	ldr	r3, [r3, #0]
 80003e0:	f240 32e7 	movw	r2, #999	; 0x3e7
 80003e4:	639a      	str	r2, [r3, #56]	; 0x38
 80003e6:	e010      	b.n	800040a <_ZN5Motor5closeEh+0x7a>
 80003e8:	687b      	ldr	r3, [r7, #4]
 80003ea:	8a9b      	ldrh	r3, [r3, #20]
 80003ec:	2b08      	cmp	r3, #8
 80003ee:	d106      	bne.n	80003fe <_ZN5Motor5closeEh+0x6e>
 80003f0:	687b      	ldr	r3, [r7, #4]
 80003f2:	691b      	ldr	r3, [r3, #16]
 80003f4:	681b      	ldr	r3, [r3, #0]
 80003f6:	f240 32e7 	movw	r2, #999	; 0x3e7
 80003fa:	63da      	str	r2, [r3, #60]	; 0x3c
 80003fc:	e005      	b.n	800040a <_ZN5Motor5closeEh+0x7a>
 80003fe:	687b      	ldr	r3, [r7, #4]
 8000400:	691b      	ldr	r3, [r3, #16]
 8000402:	681b      	ldr	r3, [r3, #0]
 8000404:	f240 32e7 	movw	r2, #999	; 0x3e7
 8000408:	641a      	str	r2, [r3, #64]	; 0x40
	status = Status::IDK;
 800040a:	687b      	ldr	r3, [r7, #4]
 800040c:	2202      	movs	r2, #2
 800040e:	629a      	str	r2, [r3, #40]	; 0x28
	if(GPIO_PORT_LS_CLOSE != nullptr && GPIO_PORT_LS_OPEN != nullptr){
 8000410:	687b      	ldr	r3, [r7, #4]
 8000412:	6a1b      	ldr	r3, [r3, #32]
 8000414:	2b00      	cmp	r3, #0
 8000416:	d018      	beq.n	800044a <_ZN5Motor5closeEh+0xba>
 8000418:	687b      	ldr	r3, [r7, #4]
 800041a:	699b      	ldr	r3, [r3, #24]
 800041c:	2b00      	cmp	r3, #0
 800041e:	d014      	beq.n	800044a <_ZN5Motor5closeEh+0xba>
		while(HAL_GPIO_ReadPin(GPIO_PORT_LS_CLOSE, PIN_LS_CLOSE) == GPIO_PIN_SET);
 8000420:	687b      	ldr	r3, [r7, #4]
 8000422:	6a1a      	ldr	r2, [r3, #32]
 8000424:	687b      	ldr	r3, [r7, #4]
 8000426:	8c9b      	ldrh	r3, [r3, #36]	; 0x24
 8000428:	4619      	mov	r1, r3
 800042a:	4610      	mov	r0, r2
 800042c:	f000 fe0e 	bl	800104c <HAL_GPIO_ReadPin>
 8000430:	4603      	mov	r3, r0
 8000432:	2b01      	cmp	r3, #1
 8000434:	bf0c      	ite	eq
 8000436:	2301      	moveq	r3, #1
 8000438:	2300      	movne	r3, #0
 800043a:	b2db      	uxtb	r3, r3
 800043c:	2b00      	cmp	r3, #0
 800043e:	d000      	beq.n	8000442 <_ZN5Motor5closeEh+0xb2>
 8000440:	e7ee      	b.n	8000420 <_ZN5Motor5closeEh+0x90>
		status = Status::CLOSE;
 8000442:	687b      	ldr	r3, [r7, #4]
 8000444:	2201      	movs	r2, #1
 8000446:	629a      	str	r2, [r3, #40]	; 0x28
 8000448:	e007      	b.n	800045a <_ZN5Motor5closeEh+0xca>
	}
	else{
		HAL_Delay(secs * 1000);
 800044a:	78fb      	ldrb	r3, [r7, #3]
 800044c:	f44f 727a 	mov.w	r2, #1000	; 0x3e8
 8000450:	fb02 f303 	mul.w	r3, r2, r3
 8000454:	4618      	mov	r0, r3
 8000456:	f000 fc7b 	bl	8000d50 <HAL_Delay>
	}
	stop();
 800045a:	6878      	ldr	r0, [r7, #4]
 800045c:	f7ff fef1 	bl	8000242 <_ZN5Motor4stopEv>
}
 8000460:	bf00      	nop
 8000462:	3708      	adds	r7, #8
 8000464:	46bd      	mov	sp, r7
 8000466:	bd80      	pop	{r7, pc}

08000468 <_ZN5Motor15test_open_closeEv>:

void Motor::test_open_close(){
 8000468:	b580      	push	{r7, lr}
 800046a:	b082      	sub	sp, #8
 800046c:	af00      	add	r7, sp, #0
 800046e:	6078      	str	r0, [r7, #4]
	open();
 8000470:	2105      	movs	r1, #5
 8000472:	6878      	ldr	r0, [r7, #4]
 8000474:	f7ff ff20 	bl	80002b8 <_ZN5Motor4openEh>
	HAL_Delay(100);
 8000478:	2064      	movs	r0, #100	; 0x64
 800047a:	f000 fc69 	bl	8000d50 <HAL_Delay>
	close();
 800047e:	2105      	movs	r1, #5
 8000480:	6878      	ldr	r0, [r7, #4]
 8000482:	f7ff ff85 	bl	8000390 <_ZN5Motor5closeEh>
	HAL_Delay(100);
 8000486:	2064      	movs	r0, #100	; 0x64
 8000488:	f000 fc62 	bl	8000d50 <HAL_Delay>
	open();
 800048c:	2105      	movs	r1, #5
 800048e:	6878      	ldr	r0, [r7, #4]
 8000490:	f7ff ff12 	bl	80002b8 <_ZN5Motor4openEh>
	HAL_Delay(100);
 8000494:	2064      	movs	r0, #100	; 0x64
 8000496:	f000 fc5b 	bl	8000d50 <HAL_Delay>
	close();
 800049a:	2105      	movs	r1, #5
 800049c:	6878      	ldr	r0, [r7, #4]
 800049e:	f7ff ff77 	bl	8000390 <_ZN5Motor5closeEh>
	stop();
 80004a2:	6878      	ldr	r0, [r7, #4]
 80004a4:	f7ff fecd 	bl	8000242 <_ZN5Motor4stopEv>
}
 80004a8:	bf00      	nop
 80004aa:	3708      	adds	r7, #8
 80004ac:	46bd      	mov	sp, r7
 80004ae:	bd80      	pop	{r7, pc}

080004b0 <MX_GPIO_Init>:
        * Output
        * EVENT_OUT
        * EXTI
*/
void MX_GPIO_Init(void)
{
 80004b0:	e92d 43f0 	stmdb	sp!, {r4, r5, r6, r7, r8, r9, lr}
 80004b4:	b089      	sub	sp, #36	; 0x24

  GPIO_InitTypeDef GPIO_InitStruct = {0};
 80004b6:	2400      	movs	r4, #0
 80004b8:	9404      	str	r4, [sp, #16]
 80004ba:	9405      	str	r4, [sp, #20]
 80004bc:	9406      	str	r4, [sp, #24]
 80004be:	9407      	str	r4, [sp, #28]

  /* GPIO Ports Clock Enable */
  __HAL_RCC_GPIOC_CLK_ENABLE();
 80004c0:	4b3c      	ldr	r3, [pc, #240]	; (80005b4 <MX_GPIO_Init+0x104>)
 80004c2:	699a      	ldr	r2, [r3, #24]
 80004c4:	f042 0210 	orr.w	r2, r2, #16
 80004c8:	619a      	str	r2, [r3, #24]
 80004ca:	699a      	ldr	r2, [r3, #24]
 80004cc:	f002 0210 	and.w	r2, r2, #16
 80004d0:	9200      	str	r2, [sp, #0]
 80004d2:	9a00      	ldr	r2, [sp, #0]
  __HAL_RCC_GPIOD_CLK_ENABLE();
 80004d4:	699a      	ldr	r2, [r3, #24]
 80004d6:	f042 0220 	orr.w	r2, r2, #32
 80004da:	619a      	str	r2, [r3, #24]
 80004dc:	699a      	ldr	r2, [r3, #24]
 80004de:	f002 0220 	and.w	r2, r2, #32
 80004e2:	9201      	str	r2, [sp, #4]
 80004e4:	9a01      	ldr	r2, [sp, #4]
  __HAL_RCC_GPIOA_CLK_ENABLE();
 80004e6:	699a      	ldr	r2, [r3, #24]
 80004e8:	f042 0204 	orr.w	r2, r2, #4
 80004ec:	619a      	str	r2, [r3, #24]
 80004ee:	699a      	ldr	r2, [r3, #24]
 80004f0:	f002 0204 	and.w	r2, r2, #4
 80004f4:	9202      	str	r2, [sp, #8]
 80004f6:	9a02      	ldr	r2, [sp, #8]
  __HAL_RCC_GPIOB_CLK_ENABLE();
 80004f8:	699a      	ldr	r2, [r3, #24]
 80004fa:	f042 0208 	orr.w	r2, r2, #8
 80004fe:	619a      	str	r2, [r3, #24]
 8000500:	699b      	ldr	r3, [r3, #24]
 8000502:	f003 0308 	and.w	r3, r3, #8
 8000506:	9303      	str	r3, [sp, #12]
 8000508:	9b03      	ldr	r3, [sp, #12]

  /*Configure GPIO pin Output Level */
  HAL_GPIO_WritePin(BUILD_IN_LED_GPIO_Port, BUILD_IN_LED_Pin, GPIO_PIN_RESET);
 800050a:	f8df 90b0 	ldr.w	r9, [pc, #176]	; 80005bc <MX_GPIO_Init+0x10c>
 800050e:	4622      	mov	r2, r4
 8000510:	f44f 5100 	mov.w	r1, #8192	; 0x2000
 8000514:	4648      	mov	r0, r9
 8000516:	f000 fd9f 	bl	8001058 <HAL_GPIO_WritePin>

  /*Configure GPIO pin Output Level */
  HAL_GPIO_WritePin(GPIOA, PQD_D1_Pin|PQD_D2_Pin|IGN_FIRE_Pin, GPIO_PIN_RESET);
 800051a:	f8df 80a4 	ldr.w	r8, [pc, #164]	; 80005c0 <MX_GPIO_Init+0x110>
 800051e:	4622      	mov	r2, r4
 8000520:	f44f 6198 	mov.w	r1, #1216	; 0x4c0
 8000524:	4640      	mov	r0, r8
 8000526:	f000 fd97 	bl	8001058 <HAL_GPIO_WritePin>

  /*Configure GPIO pin Output Level */
  HAL_GPIO_WritePin(GPIOB, HX1_SCL_Pin|QD_D2_Pin|QD_D1_Pin|DEPR_CLOSE_Pin
 800052a:	4d23      	ldr	r5, [pc, #140]	; (80005b8 <MX_GPIO_Init+0x108>)
 800052c:	4622      	mov	r2, r4
 800052e:	f24e 21d0 	movw	r1, #58064	; 0xe2d0
 8000532:	4628      	mov	r0, r5
 8000534:	f000 fd90 	bl	8001058 <HAL_GPIO_WritePin>
                          |DEPR_OPEN_Pin|FILL_CLOSE_Pin|FILL_OPEN_Pin, GPIO_PIN_RESET);

  /*Configure GPIO pin : PtPin */
  GPIO_InitStruct.Pin = BUILD_IN_LED_Pin;
 8000538:	f44f 5300 	mov.w	r3, #8192	; 0x2000
 800053c:	9304      	str	r3, [sp, #16]
  GPIO_InitStruct.Mode = GPIO_MODE_OUTPUT_PP;
 800053e:	2701      	movs	r7, #1
 8000540:	9705      	str	r7, [sp, #20]
  GPIO_InitStruct.Pull = GPIO_NOPULL;
 8000542:	9406      	str	r4, [sp, #24]
  GPIO_InitStruct.Speed = GPIO_SPEED_FREQ_LOW;
 8000544:	2602      	movs	r6, #2
 8000546:	9607      	str	r6, [sp, #28]
  HAL_GPIO_Init(BUILD_IN_LED_GPIO_Port, &GPIO_InitStruct);
 8000548:	a904      	add	r1, sp, #16
 800054a:	4648      	mov	r0, r9
 800054c:	f000 fc6e 	bl	8000e2c <HAL_GPIO_Init>

  /*Configure GPIO pin : PtPin */
  GPIO_InitStruct.Pin = IGN_TEST_CON_Pin;
 8000550:	f44f 4300 	mov.w	r3, #32768	; 0x8000
 8000554:	9304      	str	r3, [sp, #16]
  GPIO_InitStruct.Mode = GPIO_MODE_INPUT;
 8000556:	9405      	str	r4, [sp, #20]
  GPIO_InitStruct.Pull = GPIO_NOPULL;
 8000558:	9406      	str	r4, [sp, #24]
  HAL_GPIO_Init(IGN_TEST_CON_GPIO_Port, &GPIO_InitStruct);
 800055a:	a904      	add	r1, sp, #16
 800055c:	4648      	mov	r0, r9
 800055e:	f000 fc65 	bl	8000e2c <HAL_GPIO_Init>

  /*Configure GPIO pins : PAPin PAPin PAPin PAPin
                           PAPin */
  GPIO_InitStruct.Pin = HX2_SDA_Pin|HX2_SCL_Pin|DEPR_C_LIMIT_SW_Pin|DEPR_O_LIMIT_SW_Pin
 8000562:	f248 3330 	movw	r3, #33584	; 0x8330
 8000566:	9304      	str	r3, [sp, #16]
                          |FILL_C_LIMIT_SW_Pin;
  GPIO_InitStruct.Mode = GPIO_MODE_INPUT;
 8000568:	9405      	str	r4, [sp, #20]
  GPIO_InitStruct.Pull = GPIO_NOPULL;
 800056a:	9406      	str	r4, [sp, #24]
  HAL_GPIO_Init(GPIOA, &GPIO_InitStruct);
 800056c:	a904      	add	r1, sp, #16
 800056e:	4640      	mov	r0, r8
 8000570:	f000 fc5c 	bl	8000e2c <HAL_GPIO_Init>

  /*Configure GPIO pins : PAPin PAPin PAPin */
  GPIO_InitStruct.Pin = PQD_D1_Pin|PQD_D2_Pin|IGN_FIRE_Pin;
 8000574:	f44f 6398 	mov.w	r3, #1216	; 0x4c0
 8000578:	9304      	str	r3, [sp, #16]
  GPIO_InitStruct.Mode = GPIO_MODE_OUTPUT_PP;
 800057a:	9705      	str	r7, [sp, #20]
  GPIO_InitStruct.Pull = GPIO_NOPULL;
 800057c:	9406      	str	r4, [sp, #24]
  GPIO_InitStruct.Speed = GPIO_SPEED_FREQ_LOW;
 800057e:	9607      	str	r6, [sp, #28]
  HAL_GPIO_Init(GPIOA, &GPIO_InitStruct);
 8000580:	a904      	add	r1, sp, #16
 8000582:	4640      	mov	r0, r8
 8000584:	f000 fc52 	bl	8000e2c <HAL_GPIO_Init>

  /*Configure GPIO pins : PBPin PBPin */
  GPIO_InitStruct.Pin = HX1_SDA_Pin|FILL_O_LIMIT_SW_Pin;
 8000588:	f241 0308 	movw	r3, #4104	; 0x1008
 800058c:	9304      	str	r3, [sp, #16]
  GPIO_InitStruct.Mode = GPIO_MODE_INPUT;
 800058e:	9405      	str	r4, [sp, #20]
  GPIO_InitStruct.Pull = GPIO_NOPULL;
 8000590:	9406      	str	r4, [sp, #24]
  HAL_GPIO_Init(GPIOB, &GPIO_InitStruct);
 8000592:	a904      	add	r1, sp, #16
 8000594:	4628      	mov	r0, r5
 8000596:	f000 fc49 	bl	8000e2c <HAL_GPIO_Init>

  /*Configure GPIO pins : PBPin PBPin PBPin PBPin
                           PBPin PBPin PBPin */
  GPIO_InitStruct.Pin = HX1_SCL_Pin|QD_D2_Pin|QD_D1_Pin|DEPR_CLOSE_Pin
 800059a:	f24e 23d0 	movw	r3, #58064	; 0xe2d0
 800059e:	9304      	str	r3, [sp, #16]
                          |DEPR_OPEN_Pin|FILL_CLOSE_Pin|FILL_OPEN_Pin;
  GPIO_InitStruct.Mode = GPIO_MODE_OUTPUT_PP;
 80005a0:	9705      	str	r7, [sp, #20]
  GPIO_InitStruct.Pull = GPIO_NOPULL;
 80005a2:	9406      	str	r4, [sp, #24]
  GPIO_InitStruct.Speed = GPIO_SPEED_FREQ_LOW;
 80005a4:	9607      	str	r6, [sp, #28]
  HAL_GPIO_Init(GPIOB, &GPIO_InitStruct);
 80005a6:	a904      	add	r1, sp, #16
 80005a8:	4628      	mov	r0, r5
 80005aa:	f000 fc3f 	bl	8000e2c <HAL_GPIO_Init>

}
 80005ae:	b009      	add	sp, #36	; 0x24
 80005b0:	e8bd 83f0 	ldmia.w	sp!, {r4, r5, r6, r7, r8, r9, pc}
 80005b4:	40021000 	.word	0x40021000
 80005b8:	40010c00 	.word	0x40010c00
 80005bc:	40011000 	.word	0x40011000
 80005c0:	40010800 	.word	0x40010800

080005c4 <main>:
/**
  * @brief  The application entry point.
  * @retval int
  */
int main(void)
{
 80005c4:	b580      	push	{r7, lr}
 80005c6:	b0a2      	sub	sp, #136	; 0x88
 80005c8:	af08      	add	r7, sp, #32
  /* USER CODE END 1 */

  /* MCU Configuration--------------------------------------------------------*/

  /* Reset of all peripherals, Initializes the Flash interface and the Systick. */
  HAL_Init();
 80005ca:	f000 fb9d 	bl	8000d08 <HAL_Init>
  /* USER CODE BEGIN Init */

  /* USER CODE END Init */

  /* Configure the system clock */
  SystemClock_Config();
 80005ce:	f000 f8ff 	bl	80007d0 <_Z18SystemClock_Configv>
  /* USER CODE BEGIN SysInit */

  /* USER CODE END SysInit */

  /* Initialize all configured peripherals */
  MX_GPIO_Init();
 80005d2:	f7ff ff6d 	bl	80004b0 <MX_GPIO_Init>
  MX_USART2_UART_Init();
 80005d6:	f000 faab 	bl	8000b30 <MX_USART2_UART_Init>
  MX_TIM3_Init();
 80005da:	f000 fa0d 	bl	80009f8 <MX_TIM3_Init>
  MX_TIM4_Init();
 80005de:	f000 fa63 	bl	8000aa8 <MX_TIM4_Init>
  MX_USART3_UART_Init();
 80005e2:	f000 fabf 	bl	8000b64 <MX_USART3_UART_Init>

  /* USER CODE END 2 */

  /* Infinite loop */
  /* USER CODE BEGIN WHILE */
  HAL_Delay(1000);
 80005e6:	f44f 707a 	mov.w	r0, #1000	; 0x3e8
 80005ea:	f000 fbb1 	bl	8000d50 <HAL_Delay>

   // char* buff;
    //memset(buff ,0,sizeof(buff));
    // HAL_TIM_Base_Start_IT(&htim2);
    __HAL_UART_ENABLE_IT(&huart2, UART_IT_RXNE);
 80005ee:	4b6b      	ldr	r3, [pc, #428]	; (800079c <main+0x1d8>)
 80005f0:	681b      	ldr	r3, [r3, #0]
 80005f2:	68da      	ldr	r2, [r3, #12]
 80005f4:	4b69      	ldr	r3, [pc, #420]	; (800079c <main+0x1d8>)
 80005f6:	681b      	ldr	r3, [r3, #0]
 80005f8:	f042 0220 	orr.w	r2, r2, #32
 80005fc:	60da      	str	r2, [r3, #12]
    /* USER CODE END 2 */

    /* USER CODE BEGIN WHILE */

    // INIT
    Igniter igniter(IGN_FIRE_GPIO_Port, IGN_FIRE_Pin, IGN_TEST_CON_GPIO_Port, IGN_TEST_CON_Pin);
 80005fe:	f107 0058 	add.w	r0, r7, #88	; 0x58
 8000602:	f44f 4300 	mov.w	r3, #32768	; 0x8000
 8000606:	9300      	str	r3, [sp, #0]
 8000608:	4b65      	ldr	r3, [pc, #404]	; (80007a0 <main+0x1dc>)
 800060a:	f44f 6280 	mov.w	r2, #1024	; 0x400
 800060e:	4965      	ldr	r1, [pc, #404]	; (80007a4 <main+0x1e0>)
 8000610:	f7ff fd9c 	bl	800014c <_ZN7IgniterC1EP12GPIO_TypeDeftS1_t>
    Motor Fill(FILL_OPEN_GPIO_Port, FILL_OPEN_Pin, FILL_CLOSE_GPIO_Port, FILL_CLOSE_Pin, &htim4, TIM_CHANNEL_3, FILL_O_LIMIT_SW_GPIO_Port, FILL_O_LIMIT_SW_Pin, FILL_C_LIMIT_SW_GPIO_Port, FILL_C_LIMIT_SW_Pin);
 8000614:	f107 002c 	add.w	r0, r7, #44	; 0x2c
 8000618:	f44f 4300 	mov.w	r3, #32768	; 0x8000
 800061c:	9306      	str	r3, [sp, #24]
 800061e:	4b61      	ldr	r3, [pc, #388]	; (80007a4 <main+0x1e0>)
 8000620:	9305      	str	r3, [sp, #20]
 8000622:	2308      	movs	r3, #8
 8000624:	9304      	str	r3, [sp, #16]
 8000626:	4b60      	ldr	r3, [pc, #384]	; (80007a8 <main+0x1e4>)
 8000628:	9303      	str	r3, [sp, #12]
 800062a:	2308      	movs	r3, #8
 800062c:	9302      	str	r3, [sp, #8]
 800062e:	4b5f      	ldr	r3, [pc, #380]	; (80007ac <main+0x1e8>)
 8000630:	9301      	str	r3, [sp, #4]
 8000632:	2380      	movs	r3, #128	; 0x80
 8000634:	9300      	str	r3, [sp, #0]
 8000636:	4b5c      	ldr	r3, [pc, #368]	; (80007a8 <main+0x1e4>)
 8000638:	f44f 7200 	mov.w	r2, #512	; 0x200
 800063c:	495a      	ldr	r1, [pc, #360]	; (80007a8 <main+0x1e4>)
 800063e:	f7ff fdca 	bl	80001d6 <_ZN5MotorC1EP12GPIO_TypeDeftS1_tP17TIM_HandleTypeDeftS1_tS1_t>
    Motor QD(QD_D1_GPIO_Port, QD_D1_Pin, QD_D2_GPIO_Port, QD_D2_Pin, &htim3, TIM_CHANNEL_3, nullptr, 0, nullptr, 0);
 8000642:	4638      	mov	r0, r7
 8000644:	2300      	movs	r3, #0
 8000646:	9306      	str	r3, [sp, #24]
 8000648:	2300      	movs	r3, #0
 800064a:	9305      	str	r3, [sp, #20]
 800064c:	2300      	movs	r3, #0
 800064e:	9304      	str	r3, [sp, #16]
 8000650:	2300      	movs	r3, #0
 8000652:	9303      	str	r3, [sp, #12]
 8000654:	2308      	movs	r3, #8
 8000656:	9302      	str	r3, [sp, #8]
 8000658:	4b55      	ldr	r3, [pc, #340]	; (80007b0 <main+0x1ec>)
 800065a:	9301      	str	r3, [sp, #4]
 800065c:	f44f 4380 	mov.w	r3, #16384	; 0x4000
 8000660:	9300      	str	r3, [sp, #0]
 8000662:	4b51      	ldr	r3, [pc, #324]	; (80007a8 <main+0x1e4>)
 8000664:	f44f 4200 	mov.w	r2, #32768	; 0x8000
 8000668:	494f      	ldr	r1, [pc, #316]	; (80007a8 <main+0x1e4>)
 800066a:	f7ff fdb4 	bl	80001d6 <_ZN5MotorC1EP12GPIO_TypeDeftS1_tP17TIM_HandleTypeDeftS1_tS1_t>

    state = 0; //touch only for tests
 800066e:	4b51      	ldr	r3, [pc, #324]	; (80007b4 <main+0x1f0>)
 8000670:	2200      	movs	r2, #0
 8000672:	701a      	strb	r2, [r3, #0]
    while (1)
    {
  	  switch(state){
 8000674:	4b4f      	ldr	r3, [pc, #316]	; (80007b4 <main+0x1f0>)
 8000676:	781b      	ldrb	r3, [r3, #0]
 8000678:	2b06      	cmp	r3, #6
 800067a:	d8fb      	bhi.n	8000674 <main+0xb0>
 800067c:	a201      	add	r2, pc, #4	; (adr r2, 8000684 <main+0xc0>)
 800067e:	f852 f023 	ldr.w	pc, [r2, r3, lsl #2]
 8000682:	bf00      	nop
 8000684:	080006a1 	.word	0x080006a1
 8000688:	080006db 	.word	0x080006db
 800068c:	080006f3 	.word	0x080006f3
 8000690:	08000725 	.word	0x08000725
 8000694:	0800075f 	.word	0x0800075f
 8000698:	08000767 	.word	0x08000767
 800069c:	08000785 	.word	0x08000785
  		  case 0: //test state
  			  if(igniter.is_connected()){
 80006a0:	f107 0358 	add.w	r3, r7, #88	; 0x58
 80006a4:	4618      	mov	r0, r3
 80006a6:	f7ff fd6b 	bl	8000180 <_ZNK7Igniter12is_connectedEv>
 80006aa:	4603      	mov	r3, r0
 80006ac:	2b00      	cmp	r3, #0
 80006ae:	d004      	beq.n	80006ba <main+0xf6>
  				  HAL_GPIO_TogglePin(BUILD_IN_LED_GPIO_Port, BUILD_IN_LED_Pin);
 80006b0:	f44f 5100 	mov.w	r1, #8192	; 0x2000
 80006b4:	483a      	ldr	r0, [pc, #232]	; (80007a0 <main+0x1dc>)
 80006b6:	f000 fcd5 	bl	8001064 <HAL_GPIO_TogglePin>
  			  }

  			  //place for random tests
  			  //Fill.test_open_close();
  			  QD.test_open_close();
 80006ba:	463b      	mov	r3, r7
 80006bc:	4618      	mov	r0, r3
 80006be:	f7ff fed3 	bl	8000468 <_ZN5Motor15test_open_closeEv>
  			  HAL_Delay(1000);
 80006c2:	f44f 707a 	mov.w	r0, #1000	; 0x3e8
 80006c6:	f000 fb43 	bl	8000d50 <HAL_Delay>
  			  //state = 1;
  			  strcpy(data, "DINI");	//xd
 80006ca:	4b3b      	ldr	r3, [pc, #236]	; (80007b8 <main+0x1f4>)
 80006cc:	4a3b      	ldr	r2, [pc, #236]	; (80007bc <main+0x1f8>)
 80006ce:	e892 0003 	ldmia.w	r2, {r0, r1}
 80006d2:	6018      	str	r0, [r3, #0]
 80006d4:	3304      	adds	r3, #4
 80006d6:	7019      	strb	r1, [r3, #0]
  			  break;
 80006d8:	e05f      	b.n	800079a <main+0x1d6>
  		  case 1:	//IDLE
  			  if(strncmp(data, "DINI", 4) == 0){ // signal == init
 80006da:	2204      	movs	r2, #4
 80006dc:	4937      	ldr	r1, [pc, #220]	; (80007bc <main+0x1f8>)
 80006de:	4836      	ldr	r0, [pc, #216]	; (80007b8 <main+0x1f4>)
 80006e0:	f001 fb4c 	bl	8001d7c <strncmp>
 80006e4:	4603      	mov	r3, r0
 80006e6:	2b00      	cmp	r3, #0
 80006e8:	d150      	bne.n	800078c <main+0x1c8>
  				  //TODO: send ready
  				  state = 2;
 80006ea:	4b32      	ldr	r3, [pc, #200]	; (80007b4 <main+0x1f0>)
 80006ec:	2202      	movs	r2, #2
 80006ee:	701a      	strb	r2, [r3, #0]
  			  }
  			  break;
 80006f0:	e04c      	b.n	800078c <main+0x1c8>
  		  case 2:	//ARMED(hard) DABR
  			  if(igniter.is_connected() && strncmp(data, "DARM", 4) == 0){ // signal == arm
 80006f2:	f107 0358 	add.w	r3, r7, #88	; 0x58
 80006f6:	4618      	mov	r0, r3
 80006f8:	f7ff fd42 	bl	8000180 <_ZNK7Igniter12is_connectedEv>
 80006fc:	4603      	mov	r3, r0
 80006fe:	2b00      	cmp	r3, #0
 8000700:	d009      	beq.n	8000716 <main+0x152>
 8000702:	2204      	movs	r2, #4
 8000704:	492e      	ldr	r1, [pc, #184]	; (80007c0 <main+0x1fc>)
 8000706:	482c      	ldr	r0, [pc, #176]	; (80007b8 <main+0x1f4>)
 8000708:	f001 fb38 	bl	8001d7c <strncmp>
 800070c:	4603      	mov	r3, r0
 800070e:	2b00      	cmp	r3, #0
 8000710:	d101      	bne.n	8000716 <main+0x152>
 8000712:	2301      	movs	r3, #1
 8000714:	e000      	b.n	8000718 <main+0x154>
 8000716:	2300      	movs	r3, #0
 8000718:	2b00      	cmp	r3, #0
 800071a:	d039      	beq.n	8000790 <main+0x1cc>
  			  	  state = 3;
 800071c:	4b25      	ldr	r3, [pc, #148]	; (80007b4 <main+0x1f0>)
 800071e:	2203      	movs	r2, #3
 8000720:	701a      	strb	r2, [r3, #0]
  			  }
  			  break;
 8000722:	e035      	b.n	8000790 <main+0x1cc>
  		  case 3:	//ARMED(soft)
  			  	  if(strncmp (data, "DSTA", 4) == 0){	//signal == fire
 8000724:	2204      	movs	r2, #4
 8000726:	4927      	ldr	r1, [pc, #156]	; (80007c4 <main+0x200>)
 8000728:	4823      	ldr	r0, [pc, #140]	; (80007b8 <main+0x1f4>)
 800072a:	f001 fb27 	bl	8001d7c <strncmp>
 800072e:	4603      	mov	r3, r0
 8000730:	2b00      	cmp	r3, #0
 8000732:	d108      	bne.n	8000746 <main+0x182>
  			  		  igniter.FIRE();
 8000734:	f107 0358 	add.w	r3, r7, #88	; 0x58
 8000738:	4618      	mov	r0, r3
 800073a:	f7ff fd3c 	bl	80001b6 <_ZN7Igniter4FIREEv>
  			  		  state = 5;
 800073e:	4b1d      	ldr	r3, [pc, #116]	; (80007b4 <main+0x1f0>)
 8000740:	2205      	movs	r2, #5
 8000742:	701a      	strb	r2, [r3, #0]
  			  	  }
  			  	  else if(strncmp (data, "DABR", 4) == 0){	//signal == abort
  			  		  state = 4;
  			  	  }
  			  break;
 8000744:	e026      	b.n	8000794 <main+0x1d0>
  			  	  else if(strncmp (data, "DABR", 4) == 0){	//signal == abort
 8000746:	2204      	movs	r2, #4
 8000748:	491f      	ldr	r1, [pc, #124]	; (80007c8 <main+0x204>)
 800074a:	481b      	ldr	r0, [pc, #108]	; (80007b8 <main+0x1f4>)
 800074c:	f001 fb16 	bl	8001d7c <strncmp>
 8000750:	4603      	mov	r3, r0
 8000752:	2b00      	cmp	r3, #0
 8000754:	d11e      	bne.n	8000794 <main+0x1d0>
  			  		  state = 4;
 8000756:	4b17      	ldr	r3, [pc, #92]	; (80007b4 <main+0x1f0>)
 8000758:	2204      	movs	r2, #4
 800075a:	701a      	strb	r2, [r3, #0]
  			  break;
 800075c:	e01a      	b.n	8000794 <main+0x1d0>
  		  case 4:	//ABORT
  			  HAL_Delay(1000000);
 800075e:	481b      	ldr	r0, [pc, #108]	; (80007cc <main+0x208>)
 8000760:	f000 faf6 	bl	8000d50 <HAL_Delay>
  			  break;
 8000764:	e019      	b.n	800079a <main+0x1d6>
  		  case 5:	//FLIGHT
  			  //TODO: Send "fired" 	//n - times
  			 if( ! igniter.is_connected()){
 8000766:	f107 0358 	add.w	r3, r7, #88	; 0x58
 800076a:	4618      	mov	r0, r3
 800076c:	f7ff fd08 	bl	8000180 <_ZNK7Igniter12is_connectedEv>
 8000770:	4603      	mov	r3, r0
 8000772:	f083 0301 	eor.w	r3, r3, #1
 8000776:	b2db      	uxtb	r3, r3
 8000778:	2b00      	cmp	r3, #0
 800077a:	d00d      	beq.n	8000798 <main+0x1d4>
  				  state = 6;
 800077c:	4b0d      	ldr	r3, [pc, #52]	; (80007b4 <main+0x1f0>)
 800077e:	2206      	movs	r2, #6
 8000780:	701a      	strb	r2, [r3, #0]
  			  }
  			  break;
 8000782:	e009      	b.n	8000798 <main+0x1d4>
  		  case 6:	//END
  			  HAL_Delay(1000000);
 8000784:	4811      	ldr	r0, [pc, #68]	; (80007cc <main+0x208>)
 8000786:	f000 fae3 	bl	8000d50 <HAL_Delay>
  			  break;
 800078a:	e006      	b.n	800079a <main+0x1d6>
  			  break;
 800078c:	bf00      	nop
 800078e:	e771      	b.n	8000674 <main+0xb0>
  			  break;
 8000790:	bf00      	nop
 8000792:	e76f      	b.n	8000674 <main+0xb0>
  			  break;
 8000794:	bf00      	nop
 8000796:	e76d      	b.n	8000674 <main+0xb0>
  			  break;
 8000798:	bf00      	nop
  	  switch(state){
 800079a:	e76b      	b.n	8000674 <main+0xb0>
 800079c:	20000124 	.word	0x20000124
 80007a0:	40011000 	.word	0x40011000
 80007a4:	40010800 	.word	0x40010800
 80007a8:	40010c00 	.word	0x40010c00
 80007ac:	20000054 	.word	0x20000054
 80007b0:	2000009c 	.word	0x2000009c
 80007b4:	20000028 	.word	0x20000028
 80007b8:	2000002c 	.word	0x2000002c
 80007bc:	08001db8 	.word	0x08001db8
 80007c0:	08001dc0 	.word	0x08001dc0
 80007c4:	08001dc8 	.word	0x08001dc8
 80007c8:	08001dd0 	.word	0x08001dd0
 80007cc:	000f4240 	.word	0x000f4240

080007d0 <_Z18SystemClock_Configv>:
/**
  * @brief System Clock Configuration
  * @retval None
  */
void SystemClock_Config(void)
{
 80007d0:	b580      	push	{r7, lr}
 80007d2:	b094      	sub	sp, #80	; 0x50
 80007d4:	af00      	add	r7, sp, #0
  RCC_OscInitTypeDef RCC_OscInitStruct = {0};
 80007d6:	f107 0328 	add.w	r3, r7, #40	; 0x28
 80007da:	2228      	movs	r2, #40	; 0x28
 80007dc:	2100      	movs	r1, #0
 80007de:	4618      	mov	r0, r3
 80007e0:	f001 fac4 	bl	8001d6c <memset>
  RCC_ClkInitTypeDef RCC_ClkInitStruct = {0};
 80007e4:	f107 0314 	add.w	r3, r7, #20
 80007e8:	2200      	movs	r2, #0
 80007ea:	601a      	str	r2, [r3, #0]
 80007ec:	605a      	str	r2, [r3, #4]
 80007ee:	609a      	str	r2, [r3, #8]
 80007f0:	60da      	str	r2, [r3, #12]
 80007f2:	611a      	str	r2, [r3, #16]
  RCC_PeriphCLKInitTypeDef PeriphClkInit = {0};
 80007f4:	1d3b      	adds	r3, r7, #4
 80007f6:	2200      	movs	r2, #0
 80007f8:	601a      	str	r2, [r3, #0]
 80007fa:	605a      	str	r2, [r3, #4]
 80007fc:	609a      	str	r2, [r3, #8]
 80007fe:	60da      	str	r2, [r3, #12]

  /** Initializes the RCC Oscillators according to the specified parameters
  * in the RCC_OscInitTypeDef structure.
  */
  RCC_OscInitStruct.OscillatorType = RCC_OSCILLATORTYPE_HSE;
 8000800:	2301      	movs	r3, #1
 8000802:	62bb      	str	r3, [r7, #40]	; 0x28
  RCC_OscInitStruct.HSEState = RCC_HSE_ON;
 8000804:	f44f 3380 	mov.w	r3, #65536	; 0x10000
 8000808:	62fb      	str	r3, [r7, #44]	; 0x2c
  RCC_OscInitStruct.HSEPredivValue = RCC_HSE_PREDIV_DIV1;
 800080a:	2300      	movs	r3, #0
 800080c:	633b      	str	r3, [r7, #48]	; 0x30
  RCC_OscInitStruct.HSIState = RCC_HSI_ON;
 800080e:	2301      	movs	r3, #1
 8000810:	63bb      	str	r3, [r7, #56]	; 0x38
  RCC_OscInitStruct.PLL.PLLState = RCC_PLL_ON;
 8000812:	2302      	movs	r3, #2
 8000814:	647b      	str	r3, [r7, #68]	; 0x44
  RCC_OscInitStruct.PLL.PLLSource = RCC_PLLSOURCE_HSE;
 8000816:	f44f 3380 	mov.w	r3, #65536	; 0x10000
 800081a:	64bb      	str	r3, [r7, #72]	; 0x48
  RCC_OscInitStruct.PLL.PLLMUL = RCC_PLL_MUL6;
 800081c:	f44f 1380 	mov.w	r3, #1048576	; 0x100000
 8000820:	64fb      	str	r3, [r7, #76]	; 0x4c
  if (HAL_RCC_OscConfig(&RCC_OscInitStruct) != HAL_OK)
 8000822:	f107 0328 	add.w	r3, r7, #40	; 0x28
 8000826:	4618      	mov	r0, r3
 8000828:	f000 fc26 	bl	8001078 <HAL_RCC_OscConfig>
 800082c:	4603      	mov	r3, r0
 800082e:	2b00      	cmp	r3, #0
 8000830:	bf14      	ite	ne
 8000832:	2301      	movne	r3, #1
 8000834:	2300      	moveq	r3, #0
 8000836:	b2db      	uxtb	r3, r3
 8000838:	2b00      	cmp	r3, #0
 800083a:	d001      	beq.n	8000840 <_Z18SystemClock_Configv+0x70>
  {
    Error_Handler();
 800083c:	f000 f833 	bl	80008a6 <Error_Handler>
  }
  /** Initializes the CPU, AHB and APB buses clocks
  */
  RCC_ClkInitStruct.ClockType = RCC_CLOCKTYPE_HCLK|RCC_CLOCKTYPE_SYSCLK
 8000840:	230f      	movs	r3, #15
 8000842:	617b      	str	r3, [r7, #20]
                              |RCC_CLOCKTYPE_PCLK1|RCC_CLOCKTYPE_PCLK2;
  RCC_ClkInitStruct.SYSCLKSource = RCC_SYSCLKSOURCE_PLLCLK;
 8000844:	2302      	movs	r3, #2
 8000846:	61bb      	str	r3, [r7, #24]
  RCC_ClkInitStruct.AHBCLKDivider = RCC_SYSCLK_DIV1;
 8000848:	2300      	movs	r3, #0
 800084a:	61fb      	str	r3, [r7, #28]
  RCC_ClkInitStruct.APB1CLKDivider = RCC_HCLK_DIV2;
 800084c:	f44f 6380 	mov.w	r3, #1024	; 0x400
 8000850:	623b      	str	r3, [r7, #32]
  RCC_ClkInitStruct.APB2CLKDivider = RCC_HCLK_DIV2;
 8000852:	f44f 6380 	mov.w	r3, #1024	; 0x400
 8000856:	627b      	str	r3, [r7, #36]	; 0x24

  if (HAL_RCC_ClockConfig(&RCC_ClkInitStruct, FLASH_LATENCY_1) != HAL_OK)
 8000858:	f107 0314 	add.w	r3, r7, #20
 800085c:	2101      	movs	r1, #1
 800085e:	4618      	mov	r0, r3
 8000860:	f000 fe56 	bl	8001510 <HAL_RCC_ClockConfig>
 8000864:	4603      	mov	r3, r0
 8000866:	2b00      	cmp	r3, #0
 8000868:	bf14      	ite	ne
 800086a:	2301      	movne	r3, #1
 800086c:	2300      	moveq	r3, #0
 800086e:	b2db      	uxtb	r3, r3
 8000870:	2b00      	cmp	r3, #0
 8000872:	d001      	beq.n	8000878 <_Z18SystemClock_Configv+0xa8>
  {
    Error_Handler();
 8000874:	f000 f817 	bl	80008a6 <Error_Handler>
  }
  PeriphClkInit.PeriphClockSelection = RCC_PERIPHCLK_USB;
 8000878:	2310      	movs	r3, #16
 800087a:	607b      	str	r3, [r7, #4]
  PeriphClkInit.UsbClockSelection = RCC_USBCLKSOURCE_PLL;
 800087c:	f44f 0380 	mov.w	r3, #4194304	; 0x400000
 8000880:	613b      	str	r3, [r7, #16]
  if (HAL_RCCEx_PeriphCLKConfig(&PeriphClkInit) != HAL_OK)
 8000882:	1d3b      	adds	r3, r7, #4
 8000884:	4618      	mov	r0, r3
 8000886:	f000 ff1b 	bl	80016c0 <HAL_RCCEx_PeriphCLKConfig>
 800088a:	4603      	mov	r3, r0
 800088c:	2b00      	cmp	r3, #0
 800088e:	bf14      	ite	ne
 8000890:	2301      	movne	r3, #1
 8000892:	2300      	moveq	r3, #0
 8000894:	b2db      	uxtb	r3, r3
 8000896:	2b00      	cmp	r3, #0
 8000898:	d001      	beq.n	800089e <_Z18SystemClock_Configv+0xce>
  {
    Error_Handler();
 800089a:	f000 f804 	bl	80008a6 <Error_Handler>
  }
}
 800089e:	bf00      	nop
 80008a0:	3750      	adds	r7, #80	; 0x50
 80008a2:	46bd      	mov	sp, r7
 80008a4:	bd80      	pop	{r7, pc}

080008a6 <Error_Handler>:
/**
  * @brief  This function is executed in case of error occurrence.
  * @retval None
  */
void Error_Handler(void)
{
 80008a6:	b480      	push	{r7}
 80008a8:	af00      	add	r7, sp, #0
  \details Disables IRQ interrupts by setting the I-bit in the CPSR.
           Can only be executed in Privileged modes.
 */
__STATIC_FORCEINLINE void __disable_irq(void)
{
  __ASM volatile ("cpsid i" : : : "memory");
 80008aa:	b672      	cpsid	i
}
 80008ac:	bf00      	nop
  /* USER CODE BEGIN Error_Handler_Debug */
  /* User can add his own implementation to report the HAL error return state */
  __disable_irq();
  while (1)
 80008ae:	e7fe      	b.n	80008ae <Error_Handler+0x8>

080008b0 <HAL_MspInit>:
/* USER CODE END 0 */
/**
  * Initializes the Global MSP.
  */
void HAL_MspInit(void)
{
 80008b0:	b082      	sub	sp, #8
  /* USER CODE BEGIN MspInit 0 */

  /* USER CODE END MspInit 0 */

  __HAL_RCC_AFIO_CLK_ENABLE();
 80008b2:	4b0e      	ldr	r3, [pc, #56]	; (80008ec <HAL_MspInit+0x3c>)
 80008b4:	699a      	ldr	r2, [r3, #24]
 80008b6:	f042 0201 	orr.w	r2, r2, #1
 80008ba:	619a      	str	r2, [r3, #24]
 80008bc:	699a      	ldr	r2, [r3, #24]
 80008be:	f002 0201 	and.w	r2, r2, #1
 80008c2:	9200      	str	r2, [sp, #0]
 80008c4:	9a00      	ldr	r2, [sp, #0]
  __HAL_RCC_PWR_CLK_ENABLE();
 80008c6:	69da      	ldr	r2, [r3, #28]
 80008c8:	f042 5280 	orr.w	r2, r2, #268435456	; 0x10000000
 80008cc:	61da      	str	r2, [r3, #28]
 80008ce:	69db      	ldr	r3, [r3, #28]
 80008d0:	f003 5380 	and.w	r3, r3, #268435456	; 0x10000000
 80008d4:	9301      	str	r3, [sp, #4]
 80008d6:	9b01      	ldr	r3, [sp, #4]

  /* System interrupt init*/

  /** NOJTAG: JTAG-DP Disabled and SW-DP Enabled
  */
  __HAL_AFIO_REMAP_SWJ_NOJTAG();
 80008d8:	4a05      	ldr	r2, [pc, #20]	; (80008f0 <HAL_MspInit+0x40>)
 80008da:	6853      	ldr	r3, [r2, #4]
 80008dc:	f023 63e0 	bic.w	r3, r3, #117440512	; 0x7000000
 80008e0:	f043 7300 	orr.w	r3, r3, #33554432	; 0x2000000
 80008e4:	6053      	str	r3, [r2, #4]

  /* USER CODE BEGIN MspInit 1 */

  /* USER CODE END MspInit 1 */
}
 80008e6:	b002      	add	sp, #8
 80008e8:	4770      	bx	lr
 80008ea:	bf00      	nop
 80008ec:	40021000 	.word	0x40021000
 80008f0:	40010000 	.word	0x40010000

080008f4 <NMI_Handler>:
{
  /* USER CODE BEGIN NonMaskableInt_IRQn 0 */

  /* USER CODE END NonMaskableInt_IRQn 0 */
  /* USER CODE BEGIN NonMaskableInt_IRQn 1 */
  while (1)
 80008f4:	e7fe      	b.n	80008f4 <NMI_Handler>

080008f6 <HardFault_Handler>:
void HardFault_Handler(void)
{
  /* USER CODE BEGIN HardFault_IRQn 0 */

  /* USER CODE END HardFault_IRQn 0 */
  while (1)
 80008f6:	e7fe      	b.n	80008f6 <HardFault_Handler>

080008f8 <MemManage_Handler>:
void MemManage_Handler(void)
{
  /* USER CODE BEGIN MemoryManagement_IRQn 0 */

  /* USER CODE END MemoryManagement_IRQn 0 */
  while (1)
 80008f8:	e7fe      	b.n	80008f8 <MemManage_Handler>

080008fa <BusFault_Handler>:
void BusFault_Handler(void)
{
  /* USER CODE BEGIN BusFault_IRQn 0 */

  /* USER CODE END BusFault_IRQn 0 */
  while (1)
 80008fa:	e7fe      	b.n	80008fa <BusFault_Handler>

080008fc <UsageFault_Handler>:
void UsageFault_Handler(void)
{
  /* USER CODE BEGIN UsageFault_IRQn 0 */

  /* USER CODE END UsageFault_IRQn 0 */
  while (1)
 80008fc:	e7fe      	b.n	80008fc <UsageFault_Handler>

080008fe <SVC_Handler>:

  /* USER CODE END SVCall_IRQn 0 */
  /* USER CODE BEGIN SVCall_IRQn 1 */

  /* USER CODE END SVCall_IRQn 1 */
}
 80008fe:	4770      	bx	lr

08000900 <DebugMon_Handler>:

  /* USER CODE END DebugMonitor_IRQn 0 */
  /* USER CODE BEGIN DebugMonitor_IRQn 1 */

  /* USER CODE END DebugMonitor_IRQn 1 */
}
 8000900:	4770      	bx	lr

08000902 <PendSV_Handler>:

  /* USER CODE END PendSV_IRQn 0 */
  /* USER CODE BEGIN PendSV_IRQn 1 */

  /* USER CODE END PendSV_IRQn 1 */
}
 8000902:	4770      	bx	lr

08000904 <SysTick_Handler>:

/**
  * @brief This function handles System tick timer.
  */
void SysTick_Handler(void)
{
 8000904:	b508      	push	{r3, lr}
  /* USER CODE BEGIN SysTick_IRQn 0 */

  /* USER CODE END SysTick_IRQn 0 */
  HAL_IncTick();
 8000906:	f000 fa11 	bl	8000d2c <HAL_IncTick>
  /* USER CODE BEGIN SysTick_IRQn 1 */

  /* USER CODE END SysTick_IRQn 1 */
}
 800090a:	bd08      	pop	{r3, pc}

0800090c <SystemInit>:

  /* Configure the Vector Table location -------------------------------------*/
#if defined(USER_VECT_TAB_ADDRESS)
  SCB->VTOR = VECT_TAB_BASE_ADDRESS | VECT_TAB_OFFSET; /* Vector Table Relocation in Internal SRAM. */
#endif /* USER_VECT_TAB_ADDRESS */
}
 800090c:	4770      	bx	lr
	...

08000910 <HAL_TIM_PWM_MspInit>:
  HAL_TIM_MspPostInit(&htim4);

}

void HAL_TIM_PWM_MspInit(TIM_HandleTypeDef* tim_pwmHandle)
{
 8000910:	b082      	sub	sp, #8

  if(tim_pwmHandle->Instance==TIM3)
 8000912:	6803      	ldr	r3, [r0, #0]
 8000914:	4a0e      	ldr	r2, [pc, #56]	; (8000950 <HAL_TIM_PWM_MspInit+0x40>)
 8000916:	4293      	cmp	r3, r2
 8000918:	d004      	beq.n	8000924 <HAL_TIM_PWM_MspInit+0x14>
    __HAL_RCC_TIM3_CLK_ENABLE();
  /* USER CODE BEGIN TIM3_MspInit 1 */

  /* USER CODE END TIM3_MspInit 1 */
  }
  else if(tim_pwmHandle->Instance==TIM4)
 800091a:	4a0e      	ldr	r2, [pc, #56]	; (8000954 <HAL_TIM_PWM_MspInit+0x44>)
 800091c:	4293      	cmp	r3, r2
 800091e:	d00c      	beq.n	800093a <HAL_TIM_PWM_MspInit+0x2a>
    __HAL_RCC_TIM4_CLK_ENABLE();
  /* USER CODE BEGIN TIM4_MspInit 1 */

  /* USER CODE END TIM4_MspInit 1 */
  }
}
 8000920:	b002      	add	sp, #8
 8000922:	4770      	bx	lr
    __HAL_RCC_TIM3_CLK_ENABLE();
 8000924:	4b0c      	ldr	r3, [pc, #48]	; (8000958 <HAL_TIM_PWM_MspInit+0x48>)
 8000926:	69da      	ldr	r2, [r3, #28]
 8000928:	f042 0202 	orr.w	r2, r2, #2
 800092c:	61da      	str	r2, [r3, #28]
 800092e:	69db      	ldr	r3, [r3, #28]
 8000930:	f003 0302 	and.w	r3, r3, #2
 8000934:	9300      	str	r3, [sp, #0]
 8000936:	9b00      	ldr	r3, [sp, #0]
 8000938:	e7f2      	b.n	8000920 <HAL_TIM_PWM_MspInit+0x10>
    __HAL_RCC_TIM4_CLK_ENABLE();
 800093a:	4b07      	ldr	r3, [pc, #28]	; (8000958 <HAL_TIM_PWM_MspInit+0x48>)
 800093c:	69da      	ldr	r2, [r3, #28]
 800093e:	f042 0204 	orr.w	r2, r2, #4
 8000942:	61da      	str	r2, [r3, #28]
 8000944:	69db      	ldr	r3, [r3, #28]
 8000946:	f003 0304 	and.w	r3, r3, #4
 800094a:	9301      	str	r3, [sp, #4]
 800094c:	9b01      	ldr	r3, [sp, #4]
}
 800094e:	e7e7      	b.n	8000920 <HAL_TIM_PWM_MspInit+0x10>
 8000950:	40000400 	.word	0x40000400
 8000954:	40000800 	.word	0x40000800
 8000958:	40021000 	.word	0x40021000

0800095c <HAL_TIM_MspPostInit>:
void HAL_TIM_MspPostInit(TIM_HandleTypeDef* timHandle)
{
 800095c:	b500      	push	{lr}
 800095e:	b087      	sub	sp, #28

  GPIO_InitTypeDef GPIO_InitStruct = {0};
 8000960:	2300      	movs	r3, #0
 8000962:	9302      	str	r3, [sp, #8]
 8000964:	9303      	str	r3, [sp, #12]
 8000966:	9304      	str	r3, [sp, #16]
 8000968:	9305      	str	r3, [sp, #20]
  if(timHandle->Instance==TIM3)
 800096a:	6803      	ldr	r3, [r0, #0]
 800096c:	4a1d      	ldr	r2, [pc, #116]	; (80009e4 <HAL_TIM_MspPostInit+0x88>)
 800096e:	4293      	cmp	r3, r2
 8000970:	d005      	beq.n	800097e <HAL_TIM_MspPostInit+0x22>

  /* USER CODE BEGIN TIM3_MspPostInit 1 */

  /* USER CODE END TIM3_MspPostInit 1 */
  }
  else if(timHandle->Instance==TIM4)
 8000972:	4a1d      	ldr	r2, [pc, #116]	; (80009e8 <HAL_TIM_MspPostInit+0x8c>)
 8000974:	4293      	cmp	r3, r2
 8000976:	d01f      	beq.n	80009b8 <HAL_TIM_MspPostInit+0x5c>
  /* USER CODE BEGIN TIM4_MspPostInit 1 */

  /* USER CODE END TIM4_MspPostInit 1 */
  }

}
 8000978:	b007      	add	sp, #28
 800097a:	f85d fb04 	ldr.w	pc, [sp], #4
    __HAL_RCC_GPIOB_CLK_ENABLE();
 800097e:	4b1b      	ldr	r3, [pc, #108]	; (80009ec <HAL_TIM_MspPostInit+0x90>)
 8000980:	699a      	ldr	r2, [r3, #24]
 8000982:	f042 0208 	orr.w	r2, r2, #8
 8000986:	619a      	str	r2, [r3, #24]
 8000988:	699b      	ldr	r3, [r3, #24]
 800098a:	f003 0308 	and.w	r3, r3, #8
 800098e:	9300      	str	r3, [sp, #0]
 8000990:	9b00      	ldr	r3, [sp, #0]
    GPIO_InitStruct.Pin = QD_EN_Pin|PQD_EN_Pin|DEPR_EN_Pin;
 8000992:	2323      	movs	r3, #35	; 0x23
 8000994:	9302      	str	r3, [sp, #8]
    GPIO_InitStruct.Mode = GPIO_MODE_AF_PP;
 8000996:	2302      	movs	r3, #2
 8000998:	9303      	str	r3, [sp, #12]
    GPIO_InitStruct.Speed = GPIO_SPEED_FREQ_LOW;
 800099a:	9305      	str	r3, [sp, #20]
    HAL_GPIO_Init(GPIOB, &GPIO_InitStruct);
 800099c:	a902      	add	r1, sp, #8
 800099e:	4814      	ldr	r0, [pc, #80]	; (80009f0 <HAL_TIM_MspPostInit+0x94>)
 80009a0:	f000 fa44 	bl	8000e2c <HAL_GPIO_Init>
    __HAL_AFIO_REMAP_TIM3_PARTIAL();
 80009a4:	4a13      	ldr	r2, [pc, #76]	; (80009f4 <HAL_TIM_MspPostInit+0x98>)
 80009a6:	6853      	ldr	r3, [r2, #4]
 80009a8:	f423 6340 	bic.w	r3, r3, #3072	; 0xc00
 80009ac:	f043 63e0 	orr.w	r3, r3, #117440512	; 0x7000000
 80009b0:	f443 6300 	orr.w	r3, r3, #2048	; 0x800
 80009b4:	6053      	str	r3, [r2, #4]
 80009b6:	e7df      	b.n	8000978 <HAL_TIM_MspPostInit+0x1c>
    __HAL_RCC_GPIOB_CLK_ENABLE();
 80009b8:	4b0c      	ldr	r3, [pc, #48]	; (80009ec <HAL_TIM_MspPostInit+0x90>)
 80009ba:	699a      	ldr	r2, [r3, #24]
 80009bc:	f042 0208 	orr.w	r2, r2, #8
 80009c0:	619a      	str	r2, [r3, #24]
 80009c2:	699b      	ldr	r3, [r3, #24]
 80009c4:	f003 0308 	and.w	r3, r3, #8
 80009c8:	9301      	str	r3, [sp, #4]
 80009ca:	9b01      	ldr	r3, [sp, #4]
    GPIO_InitStruct.Pin = FILL_EN_Pin;
 80009cc:	f44f 7380 	mov.w	r3, #256	; 0x100
 80009d0:	9302      	str	r3, [sp, #8]
    GPIO_InitStruct.Mode = GPIO_MODE_AF_PP;
 80009d2:	2302      	movs	r3, #2
 80009d4:	9303      	str	r3, [sp, #12]
    GPIO_InitStruct.Speed = GPIO_SPEED_FREQ_LOW;
 80009d6:	9305      	str	r3, [sp, #20]
    HAL_GPIO_Init(FILL_EN_GPIO_Port, &GPIO_InitStruct);
 80009d8:	a902      	add	r1, sp, #8
 80009da:	4805      	ldr	r0, [pc, #20]	; (80009f0 <HAL_TIM_MspPostInit+0x94>)
 80009dc:	f000 fa26 	bl	8000e2c <HAL_GPIO_Init>
}
 80009e0:	e7ca      	b.n	8000978 <HAL_TIM_MspPostInit+0x1c>
 80009e2:	bf00      	nop
 80009e4:	40000400 	.word	0x40000400
 80009e8:	40000800 	.word	0x40000800
 80009ec:	40021000 	.word	0x40021000
 80009f0:	40010c00 	.word	0x40010c00
 80009f4:	40010000 	.word	0x40010000

080009f8 <MX_TIM3_Init>:
{
 80009f8:	b500      	push	{lr}
 80009fa:	b08b      	sub	sp, #44	; 0x2c
  TIM_MasterConfigTypeDef sMasterConfig = {0};
 80009fc:	2300      	movs	r3, #0
 80009fe:	9308      	str	r3, [sp, #32]
 8000a00:	9309      	str	r3, [sp, #36]	; 0x24
  TIM_OC_InitTypeDef sConfigOC = {0};
 8000a02:	9301      	str	r3, [sp, #4]
 8000a04:	9302      	str	r3, [sp, #8]
 8000a06:	9303      	str	r3, [sp, #12]
 8000a08:	9304      	str	r3, [sp, #16]
 8000a0a:	9305      	str	r3, [sp, #20]
 8000a0c:	9306      	str	r3, [sp, #24]
 8000a0e:	9307      	str	r3, [sp, #28]
  htim3.Instance = TIM3;
 8000a10:	4823      	ldr	r0, [pc, #140]	; (8000aa0 <MX_TIM3_Init+0xa8>)
 8000a12:	4a24      	ldr	r2, [pc, #144]	; (8000aa4 <MX_TIM3_Init+0xac>)
 8000a14:	6002      	str	r2, [r0, #0]
  htim3.Init.Prescaler = 47;
 8000a16:	222f      	movs	r2, #47	; 0x2f
 8000a18:	6042      	str	r2, [r0, #4]
  htim3.Init.CounterMode = TIM_COUNTERMODE_UP;
 8000a1a:	6083      	str	r3, [r0, #8]
  htim3.Init.Period = 999;
 8000a1c:	f240 32e7 	movw	r2, #999	; 0x3e7
 8000a20:	60c2      	str	r2, [r0, #12]
  htim3.Init.ClockDivision = TIM_CLOCKDIVISION_DIV1;
 8000a22:	6103      	str	r3, [r0, #16]
  htim3.Init.AutoReloadPreload = TIM_AUTORELOAD_PRELOAD_ENABLE;
 8000a24:	2380      	movs	r3, #128	; 0x80
 8000a26:	6183      	str	r3, [r0, #24]
  if (HAL_TIM_PWM_Init(&htim3) != HAL_OK)
 8000a28:	f000 ff9e 	bl	8001968 <HAL_TIM_PWM_Init>
 8000a2c:	bb40      	cbnz	r0, 8000a80 <MX_TIM3_Init+0x88>
  sMasterConfig.MasterOutputTrigger = TIM_TRGO_RESET;
 8000a2e:	2300      	movs	r3, #0
 8000a30:	9308      	str	r3, [sp, #32]
  sMasterConfig.MasterSlaveMode = TIM_MASTERSLAVEMODE_DISABLE;
 8000a32:	9309      	str	r3, [sp, #36]	; 0x24
  if (HAL_TIMEx_MasterConfigSynchronization(&htim3, &sMasterConfig) != HAL_OK)
 8000a34:	a908      	add	r1, sp, #32
 8000a36:	481a      	ldr	r0, [pc, #104]	; (8000aa0 <MX_TIM3_Init+0xa8>)
 8000a38:	f001 f8cc 	bl	8001bd4 <HAL_TIMEx_MasterConfigSynchronization>
 8000a3c:	bb18      	cbnz	r0, 8000a86 <MX_TIM3_Init+0x8e>
  sConfigOC.OCMode = TIM_OCMODE_PWM1;
 8000a3e:	2360      	movs	r3, #96	; 0x60
 8000a40:	9301      	str	r3, [sp, #4]
  sConfigOC.Pulse = 1000;
 8000a42:	f44f 737a 	mov.w	r3, #1000	; 0x3e8
 8000a46:	9302      	str	r3, [sp, #8]
  sConfigOC.OCPolarity = TIM_OCPOLARITY_HIGH;
 8000a48:	2300      	movs	r3, #0
 8000a4a:	9303      	str	r3, [sp, #12]
  sConfigOC.OCFastMode = TIM_OCFAST_DISABLE;
 8000a4c:	9305      	str	r3, [sp, #20]
  if (HAL_TIM_PWM_ConfigChannel(&htim3, &sConfigOC, TIM_CHANNEL_2) != HAL_OK)
 8000a4e:	2204      	movs	r2, #4
 8000a50:	eb0d 0102 	add.w	r1, sp, r2
 8000a54:	4812      	ldr	r0, [pc, #72]	; (8000aa0 <MX_TIM3_Init+0xa8>)
 8000a56:	f000 ffe1 	bl	8001a1c <HAL_TIM_PWM_ConfigChannel>
 8000a5a:	b9b8      	cbnz	r0, 8000a8c <MX_TIM3_Init+0x94>
  if (HAL_TIM_PWM_ConfigChannel(&htim3, &sConfigOC, TIM_CHANNEL_3) != HAL_OK)
 8000a5c:	2208      	movs	r2, #8
 8000a5e:	a901      	add	r1, sp, #4
 8000a60:	480f      	ldr	r0, [pc, #60]	; (8000aa0 <MX_TIM3_Init+0xa8>)
 8000a62:	f000 ffdb 	bl	8001a1c <HAL_TIM_PWM_ConfigChannel>
 8000a66:	b9a0      	cbnz	r0, 8000a92 <MX_TIM3_Init+0x9a>
  if (HAL_TIM_PWM_ConfigChannel(&htim3, &sConfigOC, TIM_CHANNEL_4) != HAL_OK)
 8000a68:	220c      	movs	r2, #12
 8000a6a:	a901      	add	r1, sp, #4
 8000a6c:	480c      	ldr	r0, [pc, #48]	; (8000aa0 <MX_TIM3_Init+0xa8>)
 8000a6e:	f000 ffd5 	bl	8001a1c <HAL_TIM_PWM_ConfigChannel>
 8000a72:	b988      	cbnz	r0, 8000a98 <MX_TIM3_Init+0xa0>
  HAL_TIM_MspPostInit(&htim3);
 8000a74:	480a      	ldr	r0, [pc, #40]	; (8000aa0 <MX_TIM3_Init+0xa8>)
 8000a76:	f7ff ff71 	bl	800095c <HAL_TIM_MspPostInit>
}
 8000a7a:	b00b      	add	sp, #44	; 0x2c
 8000a7c:	f85d fb04 	ldr.w	pc, [sp], #4
    Error_Handler();
 8000a80:	f7ff ff11 	bl	80008a6 <Error_Handler>
 8000a84:	e7d3      	b.n	8000a2e <MX_TIM3_Init+0x36>
    Error_Handler();
 8000a86:	f7ff ff0e 	bl	80008a6 <Error_Handler>
 8000a8a:	e7d8      	b.n	8000a3e <MX_TIM3_Init+0x46>
    Error_Handler();
 8000a8c:	f7ff ff0b 	bl	80008a6 <Error_Handler>
 8000a90:	e7e4      	b.n	8000a5c <MX_TIM3_Init+0x64>
    Error_Handler();
 8000a92:	f7ff ff08 	bl	80008a6 <Error_Handler>
 8000a96:	e7e7      	b.n	8000a68 <MX_TIM3_Init+0x70>
    Error_Handler();
 8000a98:	f7ff ff05 	bl	80008a6 <Error_Handler>
 8000a9c:	e7ea      	b.n	8000a74 <MX_TIM3_Init+0x7c>
 8000a9e:	bf00      	nop
 8000aa0:	2000009c 	.word	0x2000009c
 8000aa4:	40000400 	.word	0x40000400

08000aa8 <MX_TIM4_Init>:
{
 8000aa8:	b500      	push	{lr}
 8000aaa:	b08b      	sub	sp, #44	; 0x2c
  TIM_MasterConfigTypeDef sMasterConfig = {0};
 8000aac:	2300      	movs	r3, #0
 8000aae:	9308      	str	r3, [sp, #32]
 8000ab0:	9309      	str	r3, [sp, #36]	; 0x24
  TIM_OC_InitTypeDef sConfigOC = {0};
 8000ab2:	9301      	str	r3, [sp, #4]
 8000ab4:	9302      	str	r3, [sp, #8]
 8000ab6:	9303      	str	r3, [sp, #12]
 8000ab8:	9304      	str	r3, [sp, #16]
 8000aba:	9305      	str	r3, [sp, #20]
 8000abc:	9306      	str	r3, [sp, #24]
 8000abe:	9307      	str	r3, [sp, #28]
  htim4.Instance = TIM4;
 8000ac0:	4819      	ldr	r0, [pc, #100]	; (8000b28 <MX_TIM4_Init+0x80>)
 8000ac2:	4a1a      	ldr	r2, [pc, #104]	; (8000b2c <MX_TIM4_Init+0x84>)
 8000ac4:	6002      	str	r2, [r0, #0]
  htim4.Init.Prescaler = 47;
 8000ac6:	222f      	movs	r2, #47	; 0x2f
 8000ac8:	6042      	str	r2, [r0, #4]
  htim4.Init.CounterMode = TIM_COUNTERMODE_UP;
 8000aca:	6083      	str	r3, [r0, #8]
  htim4.Init.Period = 999;
 8000acc:	f240 32e7 	movw	r2, #999	; 0x3e7
 8000ad0:	60c2      	str	r2, [r0, #12]
  htim4.Init.ClockDivision = TIM_CLOCKDIVISION_DIV1;
 8000ad2:	6103      	str	r3, [r0, #16]
  htim4.Init.AutoReloadPreload = TIM_AUTORELOAD_PRELOAD_ENABLE;
 8000ad4:	2380      	movs	r3, #128	; 0x80
 8000ad6:	6183      	str	r3, [r0, #24]
  if (HAL_TIM_PWM_Init(&htim4) != HAL_OK)
 8000ad8:	f000 ff46 	bl	8001968 <HAL_TIM_PWM_Init>
 8000adc:	b9d8      	cbnz	r0, 8000b16 <MX_TIM4_Init+0x6e>
  sMasterConfig.MasterOutputTrigger = TIM_TRGO_RESET;
 8000ade:	2300      	movs	r3, #0
 8000ae0:	9308      	str	r3, [sp, #32]
  sMasterConfig.MasterSlaveMode = TIM_MASTERSLAVEMODE_DISABLE;
 8000ae2:	9309      	str	r3, [sp, #36]	; 0x24
  if (HAL_TIMEx_MasterConfigSynchronization(&htim4, &sMasterConfig) != HAL_OK)
 8000ae4:	a908      	add	r1, sp, #32
 8000ae6:	4810      	ldr	r0, [pc, #64]	; (8000b28 <MX_TIM4_Init+0x80>)
 8000ae8:	f001 f874 	bl	8001bd4 <HAL_TIMEx_MasterConfigSynchronization>
 8000aec:	b9b0      	cbnz	r0, 8000b1c <MX_TIM4_Init+0x74>
  sConfigOC.OCMode = TIM_OCMODE_PWM1;
 8000aee:	2360      	movs	r3, #96	; 0x60
 8000af0:	9301      	str	r3, [sp, #4]
  sConfigOC.Pulse = 1000;
 8000af2:	f44f 737a 	mov.w	r3, #1000	; 0x3e8
 8000af6:	9302      	str	r3, [sp, #8]
  sConfigOC.OCPolarity = TIM_OCPOLARITY_HIGH;
 8000af8:	2300      	movs	r3, #0
 8000afa:	9303      	str	r3, [sp, #12]
  sConfigOC.OCFastMode = TIM_OCFAST_DISABLE;
 8000afc:	9305      	str	r3, [sp, #20]
  if (HAL_TIM_PWM_ConfigChannel(&htim4, &sConfigOC, TIM_CHANNEL_3) != HAL_OK)
 8000afe:	2208      	movs	r2, #8
 8000b00:	a901      	add	r1, sp, #4
 8000b02:	4809      	ldr	r0, [pc, #36]	; (8000b28 <MX_TIM4_Init+0x80>)
 8000b04:	f000 ff8a 	bl	8001a1c <HAL_TIM_PWM_ConfigChannel>
 8000b08:	b958      	cbnz	r0, 8000b22 <MX_TIM4_Init+0x7a>
  HAL_TIM_MspPostInit(&htim4);
 8000b0a:	4807      	ldr	r0, [pc, #28]	; (8000b28 <MX_TIM4_Init+0x80>)
 8000b0c:	f7ff ff26 	bl	800095c <HAL_TIM_MspPostInit>
}
 8000b10:	b00b      	add	sp, #44	; 0x2c
 8000b12:	f85d fb04 	ldr.w	pc, [sp], #4
    Error_Handler();
 8000b16:	f7ff fec6 	bl	80008a6 <Error_Handler>
 8000b1a:	e7e0      	b.n	8000ade <MX_TIM4_Init+0x36>
    Error_Handler();
 8000b1c:	f7ff fec3 	bl	80008a6 <Error_Handler>
 8000b20:	e7e5      	b.n	8000aee <MX_TIM4_Init+0x46>
    Error_Handler();
 8000b22:	f7ff fec0 	bl	80008a6 <Error_Handler>
 8000b26:	e7f0      	b.n	8000b0a <MX_TIM4_Init+0x62>
 8000b28:	20000054 	.word	0x20000054
 8000b2c:	40000800 	.word	0x40000800

08000b30 <MX_USART2_UART_Init>:
UART_HandleTypeDef huart3;

/* USART2 init function */

void MX_USART2_UART_Init(void)
{
 8000b30:	b508      	push	{r3, lr}
  /* USER CODE END USART2_Init 0 */

  /* USER CODE BEGIN USART2_Init 1 */

  /* USER CODE END USART2_Init 1 */
  huart2.Instance = USART2;
 8000b32:	480a      	ldr	r0, [pc, #40]	; (8000b5c <MX_USART2_UART_Init+0x2c>)
 8000b34:	4b0a      	ldr	r3, [pc, #40]	; (8000b60 <MX_USART2_UART_Init+0x30>)
 8000b36:	6003      	str	r3, [r0, #0]
  huart2.Init.BaudRate = 115200;
 8000b38:	f44f 33e1 	mov.w	r3, #115200	; 0x1c200
 8000b3c:	6043      	str	r3, [r0, #4]
  huart2.Init.WordLength = UART_WORDLENGTH_8B;
 8000b3e:	2300      	movs	r3, #0
 8000b40:	6083      	str	r3, [r0, #8]
  huart2.Init.StopBits = UART_STOPBITS_1;
 8000b42:	60c3      	str	r3, [r0, #12]
  huart2.Init.Parity = UART_PARITY_NONE;
 8000b44:	6103      	str	r3, [r0, #16]
  huart2.Init.Mode = UART_MODE_TX_RX;
 8000b46:	220c      	movs	r2, #12
 8000b48:	6142      	str	r2, [r0, #20]
  huart2.Init.HwFlowCtl = UART_HWCONTROL_NONE;
 8000b4a:	6183      	str	r3, [r0, #24]
  huart2.Init.OverSampling = UART_OVERSAMPLING_16;
 8000b4c:	61c3      	str	r3, [r0, #28]
  if (HAL_UART_Init(&huart2) != HAL_OK)
 8000b4e:	f001 f8b9 	bl	8001cc4 <HAL_UART_Init>
 8000b52:	b900      	cbnz	r0, 8000b56 <MX_USART2_UART_Init+0x26>
  }
  /* USER CODE BEGIN USART2_Init 2 */

  /* USER CODE END USART2_Init 2 */

}
 8000b54:	bd08      	pop	{r3, pc}
    Error_Handler();
 8000b56:	f7ff fea6 	bl	80008a6 <Error_Handler>
}
 8000b5a:	e7fb      	b.n	8000b54 <MX_USART2_UART_Init+0x24>
 8000b5c:	20000124 	.word	0x20000124
 8000b60:	40004400 	.word	0x40004400

08000b64 <MX_USART3_UART_Init>:
/* USART3 init function */

void MX_USART3_UART_Init(void)
{
 8000b64:	b508      	push	{r3, lr}
  /* USER CODE END USART3_Init 0 */

  /* USER CODE BEGIN USART3_Init 1 */

  /* USER CODE END USART3_Init 1 */
  huart3.Instance = USART3;
 8000b66:	480a      	ldr	r0, [pc, #40]	; (8000b90 <MX_USART3_UART_Init+0x2c>)
 8000b68:	4b0a      	ldr	r3, [pc, #40]	; (8000b94 <MX_USART3_UART_Init+0x30>)
 8000b6a:	6003      	str	r3, [r0, #0]
  huart3.Init.BaudRate = 115200;
 8000b6c:	f44f 33e1 	mov.w	r3, #115200	; 0x1c200
 8000b70:	6043      	str	r3, [r0, #4]
  huart3.Init.WordLength = UART_WORDLENGTH_8B;
 8000b72:	2300      	movs	r3, #0
 8000b74:	6083      	str	r3, [r0, #8]
  huart3.Init.StopBits = UART_STOPBITS_1;
 8000b76:	60c3      	str	r3, [r0, #12]
  huart3.Init.Parity = UART_PARITY_NONE;
 8000b78:	6103      	str	r3, [r0, #16]
  huart3.Init.Mode = UART_MODE_TX_RX;
 8000b7a:	220c      	movs	r2, #12
 8000b7c:	6142      	str	r2, [r0, #20]
  huart3.Init.HwFlowCtl = UART_HWCONTROL_NONE;
 8000b7e:	6183      	str	r3, [r0, #24]
  huart3.Init.OverSampling = UART_OVERSAMPLING_16;
 8000b80:	61c3      	str	r3, [r0, #28]
  if (HAL_UART_Init(&huart3) != HAL_OK)
 8000b82:	f001 f89f 	bl	8001cc4 <HAL_UART_Init>
 8000b86:	b900      	cbnz	r0, 8000b8a <MX_USART3_UART_Init+0x26>
  }
  /* USER CODE BEGIN USART3_Init 2 */

  /* USER CODE END USART3_Init 2 */

}
 8000b88:	bd08      	pop	{r3, pc}
    Error_Handler();
 8000b8a:	f7ff fe8c 	bl	80008a6 <Error_Handler>
}
 8000b8e:	e7fb      	b.n	8000b88 <MX_USART3_UART_Init+0x24>
 8000b90:	200000e4 	.word	0x200000e4
 8000b94:	40004800 	.word	0x40004800

08000b98 <HAL_UART_MspInit>:

void HAL_UART_MspInit(UART_HandleTypeDef* uartHandle)
{
 8000b98:	b510      	push	{r4, lr}
 8000b9a:	b088      	sub	sp, #32

  GPIO_InitTypeDef GPIO_InitStruct = {0};
 8000b9c:	2300      	movs	r3, #0
 8000b9e:	9304      	str	r3, [sp, #16]
 8000ba0:	9305      	str	r3, [sp, #20]
 8000ba2:	9306      	str	r3, [sp, #24]
 8000ba4:	9307      	str	r3, [sp, #28]
  if(uartHandle->Instance==USART2)
 8000ba6:	6803      	ldr	r3, [r0, #0]
 8000ba8:	4a2c      	ldr	r2, [pc, #176]	; (8000c5c <HAL_UART_MspInit+0xc4>)
 8000baa:	4293      	cmp	r3, r2
 8000bac:	d004      	beq.n	8000bb8 <HAL_UART_MspInit+0x20>

  /* USER CODE BEGIN USART2_MspInit 1 */

  /* USER CODE END USART2_MspInit 1 */
  }
  else if(uartHandle->Instance==USART3)
 8000bae:	4a2c      	ldr	r2, [pc, #176]	; (8000c60 <HAL_UART_MspInit+0xc8>)
 8000bb0:	4293      	cmp	r3, r2
 8000bb2:	d029      	beq.n	8000c08 <HAL_UART_MspInit+0x70>

  /* USER CODE BEGIN USART3_MspInit 1 */

  /* USER CODE END USART3_MspInit 1 */
  }
}
 8000bb4:	b008      	add	sp, #32
 8000bb6:	bd10      	pop	{r4, pc}
    __HAL_RCC_USART2_CLK_ENABLE();
 8000bb8:	4b2a      	ldr	r3, [pc, #168]	; (8000c64 <HAL_UART_MspInit+0xcc>)
 8000bba:	69da      	ldr	r2, [r3, #28]
 8000bbc:	f442 3200 	orr.w	r2, r2, #131072	; 0x20000
 8000bc0:	61da      	str	r2, [r3, #28]
 8000bc2:	69da      	ldr	r2, [r3, #28]
 8000bc4:	f402 3200 	and.w	r2, r2, #131072	; 0x20000
 8000bc8:	9200      	str	r2, [sp, #0]
 8000bca:	9a00      	ldr	r2, [sp, #0]
    __HAL_RCC_GPIOA_CLK_ENABLE();
 8000bcc:	699a      	ldr	r2, [r3, #24]
 8000bce:	f042 0204 	orr.w	r2, r2, #4
 8000bd2:	619a      	str	r2, [r3, #24]
 8000bd4:	699b      	ldr	r3, [r3, #24]
 8000bd6:	f003 0304 	and.w	r3, r3, #4
 8000bda:	9301      	str	r3, [sp, #4]
 8000bdc:	9b01      	ldr	r3, [sp, #4]
    GPIO_InitStruct.Pin = GPIO_PIN_2;
 8000bde:	2304      	movs	r3, #4
 8000be0:	9304      	str	r3, [sp, #16]
    GPIO_InitStruct.Mode = GPIO_MODE_AF_PP;
 8000be2:	2302      	movs	r3, #2
 8000be4:	9305      	str	r3, [sp, #20]
    GPIO_InitStruct.Speed = GPIO_SPEED_FREQ_HIGH;
 8000be6:	2303      	movs	r3, #3
 8000be8:	9307      	str	r3, [sp, #28]
    HAL_GPIO_Init(GPIOA, &GPIO_InitStruct);
 8000bea:	4c1f      	ldr	r4, [pc, #124]	; (8000c68 <HAL_UART_MspInit+0xd0>)
 8000bec:	a904      	add	r1, sp, #16
 8000bee:	4620      	mov	r0, r4
 8000bf0:	f000 f91c 	bl	8000e2c <HAL_GPIO_Init>
    GPIO_InitStruct.Pin = GPIO_PIN_3;
 8000bf4:	2308      	movs	r3, #8
 8000bf6:	9304      	str	r3, [sp, #16]
    GPIO_InitStruct.Mode = GPIO_MODE_INPUT;
 8000bf8:	2300      	movs	r3, #0
 8000bfa:	9305      	str	r3, [sp, #20]
    GPIO_InitStruct.Pull = GPIO_NOPULL;
 8000bfc:	9306      	str	r3, [sp, #24]
    HAL_GPIO_Init(GPIOA, &GPIO_InitStruct);
 8000bfe:	a904      	add	r1, sp, #16
 8000c00:	4620      	mov	r0, r4
 8000c02:	f000 f913 	bl	8000e2c <HAL_GPIO_Init>
 8000c06:	e7d5      	b.n	8000bb4 <HAL_UART_MspInit+0x1c>
    __HAL_RCC_USART3_CLK_ENABLE();
 8000c08:	4b16      	ldr	r3, [pc, #88]	; (8000c64 <HAL_UART_MspInit+0xcc>)
 8000c0a:	69da      	ldr	r2, [r3, #28]
 8000c0c:	f442 2280 	orr.w	r2, r2, #262144	; 0x40000
 8000c10:	61da      	str	r2, [r3, #28]
 8000c12:	69da      	ldr	r2, [r3, #28]
 8000c14:	f402 2280 	and.w	r2, r2, #262144	; 0x40000
 8000c18:	9202      	str	r2, [sp, #8]
 8000c1a:	9a02      	ldr	r2, [sp, #8]
    __HAL_RCC_GPIOB_CLK_ENABLE();
 8000c1c:	699a      	ldr	r2, [r3, #24]
 8000c1e:	f042 0208 	orr.w	r2, r2, #8
 8000c22:	619a      	str	r2, [r3, #24]
 8000c24:	699b      	ldr	r3, [r3, #24]
 8000c26:	f003 0308 	and.w	r3, r3, #8
 8000c2a:	9303      	str	r3, [sp, #12]
 8000c2c:	9b03      	ldr	r3, [sp, #12]
    GPIO_InitStruct.Pin = GPIO_PIN_10;
 8000c2e:	f44f 6380 	mov.w	r3, #1024	; 0x400
 8000c32:	9304      	str	r3, [sp, #16]
    GPIO_InitStruct.Mode = GPIO_MODE_AF_PP;
 8000c34:	2302      	movs	r3, #2
 8000c36:	9305      	str	r3, [sp, #20]
    GPIO_InitStruct.Speed = GPIO_SPEED_FREQ_HIGH;
 8000c38:	2303      	movs	r3, #3
 8000c3a:	9307      	str	r3, [sp, #28]
    HAL_GPIO_Init(GPIOB, &GPIO_InitStruct);
 8000c3c:	4c0b      	ldr	r4, [pc, #44]	; (8000c6c <HAL_UART_MspInit+0xd4>)
 8000c3e:	a904      	add	r1, sp, #16
 8000c40:	4620      	mov	r0, r4
 8000c42:	f000 f8f3 	bl	8000e2c <HAL_GPIO_Init>
    GPIO_InitStruct.Pin = GPIO_PIN_11;
 8000c46:	f44f 6300 	mov.w	r3, #2048	; 0x800
 8000c4a:	9304      	str	r3, [sp, #16]
    GPIO_InitStruct.Mode = GPIO_MODE_INPUT;
 8000c4c:	2300      	movs	r3, #0
 8000c4e:	9305      	str	r3, [sp, #20]
    GPIO_InitStruct.Pull = GPIO_NOPULL;
 8000c50:	9306      	str	r3, [sp, #24]
    HAL_GPIO_Init(GPIOB, &GPIO_InitStruct);
 8000c52:	a904      	add	r1, sp, #16
 8000c54:	4620      	mov	r0, r4
 8000c56:	f000 f8e9 	bl	8000e2c <HAL_GPIO_Init>
}
 8000c5a:	e7ab      	b.n	8000bb4 <HAL_UART_MspInit+0x1c>
 8000c5c:	40004400 	.word	0x40004400
 8000c60:	40004800 	.word	0x40004800
 8000c64:	40021000 	.word	0x40021000
 8000c68:	40010800 	.word	0x40010800
 8000c6c:	40010c00 	.word	0x40010c00

08000c70 <Reset_Handler>:
  .weak Reset_Handler
  .type Reset_Handler, %function
Reset_Handler:

/* Copy the data segment initializers from flash to SRAM */
  movs r1, #0
 8000c70:	2100      	movs	r1, #0
  b LoopCopyDataInit
 8000c72:	e003      	b.n	8000c7c <LoopCopyDataInit>

08000c74 <CopyDataInit>:

CopyDataInit:
  ldr r3, =_sidata
 8000c74:	4b0b      	ldr	r3, [pc, #44]	; (8000ca4 <LoopFillZerobss+0x14>)
  ldr r3, [r3, r1]
 8000c76:	585b      	ldr	r3, [r3, r1]
  str r3, [r0, r1]
 8000c78:	5043      	str	r3, [r0, r1]
  adds r1, r1, #4
 8000c7a:	3104      	adds	r1, #4

08000c7c <LoopCopyDataInit>:

LoopCopyDataInit:
  ldr r0, =_sdata
 8000c7c:	480a      	ldr	r0, [pc, #40]	; (8000ca8 <LoopFillZerobss+0x18>)
  ldr r3, =_edata
 8000c7e:	4b0b      	ldr	r3, [pc, #44]	; (8000cac <LoopFillZerobss+0x1c>)
  adds r2, r0, r1
 8000c80:	1842      	adds	r2, r0, r1
  cmp r2, r3
 8000c82:	429a      	cmp	r2, r3
  bcc CopyDataInit
 8000c84:	d3f6      	bcc.n	8000c74 <CopyDataInit>
  ldr r2, =_sbss
 8000c86:	4a0a      	ldr	r2, [pc, #40]	; (8000cb0 <LoopFillZerobss+0x20>)
  b LoopFillZerobss
 8000c88:	e002      	b.n	8000c90 <LoopFillZerobss>

08000c8a <FillZerobss>:
/* Zero fill the bss segment. */
FillZerobss:
  movs r3, #0
 8000c8a:	2300      	movs	r3, #0
  str r3, [r2], #4
 8000c8c:	f842 3b04 	str.w	r3, [r2], #4

08000c90 <LoopFillZerobss>:

LoopFillZerobss:
  ldr r3, = _ebss
 8000c90:	4b08      	ldr	r3, [pc, #32]	; (8000cb4 <LoopFillZerobss+0x24>)
  cmp r2, r3
 8000c92:	429a      	cmp	r2, r3
  bcc FillZerobss
 8000c94:	d3f9      	bcc.n	8000c8a <FillZerobss>

/* Call the clock system intitialization function.*/
    bl  SystemInit
 8000c96:	f7ff fe39 	bl	800090c <SystemInit>
/* Call static constructors */
    bl __libc_init_array
 8000c9a:	f001 f843 	bl	8001d24 <__libc_init_array>
/* Call the application's entry point.*/
  bl main
 8000c9e:	f7ff fc91 	bl	80005c4 <main>
  bx lr
 8000ca2:	4770      	bx	lr
  ldr r3, =_sidata
 8000ca4:	08001e0c 	.word	0x08001e0c
  ldr r0, =_sdata
 8000ca8:	20000000 	.word	0x20000000
  ldr r3, =_edata
 8000cac:	2000000c 	.word	0x2000000c
  ldr r2, =_sbss
 8000cb0:	2000000c 	.word	0x2000000c
  ldr r3, = _ebss
 8000cb4:	20000168 	.word	0x20000168

08000cb8 <ADC1_2_IRQHandler>:
 * @retval : None
*/
    .section .text.Default_Handler,"ax",%progbits
Default_Handler:
Infinite_Loop:
  b Infinite_Loop
 8000cb8:	e7fe      	b.n	8000cb8 <ADC1_2_IRQHandler>
	...

08000cbc <HAL_InitTick>:
  *       implementation  in user file.
  * @param TickPriority Tick interrupt priority.
  * @retval HAL status
  */
__weak HAL_StatusTypeDef HAL_InitTick(uint32_t TickPriority)
{
 8000cbc:	b510      	push	{r4, lr}
 8000cbe:	4604      	mov	r4, r0
  /* Configure the SysTick to have interrupt in 1ms time basis*/
  if (HAL_SYSTICK_Config(SystemCoreClock / (1000U / uwTickFreq)) > 0U)
 8000cc0:	4b0e      	ldr	r3, [pc, #56]	; (8000cfc <HAL_InitTick+0x40>)
 8000cc2:	7818      	ldrb	r0, [r3, #0]
 8000cc4:	f44f 737a 	mov.w	r3, #1000	; 0x3e8
 8000cc8:	fbb3 f3f0 	udiv	r3, r3, r0
 8000ccc:	4a0c      	ldr	r2, [pc, #48]	; (8000d00 <HAL_InitTick+0x44>)
 8000cce:	6810      	ldr	r0, [r2, #0]
 8000cd0:	fbb0 f0f3 	udiv	r0, r0, r3
 8000cd4:	f000 f894 	bl	8000e00 <HAL_SYSTICK_Config>
 8000cd8:	b968      	cbnz	r0, 8000cf6 <HAL_InitTick+0x3a>
  {
    return HAL_ERROR;
  }

  /* Configure the SysTick IRQ priority */
  if (TickPriority < (1UL << __NVIC_PRIO_BITS))
 8000cda:	2c0f      	cmp	r4, #15
 8000cdc:	d901      	bls.n	8000ce2 <HAL_InitTick+0x26>
    HAL_NVIC_SetPriority(SysTick_IRQn, TickPriority, 0U);
    uwTickPrio = TickPriority;
  }
  else
  {
    return HAL_ERROR;
 8000cde:	2001      	movs	r0, #1
 8000ce0:	e00a      	b.n	8000cf8 <HAL_InitTick+0x3c>
    HAL_NVIC_SetPriority(SysTick_IRQn, TickPriority, 0U);
 8000ce2:	2200      	movs	r2, #0
 8000ce4:	4621      	mov	r1, r4
 8000ce6:	f04f 30ff 	mov.w	r0, #4294967295
 8000cea:	f000 f857 	bl	8000d9c <HAL_NVIC_SetPriority>
    uwTickPrio = TickPriority;
 8000cee:	4b05      	ldr	r3, [pc, #20]	; (8000d04 <HAL_InitTick+0x48>)
 8000cf0:	601c      	str	r4, [r3, #0]
  }

  /* Return function status */
  return HAL_OK;
 8000cf2:	2000      	movs	r0, #0
 8000cf4:	e000      	b.n	8000cf8 <HAL_InitTick+0x3c>
    return HAL_ERROR;
 8000cf6:	2001      	movs	r0, #1
}
 8000cf8:	bd10      	pop	{r4, pc}
 8000cfa:	bf00      	nop
 8000cfc:	20000004 	.word	0x20000004
 8000d00:	20000000 	.word	0x20000000
 8000d04:	20000008 	.word	0x20000008

08000d08 <HAL_Init>:
{
 8000d08:	b508      	push	{r3, lr}
  __HAL_FLASH_PREFETCH_BUFFER_ENABLE();
 8000d0a:	4a07      	ldr	r2, [pc, #28]	; (8000d28 <HAL_Init+0x20>)
 8000d0c:	6813      	ldr	r3, [r2, #0]
 8000d0e:	f043 0310 	orr.w	r3, r3, #16
 8000d12:	6013      	str	r3, [r2, #0]
  HAL_NVIC_SetPriorityGrouping(NVIC_PRIORITYGROUP_4);
 8000d14:	2003      	movs	r0, #3
 8000d16:	f000 f82f 	bl	8000d78 <HAL_NVIC_SetPriorityGrouping>
  HAL_InitTick(TICK_INT_PRIORITY);
 8000d1a:	2000      	movs	r0, #0
 8000d1c:	f7ff ffce 	bl	8000cbc <HAL_InitTick>
  HAL_MspInit();
 8000d20:	f7ff fdc6 	bl	80008b0 <HAL_MspInit>
}
 8000d24:	2000      	movs	r0, #0
 8000d26:	bd08      	pop	{r3, pc}
 8000d28:	40022000 	.word	0x40022000

08000d2c <HAL_IncTick>:
  *      implementations in user file.
  * @retval None
  */
__weak void HAL_IncTick(void)
{
  uwTick += uwTickFreq;
 8000d2c:	4a03      	ldr	r2, [pc, #12]	; (8000d3c <HAL_IncTick+0x10>)
 8000d2e:	6811      	ldr	r1, [r2, #0]
 8000d30:	4b03      	ldr	r3, [pc, #12]	; (8000d40 <HAL_IncTick+0x14>)
 8000d32:	781b      	ldrb	r3, [r3, #0]
 8000d34:	440b      	add	r3, r1
 8000d36:	6013      	str	r3, [r2, #0]
}
 8000d38:	4770      	bx	lr
 8000d3a:	bf00      	nop
 8000d3c:	20000164 	.word	0x20000164
 8000d40:	20000004 	.word	0x20000004

08000d44 <HAL_GetTick>:
  *       implementations in user file.
  * @retval tick value
  */
__weak uint32_t HAL_GetTick(void)
{
  return uwTick;
 8000d44:	4b01      	ldr	r3, [pc, #4]	; (8000d4c <HAL_GetTick+0x8>)
 8000d46:	6818      	ldr	r0, [r3, #0]
}
 8000d48:	4770      	bx	lr
 8000d4a:	bf00      	nop
 8000d4c:	20000164 	.word	0x20000164

08000d50 <HAL_Delay>:
  *       implementations in user file.
  * @param Delay specifies the delay time length, in milliseconds.
  * @retval None
  */
__weak void HAL_Delay(uint32_t Delay)
{
 8000d50:	b538      	push	{r3, r4, r5, lr}
 8000d52:	4604      	mov	r4, r0
  uint32_t tickstart = HAL_GetTick();
 8000d54:	f7ff fff6 	bl	8000d44 <HAL_GetTick>
 8000d58:	4605      	mov	r5, r0
  uint32_t wait = Delay;

  /* Add a freq to guarantee minimum wait */
  if (wait < HAL_MAX_DELAY)
 8000d5a:	f1b4 3fff 	cmp.w	r4, #4294967295
 8000d5e:	d002      	beq.n	8000d66 <HAL_Delay+0x16>
  {
    wait += (uint32_t)(uwTickFreq);
 8000d60:	4b04      	ldr	r3, [pc, #16]	; (8000d74 <HAL_Delay+0x24>)
 8000d62:	781b      	ldrb	r3, [r3, #0]
 8000d64:	441c      	add	r4, r3
  }

  while ((HAL_GetTick() - tickstart) < wait)
 8000d66:	f7ff ffed 	bl	8000d44 <HAL_GetTick>
 8000d6a:	1b40      	subs	r0, r0, r5
 8000d6c:	42a0      	cmp	r0, r4
 8000d6e:	d3fa      	bcc.n	8000d66 <HAL_Delay+0x16>
  {
  }
}
 8000d70:	bd38      	pop	{r3, r4, r5, pc}
 8000d72:	bf00      	nop
 8000d74:	20000004 	.word	0x20000004

08000d78 <HAL_NVIC_SetPriorityGrouping>:
__STATIC_INLINE void __NVIC_SetPriorityGrouping(uint32_t PriorityGroup)
{
  uint32_t reg_value;
  uint32_t PriorityGroupTmp = (PriorityGroup & (uint32_t)0x07UL);             /* only values 0..7 are used          */

  reg_value  =  SCB->AIRCR;                                                   /* read old register configuration    */
 8000d78:	4907      	ldr	r1, [pc, #28]	; (8000d98 <HAL_NVIC_SetPriorityGrouping+0x20>)
 8000d7a:	68ca      	ldr	r2, [r1, #12]
  reg_value &= ~((uint32_t)(SCB_AIRCR_VECTKEY_Msk | SCB_AIRCR_PRIGROUP_Msk)); /* clear bits to change               */
  reg_value  =  (reg_value                                   |
                ((uint32_t)0x5FAUL << SCB_AIRCR_VECTKEY_Pos) |
                (PriorityGroupTmp << SCB_AIRCR_PRIGROUP_Pos) );               /* Insert write key and priority group */
 8000d7c:	0203      	lsls	r3, r0, #8
 8000d7e:	f403 63e0 	and.w	r3, r3, #1792	; 0x700
  reg_value &= ~((uint32_t)(SCB_AIRCR_VECTKEY_Msk | SCB_AIRCR_PRIGROUP_Msk)); /* clear bits to change               */
 8000d82:	f422 62e0 	bic.w	r2, r2, #1792	; 0x700
 8000d86:	0412      	lsls	r2, r2, #16
 8000d88:	0c12      	lsrs	r2, r2, #16
                ((uint32_t)0x5FAUL << SCB_AIRCR_VECTKEY_Pos) |
 8000d8a:	4313      	orrs	r3, r2
  reg_value  =  (reg_value                                   |
 8000d8c:	f043 63bf 	orr.w	r3, r3, #100139008	; 0x5f80000
 8000d90:	f443 3300 	orr.w	r3, r3, #131072	; 0x20000
  SCB->AIRCR =  reg_value;
 8000d94:	60cb      	str	r3, [r1, #12]
  /* Check the parameters */
  assert_param(IS_NVIC_PRIORITY_GROUP(PriorityGroup));
  
  /* Set the PRIGROUP[10:8] bits according to the PriorityGroup parameter value */
  NVIC_SetPriorityGrouping(PriorityGroup);
}
 8000d96:	4770      	bx	lr
 8000d98:	e000ed00 	.word	0xe000ed00

08000d9c <HAL_NVIC_SetPriority>:
  *         This parameter can be a value between 0 and 15
  *         A lower priority value indicates a higher priority.          
  * @retval None
  */
void HAL_NVIC_SetPriority(IRQn_Type IRQn, uint32_t PreemptPriority, uint32_t SubPriority)
{ 
 8000d9c:	b430      	push	{r4, r5}
  \details Reads the priority grouping field from the NVIC Interrupt Controller.
  \return                Priority grouping field (SCB->AIRCR [10:8] PRIGROUP field).
 */
__STATIC_INLINE uint32_t __NVIC_GetPriorityGrouping(void)
{
  return ((uint32_t)((SCB->AIRCR & SCB_AIRCR_PRIGROUP_Msk) >> SCB_AIRCR_PRIGROUP_Pos));
 8000d9e:	4b16      	ldr	r3, [pc, #88]	; (8000df8 <HAL_NVIC_SetPriority+0x5c>)
 8000da0:	68db      	ldr	r3, [r3, #12]
 8000da2:	f3c3 2302 	ubfx	r3, r3, #8, #3
{
  uint32_t PriorityGroupTmp = (PriorityGroup & (uint32_t)0x07UL);   /* only values 0..7 are used          */
  uint32_t PreemptPriorityBits;
  uint32_t SubPriorityBits;

  PreemptPriorityBits = ((7UL - PriorityGroupTmp) > (uint32_t)(__NVIC_PRIO_BITS)) ? (uint32_t)(__NVIC_PRIO_BITS) : (uint32_t)(7UL - PriorityGroupTmp);
 8000da6:	f1c3 0407 	rsb	r4, r3, #7
 8000daa:	2c04      	cmp	r4, #4
 8000dac:	bf28      	it	cs
 8000dae:	2404      	movcs	r4, #4
  SubPriorityBits     = ((PriorityGroupTmp + (uint32_t)(__NVIC_PRIO_BITS)) < (uint32_t)7UL) ? (uint32_t)0UL : (uint32_t)((PriorityGroupTmp - 7UL) + (uint32_t)(__NVIC_PRIO_BITS));
 8000db0:	1d1d      	adds	r5, r3, #4
 8000db2:	2d06      	cmp	r5, #6
 8000db4:	bf8c      	ite	hi
 8000db6:	3b03      	subhi	r3, #3
 8000db8:	2300      	movls	r3, #0

  return (
           ((PreemptPriority & (uint32_t)((1UL << (PreemptPriorityBits)) - 1UL)) << SubPriorityBits) |
 8000dba:	f04f 35ff 	mov.w	r5, #4294967295
 8000dbe:	fa05 f404 	lsl.w	r4, r5, r4
 8000dc2:	ea21 0104 	bic.w	r1, r1, r4
 8000dc6:	4099      	lsls	r1, r3
           ((SubPriority     & (uint32_t)((1UL << (SubPriorityBits    )) - 1UL)))
 8000dc8:	fa05 f303 	lsl.w	r3, r5, r3
 8000dcc:	ea22 0203 	bic.w	r2, r2, r3
           ((PreemptPriority & (uint32_t)((1UL << (PreemptPriorityBits)) - 1UL)) << SubPriorityBits) |
 8000dd0:	4311      	orrs	r1, r2
  if ((int32_t)(IRQn) >= 0)
 8000dd2:	2800      	cmp	r0, #0
 8000dd4:	db09      	blt.n	8000dea <HAL_NVIC_SetPriority+0x4e>
    NVIC->IP[((uint32_t)IRQn)]               = (uint8_t)((priority << (8U - __NVIC_PRIO_BITS)) & (uint32_t)0xFFUL);
 8000dd6:	0109      	lsls	r1, r1, #4
 8000dd8:	b2c9      	uxtb	r1, r1
 8000dda:	f100 4060 	add.w	r0, r0, #3758096384	; 0xe0000000
 8000dde:	f500 4061 	add.w	r0, r0, #57600	; 0xe100
 8000de2:	f880 1300 	strb.w	r1, [r0, #768]	; 0x300
  assert_param(IS_NVIC_PREEMPTION_PRIORITY(PreemptPriority));
  
  prioritygroup = NVIC_GetPriorityGrouping();
  
  NVIC_SetPriority(IRQn, NVIC_EncodePriority(prioritygroup, PreemptPriority, SubPriority));
}
 8000de6:	bc30      	pop	{r4, r5}
 8000de8:	4770      	bx	lr
    SCB->SHP[(((uint32_t)IRQn) & 0xFUL)-4UL] = (uint8_t)((priority << (8U - __NVIC_PRIO_BITS)) & (uint32_t)0xFFUL);
 8000dea:	f000 000f 	and.w	r0, r0, #15
 8000dee:	0109      	lsls	r1, r1, #4
 8000df0:	b2c9      	uxtb	r1, r1
 8000df2:	4b02      	ldr	r3, [pc, #8]	; (8000dfc <HAL_NVIC_SetPriority+0x60>)
 8000df4:	5419      	strb	r1, [r3, r0]
 8000df6:	e7f6      	b.n	8000de6 <HAL_NVIC_SetPriority+0x4a>
 8000df8:	e000ed00 	.word	0xe000ed00
 8000dfc:	e000ed14 	.word	0xe000ed14

08000e00 <HAL_SYSTICK_Config>:
           function <b>SysTick_Config</b> is not included. In this case, the file <b><i>device</i>.h</b>
           must contain a vendor-specific implementation of this function.
 */
__STATIC_INLINE uint32_t SysTick_Config(uint32_t ticks)
{
  if ((ticks - 1UL) > SysTick_LOAD_RELOAD_Msk)
 8000e00:	3801      	subs	r0, #1
 8000e02:	f1b0 7f80 	cmp.w	r0, #16777216	; 0x1000000
 8000e06:	d20a      	bcs.n	8000e1e <HAL_SYSTICK_Config+0x1e>
  {
    return (1UL);                                                   /* Reload value impossible */
  }

  SysTick->LOAD  = (uint32_t)(ticks - 1UL);                         /* set reload register */
 8000e08:	4b06      	ldr	r3, [pc, #24]	; (8000e24 <HAL_SYSTICK_Config+0x24>)
 8000e0a:	6058      	str	r0, [r3, #4]
    SCB->SHP[(((uint32_t)IRQn) & 0xFUL)-4UL] = (uint8_t)((priority << (8U - __NVIC_PRIO_BITS)) & (uint32_t)0xFFUL);
 8000e0c:	4a06      	ldr	r2, [pc, #24]	; (8000e28 <HAL_SYSTICK_Config+0x28>)
 8000e0e:	21f0      	movs	r1, #240	; 0xf0
 8000e10:	f882 1023 	strb.w	r1, [r2, #35]	; 0x23
  NVIC_SetPriority (SysTick_IRQn, (1UL << __NVIC_PRIO_BITS) - 1UL); /* set Priority for Systick Interrupt */
  SysTick->VAL   = 0UL;                                             /* Load the SysTick Counter Value */
 8000e14:	2000      	movs	r0, #0
 8000e16:	6098      	str	r0, [r3, #8]
  SysTick->CTRL  = SysTick_CTRL_CLKSOURCE_Msk |
 8000e18:	2207      	movs	r2, #7
 8000e1a:	601a      	str	r2, [r3, #0]
                   SysTick_CTRL_TICKINT_Msk   |
                   SysTick_CTRL_ENABLE_Msk;                         /* Enable SysTick IRQ and SysTick Timer */
  return (0UL);                                                     /* Function successful */
 8000e1c:	4770      	bx	lr
    return (1UL);                                                   /* Reload value impossible */
 8000e1e:	2001      	movs	r0, #1
  *                  - 1  Function failed.
  */
uint32_t HAL_SYSTICK_Config(uint32_t TicksNumb)
{
   return SysTick_Config(TicksNumb);
}
 8000e20:	4770      	bx	lr
 8000e22:	bf00      	nop
 8000e24:	e000e010 	.word	0xe000e010
 8000e28:	e000ed00 	.word	0xe000ed00

08000e2c <HAL_GPIO_Init>:
  * @param  GPIO_Init: pointer to a GPIO_InitTypeDef structure that contains
  *         the configuration information for the specified GPIO peripheral.
  * @retval None
  */
void HAL_GPIO_Init(GPIO_TypeDef  *GPIOx, GPIO_InitTypeDef *GPIO_Init)
{
 8000e2c:	e92d 4ff0 	stmdb	sp!, {r4, r5, r6, r7, r8, r9, sl, fp, lr}
 8000e30:	b083      	sub	sp, #12
  assert_param(IS_GPIO_ALL_INSTANCE(GPIOx));
  assert_param(IS_GPIO_PIN(GPIO_Init->Pin));
  assert_param(IS_GPIO_MODE(GPIO_Init->Mode));

  /* Configure the port pins */
  while (((GPIO_Init->Pin) >> position) != 0x00u)
 8000e32:	680f      	ldr	r7, [r1, #0]
 8000e34:	2f00      	cmp	r7, #0
 8000e36:	f000 80f8 	beq.w	800102a <HAL_GPIO_Init+0x1fe>
  uint32_t config = 0x00u;
 8000e3a:	2200      	movs	r2, #0
  uint32_t position = 0x00u;
 8000e3c:	4613      	mov	r3, r2
      /*--------------------- EXTI Mode Configuration ------------------------*/
      /* Configure the External Interrupt or event for the current IO */
      if ((GPIO_Init->Mode & EXTI_MODE) == EXTI_MODE)
      {
        /* Enable AFIO Clock */
        __HAL_RCC_AFIO_CLK_ENABLE();
 8000e3e:	f8df c200 	ldr.w	ip, [pc, #512]	; 8001040 <HAL_GPIO_Init+0x214>
        {
          SET_BIT(EXTI->FTSR, iocurrent);
        }
        else
        {
          CLEAR_BIT(EXTI->FTSR, iocurrent);
 8000e42:	4d7b      	ldr	r5, [pc, #492]	; (8001030 <HAL_GPIO_Init+0x204>)
      switch (GPIO_Init->Mode)
 8000e44:	4e7b      	ldr	r6, [pc, #492]	; (8001034 <HAL_GPIO_Init+0x208>)
 8000e46:	f8df e1fc 	ldr.w	lr, [pc, #508]	; 8001044 <HAL_GPIO_Init+0x218>
 8000e4a:	f8df 81fc 	ldr.w	r8, [pc, #508]	; 8001048 <HAL_GPIO_Init+0x21c>
 8000e4e:	e09a      	b.n	8000f86 <HAL_GPIO_Init+0x15a>
 8000e50:	2200      	movs	r2, #0
 8000e52:	e01e      	b.n	8000e92 <HAL_GPIO_Init+0x66>
 8000e54:	42b4      	cmp	r4, r6
 8000e56:	d00c      	beq.n	8000e72 <HAL_GPIO_Init+0x46>
 8000e58:	d904      	bls.n	8000e64 <HAL_GPIO_Init+0x38>
 8000e5a:	4574      	cmp	r4, lr
 8000e5c:	d009      	beq.n	8000e72 <HAL_GPIO_Init+0x46>
 8000e5e:	4544      	cmp	r4, r8
 8000e60:	d007      	beq.n	8000e72 <HAL_GPIO_Init+0x46>
 8000e62:	e016      	b.n	8000e92 <HAL_GPIO_Init+0x66>
 8000e64:	4f74      	ldr	r7, [pc, #464]	; (8001038 <HAL_GPIO_Init+0x20c>)
 8000e66:	42bc      	cmp	r4, r7
 8000e68:	d003      	beq.n	8000e72 <HAL_GPIO_Init+0x46>
 8000e6a:	f507 2770 	add.w	r7, r7, #983040	; 0xf0000
 8000e6e:	42bc      	cmp	r4, r7
 8000e70:	d10b      	bne.n	8000e8a <HAL_GPIO_Init+0x5e>
          if (GPIO_Init->Pull == GPIO_NOPULL)
 8000e72:	688a      	ldr	r2, [r1, #8]
 8000e74:	2a00      	cmp	r2, #0
 8000e76:	f000 80ca 	beq.w	800100e <HAL_GPIO_Init+0x1e2>
          else if (GPIO_Init->Pull == GPIO_PULLUP)
 8000e7a:	2a01      	cmp	r2, #1
            GPIOx->BSRR = ioposition;
 8000e7c:	bf0c      	ite	eq
 8000e7e:	f8c0 9010 	streq.w	r9, [r0, #16]
            GPIOx->BRR = ioposition;
 8000e82:	f8c0 9014 	strne.w	r9, [r0, #20]
            config = GPIO_CR_MODE_INPUT + GPIO_CR_CNF_INPUT_PU_PD;
 8000e86:	2208      	movs	r2, #8
 8000e88:	e003      	b.n	8000e92 <HAL_GPIO_Init+0x66>
      switch (GPIO_Init->Mode)
 8000e8a:	f5a7 1780 	sub.w	r7, r7, #1048576	; 0x100000
 8000e8e:	42bc      	cmp	r4, r7
 8000e90:	d0ef      	beq.n	8000e72 <HAL_GPIO_Init+0x46>
      configregister = (iocurrent < GPIO_PIN_8) ? &GPIOx->CRL     : &GPIOx->CRH;
 8000e92:	f1ba 0fff 	cmp.w	sl, #255	; 0xff
 8000e96:	f200 80bc 	bhi.w	8001012 <HAL_GPIO_Init+0x1e6>
 8000e9a:	4607      	mov	r7, r0
      registeroffset = (iocurrent < GPIO_PIN_8) ? (position << 2u) : ((position - 8u) << 2u);
 8000e9c:	ea4f 0983 	mov.w	r9, r3, lsl #2
      MODIFY_REG((*configregister), ((GPIO_CRL_MODE0 | GPIO_CRL_CNF0) << registeroffset), (config << registeroffset));
 8000ea0:	683c      	ldr	r4, [r7, #0]
 8000ea2:	f04f 0b0f 	mov.w	fp, #15
 8000ea6:	fa0b fb09 	lsl.w	fp, fp, r9
 8000eaa:	ea24 040b 	bic.w	r4, r4, fp
 8000eae:	fa02 f909 	lsl.w	r9, r2, r9
 8000eb2:	ea44 0409 	orr.w	r4, r4, r9
 8000eb6:	603c      	str	r4, [r7, #0]
      if ((GPIO_Init->Mode & EXTI_MODE) == EXTI_MODE)
 8000eb8:	684c      	ldr	r4, [r1, #4]
 8000eba:	f014 5f80 	tst.w	r4, #268435456	; 0x10000000
 8000ebe:	d05d      	beq.n	8000f7c <HAL_GPIO_Init+0x150>
        __HAL_RCC_AFIO_CLK_ENABLE();
 8000ec0:	f8dc 4018 	ldr.w	r4, [ip, #24]
 8000ec4:	f044 0401 	orr.w	r4, r4, #1
 8000ec8:	f8cc 4018 	str.w	r4, [ip, #24]
 8000ecc:	f8dc 4018 	ldr.w	r4, [ip, #24]
 8000ed0:	f004 0401 	and.w	r4, r4, #1
 8000ed4:	9401      	str	r4, [sp, #4]
 8000ed6:	9c01      	ldr	r4, [sp, #4]
        temp = AFIO->EXTICR[position >> 2u];
 8000ed8:	f023 0403 	bic.w	r4, r3, #3
 8000edc:	f104 4480 	add.w	r4, r4, #1073741824	; 0x40000000
 8000ee0:	f504 3480 	add.w	r4, r4, #65536	; 0x10000
 8000ee4:	f8d4 9008 	ldr.w	r9, [r4, #8]
        CLEAR_BIT(temp, (0x0Fu) << (4u * (position & 0x03u)));
 8000ee8:	f003 0703 	and.w	r7, r3, #3
 8000eec:	ea4f 0b87 	mov.w	fp, r7, lsl #2
 8000ef0:	270f      	movs	r7, #15
 8000ef2:	fa07 f70b 	lsl.w	r7, r7, fp
 8000ef6:	ea29 0907 	bic.w	r9, r9, r7
        SET_BIT(temp, (GPIO_GET_INDEX(GPIOx)) << (4u * (position & 0x03u)));
 8000efa:	4f50      	ldr	r7, [pc, #320]	; (800103c <HAL_GPIO_Init+0x210>)
 8000efc:	42b8      	cmp	r0, r7
 8000efe:	f000 808e 	beq.w	800101e <HAL_GPIO_Init+0x1f2>
 8000f02:	f507 6780 	add.w	r7, r7, #1024	; 0x400
 8000f06:	42b8      	cmp	r0, r7
 8000f08:	f000 808b 	beq.w	8001022 <HAL_GPIO_Init+0x1f6>
 8000f0c:	f507 6780 	add.w	r7, r7, #1024	; 0x400
 8000f10:	42b8      	cmp	r0, r7
 8000f12:	f000 8088 	beq.w	8001026 <HAL_GPIO_Init+0x1fa>
 8000f16:	f507 6780 	add.w	r7, r7, #1024	; 0x400
 8000f1a:	42b8      	cmp	r0, r7
 8000f1c:	bf0c      	ite	eq
 8000f1e:	2703      	moveq	r7, #3
 8000f20:	2704      	movne	r7, #4
 8000f22:	fa07 f70b 	lsl.w	r7, r7, fp
 8000f26:	ea47 0709 	orr.w	r7, r7, r9
        AFIO->EXTICR[position >> 2u] = temp;
 8000f2a:	60a7      	str	r7, [r4, #8]
        if ((GPIO_Init->Mode & GPIO_MODE_IT) == GPIO_MODE_IT)
 8000f2c:	684c      	ldr	r4, [r1, #4]
 8000f2e:	f414 3f80 	tst.w	r4, #65536	; 0x10000
          SET_BIT(EXTI->IMR, iocurrent);
 8000f32:	682c      	ldr	r4, [r5, #0]
 8000f34:	bf14      	ite	ne
 8000f36:	ea44 040a 	orrne.w	r4, r4, sl
          CLEAR_BIT(EXTI->IMR, iocurrent);
 8000f3a:	ea24 040a 	biceq.w	r4, r4, sl
 8000f3e:	602c      	str	r4, [r5, #0]
        if ((GPIO_Init->Mode & GPIO_MODE_EVT) == GPIO_MODE_EVT)
 8000f40:	684c      	ldr	r4, [r1, #4]
 8000f42:	f414 3f00 	tst.w	r4, #131072	; 0x20000
          SET_BIT(EXTI->EMR, iocurrent);
 8000f46:	686c      	ldr	r4, [r5, #4]
 8000f48:	bf14      	ite	ne
 8000f4a:	ea44 040a 	orrne.w	r4, r4, sl
          CLEAR_BIT(EXTI->EMR, iocurrent);
 8000f4e:	ea24 040a 	biceq.w	r4, r4, sl
 8000f52:	606c      	str	r4, [r5, #4]
        if ((GPIO_Init->Mode & RISING_EDGE) == RISING_EDGE)
 8000f54:	684c      	ldr	r4, [r1, #4]
 8000f56:	f414 1f80 	tst.w	r4, #1048576	; 0x100000
          SET_BIT(EXTI->RTSR, iocurrent);
 8000f5a:	68ac      	ldr	r4, [r5, #8]
 8000f5c:	bf14      	ite	ne
 8000f5e:	ea44 040a 	orrne.w	r4, r4, sl
          CLEAR_BIT(EXTI->RTSR, iocurrent);
 8000f62:	ea24 040a 	biceq.w	r4, r4, sl
 8000f66:	60ac      	str	r4, [r5, #8]
        if ((GPIO_Init->Mode & FALLING_EDGE) == FALLING_EDGE)
 8000f68:	684c      	ldr	r4, [r1, #4]
 8000f6a:	f414 1f00 	tst.w	r4, #2097152	; 0x200000
          SET_BIT(EXTI->FTSR, iocurrent);
 8000f6e:	68ec      	ldr	r4, [r5, #12]
 8000f70:	bf14      	ite	ne
 8000f72:	ea44 040a 	orrne.w	r4, r4, sl
          CLEAR_BIT(EXTI->FTSR, iocurrent);
 8000f76:	ea24 040a 	biceq.w	r4, r4, sl
 8000f7a:	60ec      	str	r4, [r5, #12]
        }
      }
    }

	position++;
 8000f7c:	3301      	adds	r3, #1
  while (((GPIO_Init->Pin) >> position) != 0x00u)
 8000f7e:	680f      	ldr	r7, [r1, #0]
 8000f80:	fa37 f403 	lsrs.w	r4, r7, r3
 8000f84:	d051      	beq.n	800102a <HAL_GPIO_Init+0x1fe>
    ioposition = (0x01uL << position);
 8000f86:	f04f 0901 	mov.w	r9, #1
 8000f8a:	fa09 f903 	lsl.w	r9, r9, r3
    iocurrent = (uint32_t)(GPIO_Init->Pin) & ioposition;
 8000f8e:	ea09 0a07 	and.w	sl, r9, r7
    if (iocurrent == ioposition)
 8000f92:	ea39 0407 	bics.w	r4, r9, r7
 8000f96:	d1f1      	bne.n	8000f7c <HAL_GPIO_Init+0x150>
      switch (GPIO_Init->Mode)
 8000f98:	684c      	ldr	r4, [r1, #4]
 8000f9a:	2c12      	cmp	r4, #18
 8000f9c:	f63f af5a 	bhi.w	8000e54 <HAL_GPIO_Init+0x28>
 8000fa0:	2c12      	cmp	r4, #18
 8000fa2:	f63f af76 	bhi.w	8000e92 <HAL_GPIO_Init+0x66>
 8000fa6:	a701      	add	r7, pc, #4	; (adr r7, 8000fac <HAL_GPIO_Init+0x180>)
 8000fa8:	f857 f024 	ldr.w	pc, [r7, r4, lsl #2]
 8000fac:	08000e73 	.word	0x08000e73
 8000fb0:	08000ff9 	.word	0x08000ff9
 8000fb4:	08001003 	.word	0x08001003
 8000fb8:	08000e51 	.word	0x08000e51
 8000fbc:	08000e93 	.word	0x08000e93
 8000fc0:	08000e93 	.word	0x08000e93
 8000fc4:	08000e93 	.word	0x08000e93
 8000fc8:	08000e93 	.word	0x08000e93
 8000fcc:	08000e93 	.word	0x08000e93
 8000fd0:	08000e93 	.word	0x08000e93
 8000fd4:	08000e93 	.word	0x08000e93
 8000fd8:	08000e93 	.word	0x08000e93
 8000fdc:	08000e93 	.word	0x08000e93
 8000fe0:	08000e93 	.word	0x08000e93
 8000fe4:	08000e93 	.word	0x08000e93
 8000fe8:	08000e93 	.word	0x08000e93
 8000fec:	08000e93 	.word	0x08000e93
 8000ff0:	08000ffd 	.word	0x08000ffd
 8000ff4:	08001009 	.word	0x08001009
          config = GPIO_Init->Speed + GPIO_CR_CNF_GP_OUTPUT_PP;
 8000ff8:	68ca      	ldr	r2, [r1, #12]
          break;
 8000ffa:	e74a      	b.n	8000e92 <HAL_GPIO_Init+0x66>
          config = GPIO_Init->Speed + GPIO_CR_CNF_GP_OUTPUT_OD;
 8000ffc:	68ca      	ldr	r2, [r1, #12]
 8000ffe:	3204      	adds	r2, #4
          break;
 8001000:	e747      	b.n	8000e92 <HAL_GPIO_Init+0x66>
          config = GPIO_Init->Speed + GPIO_CR_CNF_AF_OUTPUT_PP;
 8001002:	68ca      	ldr	r2, [r1, #12]
 8001004:	3208      	adds	r2, #8
          break;
 8001006:	e744      	b.n	8000e92 <HAL_GPIO_Init+0x66>
          config = GPIO_Init->Speed + GPIO_CR_CNF_AF_OUTPUT_OD;
 8001008:	68ca      	ldr	r2, [r1, #12]
 800100a:	320c      	adds	r2, #12
          break;
 800100c:	e741      	b.n	8000e92 <HAL_GPIO_Init+0x66>
            config = GPIO_CR_MODE_INPUT + GPIO_CR_CNF_INPUT_FLOATING;
 800100e:	2204      	movs	r2, #4
 8001010:	e73f      	b.n	8000e92 <HAL_GPIO_Init+0x66>
      configregister = (iocurrent < GPIO_PIN_8) ? &GPIOx->CRL     : &GPIOx->CRH;
 8001012:	1d07      	adds	r7, r0, #4
      registeroffset = (iocurrent < GPIO_PIN_8) ? (position << 2u) : ((position - 8u) << 2u);
 8001014:	ea4f 0983 	mov.w	r9, r3, lsl #2
 8001018:	f1a9 0920 	sub.w	r9, r9, #32
 800101c:	e740      	b.n	8000ea0 <HAL_GPIO_Init+0x74>
        SET_BIT(temp, (GPIO_GET_INDEX(GPIOx)) << (4u * (position & 0x03u)));
 800101e:	2700      	movs	r7, #0
 8001020:	e77f      	b.n	8000f22 <HAL_GPIO_Init+0xf6>
 8001022:	2701      	movs	r7, #1
 8001024:	e77d      	b.n	8000f22 <HAL_GPIO_Init+0xf6>
 8001026:	2702      	movs	r7, #2
 8001028:	e77b      	b.n	8000f22 <HAL_GPIO_Init+0xf6>
  }
}
 800102a:	b003      	add	sp, #12
 800102c:	e8bd 8ff0 	ldmia.w	sp!, {r4, r5, r6, r7, r8, r9, sl, fp, pc}
 8001030:	40010400 	.word	0x40010400
 8001034:	10220000 	.word	0x10220000
 8001038:	10120000 	.word	0x10120000
 800103c:	40010800 	.word	0x40010800
 8001040:	40021000 	.word	0x40021000
 8001044:	10310000 	.word	0x10310000
 8001048:	10320000 	.word	0x10320000

0800104c <HAL_GPIO_ReadPin>:
  GPIO_PinState bitstatus;

  /* Check the parameters */
  assert_param(IS_GPIO_PIN(GPIO_Pin));

  if ((GPIOx->IDR & GPIO_Pin) != (uint32_t)GPIO_PIN_RESET)
 800104c:	6883      	ldr	r3, [r0, #8]
 800104e:	4219      	tst	r1, r3
  else
  {
    bitstatus = GPIO_PIN_RESET;
  }
  return bitstatus;
}
 8001050:	bf14      	ite	ne
 8001052:	2001      	movne	r0, #1
 8001054:	2000      	moveq	r0, #0
 8001056:	4770      	bx	lr

08001058 <HAL_GPIO_WritePin>:
{
  /* Check the parameters */
  assert_param(IS_GPIO_PIN(GPIO_Pin));
  assert_param(IS_GPIO_PIN_ACTION(PinState));

  if (PinState != GPIO_PIN_RESET)
 8001058:	b10a      	cbz	r2, 800105e <HAL_GPIO_WritePin+0x6>
  {
    GPIOx->BSRR = GPIO_Pin;
 800105a:	6101      	str	r1, [r0, #16]
 800105c:	4770      	bx	lr
  }
  else
  {
    GPIOx->BSRR = (uint32_t)GPIO_Pin << 16u;
 800105e:	0409      	lsls	r1, r1, #16
 8001060:	6101      	str	r1, [r0, #16]
  }
}
 8001062:	4770      	bx	lr

08001064 <HAL_GPIO_TogglePin>:

  /* Check the parameters */
  assert_param(IS_GPIO_PIN(GPIO_Pin));

  /* get current Ouput Data Register value */
  odr = GPIOx->ODR;
 8001064:	68c3      	ldr	r3, [r0, #12]

  /* Set selected pins that were at low level, and reset ones that were high */
  GPIOx->BSRR = ((odr & GPIO_Pin) << GPIO_NUMBER) | (~odr & GPIO_Pin);
 8001066:	ea01 0203 	and.w	r2, r1, r3
 800106a:	ea21 0103 	bic.w	r1, r1, r3
 800106e:	ea41 4102 	orr.w	r1, r1, r2, lsl #16
 8001072:	6101      	str	r1, [r0, #16]
}
 8001074:	4770      	bx	lr
	...

08001078 <HAL_RCC_OscConfig>:
{
  uint32_t tickstart;
  uint32_t pll_config;

  /* Check Null pointer */
  if (RCC_OscInitStruct == NULL)
 8001078:	2800      	cmp	r0, #0
 800107a:	f000 8201 	beq.w	8001480 <HAL_RCC_OscConfig+0x408>
{
 800107e:	e92d 41f0 	stmdb	sp!, {r4, r5, r6, r7, r8, lr}
 8001082:	b082      	sub	sp, #8
 8001084:	4604      	mov	r4, r0

  /* Check the parameters */
  assert_param(IS_RCC_OSCILLATORTYPE(RCC_OscInitStruct->OscillatorType));

  /*------------------------------- HSE Configuration ------------------------*/
  if (((RCC_OscInitStruct->OscillatorType) & RCC_OSCILLATORTYPE_HSE) == RCC_OSCILLATORTYPE_HSE)
 8001086:	6803      	ldr	r3, [r0, #0]
 8001088:	f013 0f01 	tst.w	r3, #1
 800108c:	d02c      	beq.n	80010e8 <HAL_RCC_OscConfig+0x70>
  {
    /* Check the parameters */
    assert_param(IS_RCC_HSE(RCC_OscInitStruct->HSEState));

    /* When the HSE is used as system clock or clock source for PLL in these cases it is not allowed to be disabled */
    if ((__HAL_RCC_GET_SYSCLK_SOURCE() == RCC_SYSCLKSOURCE_STATUS_HSE)
 800108e:	4baa      	ldr	r3, [pc, #680]	; (8001338 <HAL_RCC_OscConfig+0x2c0>)
 8001090:	685b      	ldr	r3, [r3, #4]
 8001092:	f003 030c 	and.w	r3, r3, #12
 8001096:	2b04      	cmp	r3, #4
 8001098:	d01d      	beq.n	80010d6 <HAL_RCC_OscConfig+0x5e>
        || ((__HAL_RCC_GET_SYSCLK_SOURCE() == RCC_SYSCLKSOURCE_STATUS_PLLCLK) && (__HAL_RCC_GET_PLL_OSCSOURCE() == RCC_PLLSOURCE_HSE)))
 800109a:	4ba7      	ldr	r3, [pc, #668]	; (8001338 <HAL_RCC_OscConfig+0x2c0>)
 800109c:	685b      	ldr	r3, [r3, #4]
 800109e:	f003 030c 	and.w	r3, r3, #12
 80010a2:	2b08      	cmp	r3, #8
 80010a4:	d012      	beq.n	80010cc <HAL_RCC_OscConfig+0x54>
      }
    }
    else
    {
      /* Set the new HSE configuration ---------------------------------------*/
      __HAL_RCC_HSE_CONFIG(RCC_OscInitStruct->HSEState);
 80010a6:	6863      	ldr	r3, [r4, #4]
 80010a8:	f5b3 3f80 	cmp.w	r3, #65536	; 0x10000
 80010ac:	d041      	beq.n	8001132 <HAL_RCC_OscConfig+0xba>
 80010ae:	2b00      	cmp	r3, #0
 80010b0:	d155      	bne.n	800115e <HAL_RCC_OscConfig+0xe6>
 80010b2:	f103 4380 	add.w	r3, r3, #1073741824	; 0x40000000
 80010b6:	f503 3304 	add.w	r3, r3, #135168	; 0x21000
 80010ba:	681a      	ldr	r2, [r3, #0]
 80010bc:	f422 3280 	bic.w	r2, r2, #65536	; 0x10000
 80010c0:	601a      	str	r2, [r3, #0]
 80010c2:	681a      	ldr	r2, [r3, #0]
 80010c4:	f422 2280 	bic.w	r2, r2, #262144	; 0x40000
 80010c8:	601a      	str	r2, [r3, #0]
 80010ca:	e037      	b.n	800113c <HAL_RCC_OscConfig+0xc4>
        || ((__HAL_RCC_GET_SYSCLK_SOURCE() == RCC_SYSCLKSOURCE_STATUS_PLLCLK) && (__HAL_RCC_GET_PLL_OSCSOURCE() == RCC_PLLSOURCE_HSE)))
 80010cc:	4b9a      	ldr	r3, [pc, #616]	; (8001338 <HAL_RCC_OscConfig+0x2c0>)
 80010ce:	685b      	ldr	r3, [r3, #4]
 80010d0:	f413 3f80 	tst.w	r3, #65536	; 0x10000
 80010d4:	d0e7      	beq.n	80010a6 <HAL_RCC_OscConfig+0x2e>
      if ((__HAL_RCC_GET_FLAG(RCC_FLAG_HSERDY) != RESET) && (RCC_OscInitStruct->HSEState == RCC_HSE_OFF))
 80010d6:	4b98      	ldr	r3, [pc, #608]	; (8001338 <HAL_RCC_OscConfig+0x2c0>)
 80010d8:	681b      	ldr	r3, [r3, #0]
 80010da:	f413 3f00 	tst.w	r3, #131072	; 0x20000
 80010de:	d003      	beq.n	80010e8 <HAL_RCC_OscConfig+0x70>
 80010e0:	6863      	ldr	r3, [r4, #4]
 80010e2:	2b00      	cmp	r3, #0
 80010e4:	f000 81ce 	beq.w	8001484 <HAL_RCC_OscConfig+0x40c>
        }
      }
    }
  }
  /*----------------------------- HSI Configuration --------------------------*/
  if (((RCC_OscInitStruct->OscillatorType) & RCC_OSCILLATORTYPE_HSI) == RCC_OSCILLATORTYPE_HSI)
 80010e8:	6823      	ldr	r3, [r4, #0]
 80010ea:	f013 0f02 	tst.w	r3, #2
 80010ee:	d075      	beq.n	80011dc <HAL_RCC_OscConfig+0x164>
    /* Check the parameters */
    assert_param(IS_RCC_HSI(RCC_OscInitStruct->HSIState));
    assert_param(IS_RCC_CALIBRATION_VALUE(RCC_OscInitStruct->HSICalibrationValue));

    /* Check if HSI is used as system clock or as PLL source when PLL is selected as system clock */
    if ((__HAL_RCC_GET_SYSCLK_SOURCE() == RCC_SYSCLKSOURCE_STATUS_HSI)
 80010f0:	4b91      	ldr	r3, [pc, #580]	; (8001338 <HAL_RCC_OscConfig+0x2c0>)
 80010f2:	685b      	ldr	r3, [r3, #4]
 80010f4:	f013 0f0c 	tst.w	r3, #12
 80010f8:	d05f      	beq.n	80011ba <HAL_RCC_OscConfig+0x142>
        || ((__HAL_RCC_GET_SYSCLK_SOURCE() == RCC_SYSCLKSOURCE_STATUS_PLLCLK) && (__HAL_RCC_GET_PLL_OSCSOURCE() == RCC_PLLSOURCE_HSI_DIV2)))
 80010fa:	4b8f      	ldr	r3, [pc, #572]	; (8001338 <HAL_RCC_OscConfig+0x2c0>)
 80010fc:	685b      	ldr	r3, [r3, #4]
 80010fe:	f003 030c 	and.w	r3, r3, #12
 8001102:	2b08      	cmp	r3, #8
 8001104:	d054      	beq.n	80011b0 <HAL_RCC_OscConfig+0x138>
      }
    }
    else
    {
      /* Check the HSI State */
      if (RCC_OscInitStruct->HSIState != RCC_HSI_OFF)
 8001106:	6923      	ldr	r3, [r4, #16]
 8001108:	2b00      	cmp	r3, #0
 800110a:	f000 8089 	beq.w	8001220 <HAL_RCC_OscConfig+0x1a8>
      {
        /* Enable the Internal High Speed oscillator (HSI). */
        __HAL_RCC_HSI_ENABLE();
 800110e:	4b8b      	ldr	r3, [pc, #556]	; (800133c <HAL_RCC_OscConfig+0x2c4>)
 8001110:	2201      	movs	r2, #1
 8001112:	601a      	str	r2, [r3, #0]

        /* Get Start Tick */
        tickstart = HAL_GetTick();
 8001114:	f7ff fe16 	bl	8000d44 <HAL_GetTick>
 8001118:	4605      	mov	r5, r0

        /* Wait till HSI is ready */
        while (__HAL_RCC_GET_FLAG(RCC_FLAG_HSIRDY) == RESET)
 800111a:	4e87      	ldr	r6, [pc, #540]	; (8001338 <HAL_RCC_OscConfig+0x2c0>)
 800111c:	6833      	ldr	r3, [r6, #0]
 800111e:	f013 0f02 	tst.w	r3, #2
 8001122:	d174      	bne.n	800120e <HAL_RCC_OscConfig+0x196>
        {
          if ((HAL_GetTick() - tickstart) > HSI_TIMEOUT_VALUE)
 8001124:	f7ff fe0e 	bl	8000d44 <HAL_GetTick>
 8001128:	1b40      	subs	r0, r0, r5
 800112a:	2802      	cmp	r0, #2
 800112c:	d9f6      	bls.n	800111c <HAL_RCC_OscConfig+0xa4>
          {
            return HAL_TIMEOUT;
 800112e:	2003      	movs	r0, #3
 8001130:	e1ad      	b.n	800148e <HAL_RCC_OscConfig+0x416>
      __HAL_RCC_HSE_CONFIG(RCC_OscInitStruct->HSEState);
 8001132:	4a81      	ldr	r2, [pc, #516]	; (8001338 <HAL_RCC_OscConfig+0x2c0>)
 8001134:	6813      	ldr	r3, [r2, #0]
 8001136:	f443 3380 	orr.w	r3, r3, #65536	; 0x10000
 800113a:	6013      	str	r3, [r2, #0]
      if (RCC_OscInitStruct->HSEState != RCC_HSE_OFF)
 800113c:	6863      	ldr	r3, [r4, #4]
 800113e:	b343      	cbz	r3, 8001192 <HAL_RCC_OscConfig+0x11a>
        tickstart = HAL_GetTick();
 8001140:	f7ff fe00 	bl	8000d44 <HAL_GetTick>
 8001144:	4605      	mov	r5, r0
        while (__HAL_RCC_GET_FLAG(RCC_FLAG_HSERDY) == RESET)
 8001146:	4e7c      	ldr	r6, [pc, #496]	; (8001338 <HAL_RCC_OscConfig+0x2c0>)
 8001148:	6833      	ldr	r3, [r6, #0]
 800114a:	f413 3f00 	tst.w	r3, #131072	; 0x20000
 800114e:	d1cb      	bne.n	80010e8 <HAL_RCC_OscConfig+0x70>
          if ((HAL_GetTick() - tickstart) > HSE_TIMEOUT_VALUE)
 8001150:	f7ff fdf8 	bl	8000d44 <HAL_GetTick>
 8001154:	1b40      	subs	r0, r0, r5
 8001156:	2864      	cmp	r0, #100	; 0x64
 8001158:	d9f6      	bls.n	8001148 <HAL_RCC_OscConfig+0xd0>
            return HAL_TIMEOUT;
 800115a:	2003      	movs	r0, #3
 800115c:	e197      	b.n	800148e <HAL_RCC_OscConfig+0x416>
      __HAL_RCC_HSE_CONFIG(RCC_OscInitStruct->HSEState);
 800115e:	f5b3 2fa0 	cmp.w	r3, #327680	; 0x50000
 8001162:	d009      	beq.n	8001178 <HAL_RCC_OscConfig+0x100>
 8001164:	4b74      	ldr	r3, [pc, #464]	; (8001338 <HAL_RCC_OscConfig+0x2c0>)
 8001166:	681a      	ldr	r2, [r3, #0]
 8001168:	f422 3280 	bic.w	r2, r2, #65536	; 0x10000
 800116c:	601a      	str	r2, [r3, #0]
 800116e:	681a      	ldr	r2, [r3, #0]
 8001170:	f422 2280 	bic.w	r2, r2, #262144	; 0x40000
 8001174:	601a      	str	r2, [r3, #0]
 8001176:	e7e1      	b.n	800113c <HAL_RCC_OscConfig+0xc4>
 8001178:	f103 4380 	add.w	r3, r3, #1073741824	; 0x40000000
 800117c:	f5a3 333c 	sub.w	r3, r3, #192512	; 0x2f000
 8001180:	681a      	ldr	r2, [r3, #0]
 8001182:	f442 2280 	orr.w	r2, r2, #262144	; 0x40000
 8001186:	601a      	str	r2, [r3, #0]
 8001188:	681a      	ldr	r2, [r3, #0]
 800118a:	f442 3280 	orr.w	r2, r2, #65536	; 0x10000
 800118e:	601a      	str	r2, [r3, #0]
 8001190:	e7d4      	b.n	800113c <HAL_RCC_OscConfig+0xc4>
        tickstart = HAL_GetTick();
 8001192:	f7ff fdd7 	bl	8000d44 <HAL_GetTick>
 8001196:	4605      	mov	r5, r0
        while (__HAL_RCC_GET_FLAG(RCC_FLAG_HSERDY) != RESET)
 8001198:	4e67      	ldr	r6, [pc, #412]	; (8001338 <HAL_RCC_OscConfig+0x2c0>)
 800119a:	6833      	ldr	r3, [r6, #0]
 800119c:	f413 3f00 	tst.w	r3, #131072	; 0x20000
 80011a0:	d0a2      	beq.n	80010e8 <HAL_RCC_OscConfig+0x70>
          if ((HAL_GetTick() - tickstart) > HSE_TIMEOUT_VALUE)
 80011a2:	f7ff fdcf 	bl	8000d44 <HAL_GetTick>
 80011a6:	1b40      	subs	r0, r0, r5
 80011a8:	2864      	cmp	r0, #100	; 0x64
 80011aa:	d9f6      	bls.n	800119a <HAL_RCC_OscConfig+0x122>
            return HAL_TIMEOUT;
 80011ac:	2003      	movs	r0, #3
 80011ae:	e16e      	b.n	800148e <HAL_RCC_OscConfig+0x416>
        || ((__HAL_RCC_GET_SYSCLK_SOURCE() == RCC_SYSCLKSOURCE_STATUS_PLLCLK) && (__HAL_RCC_GET_PLL_OSCSOURCE() == RCC_PLLSOURCE_HSI_DIV2)))
 80011b0:	4b61      	ldr	r3, [pc, #388]	; (8001338 <HAL_RCC_OscConfig+0x2c0>)
 80011b2:	685b      	ldr	r3, [r3, #4]
 80011b4:	f413 3f80 	tst.w	r3, #65536	; 0x10000
 80011b8:	d1a5      	bne.n	8001106 <HAL_RCC_OscConfig+0x8e>
      if ((__HAL_RCC_GET_FLAG(RCC_FLAG_HSIRDY) != RESET) && (RCC_OscInitStruct->HSIState != RCC_HSI_ON))
 80011ba:	4b5f      	ldr	r3, [pc, #380]	; (8001338 <HAL_RCC_OscConfig+0x2c0>)
 80011bc:	681b      	ldr	r3, [r3, #0]
 80011be:	f013 0f02 	tst.w	r3, #2
 80011c2:	d003      	beq.n	80011cc <HAL_RCC_OscConfig+0x154>
 80011c4:	6923      	ldr	r3, [r4, #16]
 80011c6:	2b01      	cmp	r3, #1
 80011c8:	f040 815e 	bne.w	8001488 <HAL_RCC_OscConfig+0x410>
        __HAL_RCC_HSI_CALIBRATIONVALUE_ADJUST(RCC_OscInitStruct->HSICalibrationValue);
 80011cc:	4a5a      	ldr	r2, [pc, #360]	; (8001338 <HAL_RCC_OscConfig+0x2c0>)
 80011ce:	6813      	ldr	r3, [r2, #0]
 80011d0:	6961      	ldr	r1, [r4, #20]
 80011d2:	f023 03f8 	bic.w	r3, r3, #248	; 0xf8
 80011d6:	ea43 03c1 	orr.w	r3, r3, r1, lsl #3
 80011da:	6013      	str	r3, [r2, #0]
        }
      }
    }
  }
  /*------------------------------ LSI Configuration -------------------------*/
  if (((RCC_OscInitStruct->OscillatorType) & RCC_OSCILLATORTYPE_LSI) == RCC_OSCILLATORTYPE_LSI)
 80011dc:	6823      	ldr	r3, [r4, #0]
 80011de:	f013 0f08 	tst.w	r3, #8
 80011e2:	d03c      	beq.n	800125e <HAL_RCC_OscConfig+0x1e6>
  {
    /* Check the parameters */
    assert_param(IS_RCC_LSI(RCC_OscInitStruct->LSIState));

    /* Check the LSI State */
    if (RCC_OscInitStruct->LSIState != RCC_LSI_OFF)
 80011e4:	69a3      	ldr	r3, [r4, #24]
 80011e6:	2b00      	cmp	r3, #0
 80011e8:	d04f      	beq.n	800128a <HAL_RCC_OscConfig+0x212>
    {
      /* Enable the Internal Low Speed oscillator (LSI). */
      __HAL_RCC_LSI_ENABLE();
 80011ea:	4b55      	ldr	r3, [pc, #340]	; (8001340 <HAL_RCC_OscConfig+0x2c8>)
 80011ec:	2201      	movs	r2, #1
 80011ee:	601a      	str	r2, [r3, #0]

      /* Get Start Tick */
      tickstart = HAL_GetTick();
 80011f0:	f7ff fda8 	bl	8000d44 <HAL_GetTick>
 80011f4:	4605      	mov	r5, r0

      /* Wait till LSI is ready */
      while (__HAL_RCC_GET_FLAG(RCC_FLAG_LSIRDY) == RESET)
 80011f6:	4e50      	ldr	r6, [pc, #320]	; (8001338 <HAL_RCC_OscConfig+0x2c0>)
 80011f8:	6a73      	ldr	r3, [r6, #36]	; 0x24
 80011fa:	f013 0f02 	tst.w	r3, #2
 80011fe:	d121      	bne.n	8001244 <HAL_RCC_OscConfig+0x1cc>
      {
        if ((HAL_GetTick() - tickstart) > LSI_TIMEOUT_VALUE)
 8001200:	f7ff fda0 	bl	8000d44 <HAL_GetTick>
 8001204:	1b40      	subs	r0, r0, r5
 8001206:	2802      	cmp	r0, #2
 8001208:	d9f6      	bls.n	80011f8 <HAL_RCC_OscConfig+0x180>
        {
          return HAL_TIMEOUT;
 800120a:	2003      	movs	r0, #3
 800120c:	e13f      	b.n	800148e <HAL_RCC_OscConfig+0x416>
        __HAL_RCC_HSI_CALIBRATIONVALUE_ADJUST(RCC_OscInitStruct->HSICalibrationValue);
 800120e:	4a4a      	ldr	r2, [pc, #296]	; (8001338 <HAL_RCC_OscConfig+0x2c0>)
 8001210:	6813      	ldr	r3, [r2, #0]
 8001212:	6961      	ldr	r1, [r4, #20]
 8001214:	f023 03f8 	bic.w	r3, r3, #248	; 0xf8
 8001218:	ea43 03c1 	orr.w	r3, r3, r1, lsl #3
 800121c:	6013      	str	r3, [r2, #0]
 800121e:	e7dd      	b.n	80011dc <HAL_RCC_OscConfig+0x164>
        __HAL_RCC_HSI_DISABLE();
 8001220:	4b46      	ldr	r3, [pc, #280]	; (800133c <HAL_RCC_OscConfig+0x2c4>)
 8001222:	2200      	movs	r2, #0
 8001224:	601a      	str	r2, [r3, #0]
        tickstart = HAL_GetTick();
 8001226:	f7ff fd8d 	bl	8000d44 <HAL_GetTick>
 800122a:	4605      	mov	r5, r0
        while (__HAL_RCC_GET_FLAG(RCC_FLAG_HSIRDY) != RESET)
 800122c:	4e42      	ldr	r6, [pc, #264]	; (8001338 <HAL_RCC_OscConfig+0x2c0>)
 800122e:	6833      	ldr	r3, [r6, #0]
 8001230:	f013 0f02 	tst.w	r3, #2
 8001234:	d0d2      	beq.n	80011dc <HAL_RCC_OscConfig+0x164>
          if ((HAL_GetTick() - tickstart) > HSI_TIMEOUT_VALUE)
 8001236:	f7ff fd85 	bl	8000d44 <HAL_GetTick>
 800123a:	1b40      	subs	r0, r0, r5
 800123c:	2802      	cmp	r0, #2
 800123e:	d9f6      	bls.n	800122e <HAL_RCC_OscConfig+0x1b6>
            return HAL_TIMEOUT;
 8001240:	2003      	movs	r0, #3
 8001242:	e124      	b.n	800148e <HAL_RCC_OscConfig+0x416>
  * @param  mdelay: specifies the delay time length, in milliseconds.
  * @retval None
  */
static void RCC_Delay(uint32_t mdelay)
{
  __IO uint32_t Delay = mdelay * (SystemCoreClock / 8U / 1000U);
 8001244:	4b3f      	ldr	r3, [pc, #252]	; (8001344 <HAL_RCC_OscConfig+0x2cc>)
 8001246:	681b      	ldr	r3, [r3, #0]
 8001248:	4a3f      	ldr	r2, [pc, #252]	; (8001348 <HAL_RCC_OscConfig+0x2d0>)
 800124a:	fba2 2303 	umull	r2, r3, r2, r3
 800124e:	0a5b      	lsrs	r3, r3, #9
 8001250:	9301      	str	r3, [sp, #4]
  do
  {
    __NOP();
 8001252:	bf00      	nop
  }
  while (Delay --);
 8001254:	9b01      	ldr	r3, [sp, #4]
 8001256:	1e5a      	subs	r2, r3, #1
 8001258:	9201      	str	r2, [sp, #4]
 800125a:	2b00      	cmp	r3, #0
 800125c:	d1f9      	bne.n	8001252 <HAL_RCC_OscConfig+0x1da>
  if (((RCC_OscInitStruct->OscillatorType) & RCC_OSCILLATORTYPE_LSE) == RCC_OSCILLATORTYPE_LSE)
 800125e:	6823      	ldr	r3, [r4, #0]
 8001260:	f013 0f04 	tst.w	r3, #4
 8001264:	f000 809c 	beq.w	80013a0 <HAL_RCC_OscConfig+0x328>
    if (__HAL_RCC_PWR_IS_CLK_DISABLED())
 8001268:	4b33      	ldr	r3, [pc, #204]	; (8001338 <HAL_RCC_OscConfig+0x2c0>)
 800126a:	69db      	ldr	r3, [r3, #28]
 800126c:	f013 5f80 	tst.w	r3, #268435456	; 0x10000000
 8001270:	d11d      	bne.n	80012ae <HAL_RCC_OscConfig+0x236>
      __HAL_RCC_PWR_CLK_ENABLE();
 8001272:	4b31      	ldr	r3, [pc, #196]	; (8001338 <HAL_RCC_OscConfig+0x2c0>)
 8001274:	69da      	ldr	r2, [r3, #28]
 8001276:	f042 5280 	orr.w	r2, r2, #268435456	; 0x10000000
 800127a:	61da      	str	r2, [r3, #28]
 800127c:	69db      	ldr	r3, [r3, #28]
 800127e:	f003 5380 	and.w	r3, r3, #268435456	; 0x10000000
 8001282:	9300      	str	r3, [sp, #0]
 8001284:	9b00      	ldr	r3, [sp, #0]
      pwrclkchanged = SET;
 8001286:	2501      	movs	r5, #1
 8001288:	e012      	b.n	80012b0 <HAL_RCC_OscConfig+0x238>
      __HAL_RCC_LSI_DISABLE();
 800128a:	4b2d      	ldr	r3, [pc, #180]	; (8001340 <HAL_RCC_OscConfig+0x2c8>)
 800128c:	2200      	movs	r2, #0
 800128e:	601a      	str	r2, [r3, #0]
      tickstart = HAL_GetTick();
 8001290:	f7ff fd58 	bl	8000d44 <HAL_GetTick>
 8001294:	4605      	mov	r5, r0
      while (__HAL_RCC_GET_FLAG(RCC_FLAG_LSIRDY) != RESET)
 8001296:	4e28      	ldr	r6, [pc, #160]	; (8001338 <HAL_RCC_OscConfig+0x2c0>)
 8001298:	6a73      	ldr	r3, [r6, #36]	; 0x24
 800129a:	f013 0f02 	tst.w	r3, #2
 800129e:	d0de      	beq.n	800125e <HAL_RCC_OscConfig+0x1e6>
        if ((HAL_GetTick() - tickstart) > LSI_TIMEOUT_VALUE)
 80012a0:	f7ff fd50 	bl	8000d44 <HAL_GetTick>
 80012a4:	1b40      	subs	r0, r0, r5
 80012a6:	2802      	cmp	r0, #2
 80012a8:	d9f6      	bls.n	8001298 <HAL_RCC_OscConfig+0x220>
          return HAL_TIMEOUT;
 80012aa:	2003      	movs	r0, #3
 80012ac:	e0ef      	b.n	800148e <HAL_RCC_OscConfig+0x416>
    FlagStatus       pwrclkchanged = RESET;
 80012ae:	2500      	movs	r5, #0
    if (HAL_IS_BIT_CLR(PWR->CR, PWR_CR_DBP))
 80012b0:	4b26      	ldr	r3, [pc, #152]	; (800134c <HAL_RCC_OscConfig+0x2d4>)
 80012b2:	681b      	ldr	r3, [r3, #0]
 80012b4:	f413 7f80 	tst.w	r3, #256	; 0x100
 80012b8:	d011      	beq.n	80012de <HAL_RCC_OscConfig+0x266>
    __HAL_RCC_LSE_CONFIG(RCC_OscInitStruct->LSEState);
 80012ba:	68e3      	ldr	r3, [r4, #12]
 80012bc:	2b01      	cmp	r3, #1
 80012be:	d022      	beq.n	8001306 <HAL_RCC_OscConfig+0x28e>
 80012c0:	2b00      	cmp	r3, #0
 80012c2:	d145      	bne.n	8001350 <HAL_RCC_OscConfig+0x2d8>
 80012c4:	f103 4380 	add.w	r3, r3, #1073741824	; 0x40000000
 80012c8:	f503 3304 	add.w	r3, r3, #135168	; 0x21000
 80012cc:	6a1a      	ldr	r2, [r3, #32]
 80012ce:	f022 0201 	bic.w	r2, r2, #1
 80012d2:	621a      	str	r2, [r3, #32]
 80012d4:	6a1a      	ldr	r2, [r3, #32]
 80012d6:	f022 0204 	bic.w	r2, r2, #4
 80012da:	621a      	str	r2, [r3, #32]
 80012dc:	e018      	b.n	8001310 <HAL_RCC_OscConfig+0x298>
      SET_BIT(PWR->CR, PWR_CR_DBP);
 80012de:	4a1b      	ldr	r2, [pc, #108]	; (800134c <HAL_RCC_OscConfig+0x2d4>)
 80012e0:	6813      	ldr	r3, [r2, #0]
 80012e2:	f443 7380 	orr.w	r3, r3, #256	; 0x100
 80012e6:	6013      	str	r3, [r2, #0]
      tickstart = HAL_GetTick();
 80012e8:	f7ff fd2c 	bl	8000d44 <HAL_GetTick>
 80012ec:	4606      	mov	r6, r0
      while (HAL_IS_BIT_CLR(PWR->CR, PWR_CR_DBP))
 80012ee:	4f17      	ldr	r7, [pc, #92]	; (800134c <HAL_RCC_OscConfig+0x2d4>)
 80012f0:	683b      	ldr	r3, [r7, #0]
 80012f2:	f413 7f80 	tst.w	r3, #256	; 0x100
 80012f6:	d1e0      	bne.n	80012ba <HAL_RCC_OscConfig+0x242>
        if ((HAL_GetTick() - tickstart) > RCC_DBP_TIMEOUT_VALUE)
 80012f8:	f7ff fd24 	bl	8000d44 <HAL_GetTick>
 80012fc:	1b80      	subs	r0, r0, r6
 80012fe:	2864      	cmp	r0, #100	; 0x64
 8001300:	d9f6      	bls.n	80012f0 <HAL_RCC_OscConfig+0x278>
          return HAL_TIMEOUT;
 8001302:	2003      	movs	r0, #3
 8001304:	e0c3      	b.n	800148e <HAL_RCC_OscConfig+0x416>
    __HAL_RCC_LSE_CONFIG(RCC_OscInitStruct->LSEState);
 8001306:	4a0c      	ldr	r2, [pc, #48]	; (8001338 <HAL_RCC_OscConfig+0x2c0>)
 8001308:	6a13      	ldr	r3, [r2, #32]
 800130a:	f043 0301 	orr.w	r3, r3, #1
 800130e:	6213      	str	r3, [r2, #32]
    if (RCC_OscInitStruct->LSEState != RCC_LSE_OFF)
 8001310:	68e3      	ldr	r3, [r4, #12]
 8001312:	2b00      	cmp	r3, #0
 8001314:	d032      	beq.n	800137c <HAL_RCC_OscConfig+0x304>
      tickstart = HAL_GetTick();
 8001316:	f7ff fd15 	bl	8000d44 <HAL_GetTick>
 800131a:	4606      	mov	r6, r0
      while (__HAL_RCC_GET_FLAG(RCC_FLAG_LSERDY) == RESET)
 800131c:	4f06      	ldr	r7, [pc, #24]	; (8001338 <HAL_RCC_OscConfig+0x2c0>)
        if ((HAL_GetTick() - tickstart) > RCC_LSE_TIMEOUT_VALUE)
 800131e:	f241 3888 	movw	r8, #5000	; 0x1388
      while (__HAL_RCC_GET_FLAG(RCC_FLAG_LSERDY) == RESET)
 8001322:	6a3b      	ldr	r3, [r7, #32]
 8001324:	f013 0f02 	tst.w	r3, #2
 8001328:	d139      	bne.n	800139e <HAL_RCC_OscConfig+0x326>
        if ((HAL_GetTick() - tickstart) > RCC_LSE_TIMEOUT_VALUE)
 800132a:	f7ff fd0b 	bl	8000d44 <HAL_GetTick>
 800132e:	1b80      	subs	r0, r0, r6
 8001330:	4540      	cmp	r0, r8
 8001332:	d9f6      	bls.n	8001322 <HAL_RCC_OscConfig+0x2aa>
          return HAL_TIMEOUT;
 8001334:	2003      	movs	r0, #3
 8001336:	e0aa      	b.n	800148e <HAL_RCC_OscConfig+0x416>
 8001338:	40021000 	.word	0x40021000
 800133c:	42420000 	.word	0x42420000
 8001340:	42420480 	.word	0x42420480
 8001344:	20000000 	.word	0x20000000
 8001348:	10624dd3 	.word	0x10624dd3
 800134c:	40007000 	.word	0x40007000
    __HAL_RCC_LSE_CONFIG(RCC_OscInitStruct->LSEState);
 8001350:	2b05      	cmp	r3, #5
 8001352:	d009      	beq.n	8001368 <HAL_RCC_OscConfig+0x2f0>
 8001354:	4b51      	ldr	r3, [pc, #324]	; (800149c <HAL_RCC_OscConfig+0x424>)
 8001356:	6a1a      	ldr	r2, [r3, #32]
 8001358:	f022 0201 	bic.w	r2, r2, #1
 800135c:	621a      	str	r2, [r3, #32]
 800135e:	6a1a      	ldr	r2, [r3, #32]
 8001360:	f022 0204 	bic.w	r2, r2, #4
 8001364:	621a      	str	r2, [r3, #32]
 8001366:	e7d3      	b.n	8001310 <HAL_RCC_OscConfig+0x298>
 8001368:	4b4c      	ldr	r3, [pc, #304]	; (800149c <HAL_RCC_OscConfig+0x424>)
 800136a:	6a1a      	ldr	r2, [r3, #32]
 800136c:	f042 0204 	orr.w	r2, r2, #4
 8001370:	621a      	str	r2, [r3, #32]
 8001372:	6a1a      	ldr	r2, [r3, #32]
 8001374:	f042 0201 	orr.w	r2, r2, #1
 8001378:	621a      	str	r2, [r3, #32]
 800137a:	e7c9      	b.n	8001310 <HAL_RCC_OscConfig+0x298>
      tickstart = HAL_GetTick();
 800137c:	f7ff fce2 	bl	8000d44 <HAL_GetTick>
 8001380:	4606      	mov	r6, r0
      while (__HAL_RCC_GET_FLAG(RCC_FLAG_LSERDY) != RESET)
 8001382:	4f46      	ldr	r7, [pc, #280]	; (800149c <HAL_RCC_OscConfig+0x424>)
        if ((HAL_GetTick() - tickstart) > RCC_LSE_TIMEOUT_VALUE)
 8001384:	f241 3888 	movw	r8, #5000	; 0x1388
      while (__HAL_RCC_GET_FLAG(RCC_FLAG_LSERDY) != RESET)
 8001388:	6a3b      	ldr	r3, [r7, #32]
 800138a:	f013 0f02 	tst.w	r3, #2
 800138e:	d006      	beq.n	800139e <HAL_RCC_OscConfig+0x326>
        if ((HAL_GetTick() - tickstart) > RCC_LSE_TIMEOUT_VALUE)
 8001390:	f7ff fcd8 	bl	8000d44 <HAL_GetTick>
 8001394:	1b80      	subs	r0, r0, r6
 8001396:	4540      	cmp	r0, r8
 8001398:	d9f6      	bls.n	8001388 <HAL_RCC_OscConfig+0x310>
          return HAL_TIMEOUT;
 800139a:	2003      	movs	r0, #3
 800139c:	e077      	b.n	800148e <HAL_RCC_OscConfig+0x416>
    if (pwrclkchanged == SET)
 800139e:	b9e5      	cbnz	r5, 80013da <HAL_RCC_OscConfig+0x362>
  if ((RCC_OscInitStruct->PLL.PLLState) != RCC_PLL_NONE)
 80013a0:	69e3      	ldr	r3, [r4, #28]
 80013a2:	2b00      	cmp	r3, #0
 80013a4:	d072      	beq.n	800148c <HAL_RCC_OscConfig+0x414>
    if (__HAL_RCC_GET_SYSCLK_SOURCE() != RCC_SYSCLKSOURCE_STATUS_PLLCLK)
 80013a6:	4a3d      	ldr	r2, [pc, #244]	; (800149c <HAL_RCC_OscConfig+0x424>)
 80013a8:	6852      	ldr	r2, [r2, #4]
 80013aa:	f002 020c 	and.w	r2, r2, #12
 80013ae:	2a08      	cmp	r2, #8
 80013b0:	d056      	beq.n	8001460 <HAL_RCC_OscConfig+0x3e8>
      if ((RCC_OscInitStruct->PLL.PLLState) == RCC_PLL_ON)
 80013b2:	2b02      	cmp	r3, #2
 80013b4:	d017      	beq.n	80013e6 <HAL_RCC_OscConfig+0x36e>
        __HAL_RCC_PLL_DISABLE();
 80013b6:	4b3a      	ldr	r3, [pc, #232]	; (80014a0 <HAL_RCC_OscConfig+0x428>)
 80013b8:	2200      	movs	r2, #0
 80013ba:	601a      	str	r2, [r3, #0]
        tickstart = HAL_GetTick();
 80013bc:	f7ff fcc2 	bl	8000d44 <HAL_GetTick>
 80013c0:	4604      	mov	r4, r0
        while (__HAL_RCC_GET_FLAG(RCC_FLAG_PLLRDY)  != RESET)
 80013c2:	4d36      	ldr	r5, [pc, #216]	; (800149c <HAL_RCC_OscConfig+0x424>)
 80013c4:	682b      	ldr	r3, [r5, #0]
 80013c6:	f013 7f00 	tst.w	r3, #33554432	; 0x2000000
 80013ca:	d047      	beq.n	800145c <HAL_RCC_OscConfig+0x3e4>
          if ((HAL_GetTick() - tickstart) > PLL_TIMEOUT_VALUE)
 80013cc:	f7ff fcba 	bl	8000d44 <HAL_GetTick>
 80013d0:	1b00      	subs	r0, r0, r4
 80013d2:	2802      	cmp	r0, #2
 80013d4:	d9f6      	bls.n	80013c4 <HAL_RCC_OscConfig+0x34c>
            return HAL_TIMEOUT;
 80013d6:	2003      	movs	r0, #3
 80013d8:	e059      	b.n	800148e <HAL_RCC_OscConfig+0x416>
      __HAL_RCC_PWR_CLK_DISABLE();
 80013da:	4a30      	ldr	r2, [pc, #192]	; (800149c <HAL_RCC_OscConfig+0x424>)
 80013dc:	69d3      	ldr	r3, [r2, #28]
 80013de:	f023 5380 	bic.w	r3, r3, #268435456	; 0x10000000
 80013e2:	61d3      	str	r3, [r2, #28]
 80013e4:	e7dc      	b.n	80013a0 <HAL_RCC_OscConfig+0x328>
        __HAL_RCC_PLL_DISABLE();
 80013e6:	4b2e      	ldr	r3, [pc, #184]	; (80014a0 <HAL_RCC_OscConfig+0x428>)
 80013e8:	2200      	movs	r2, #0
 80013ea:	601a      	str	r2, [r3, #0]
        tickstart = HAL_GetTick();
 80013ec:	f7ff fcaa 	bl	8000d44 <HAL_GetTick>
 80013f0:	4605      	mov	r5, r0
        while (__HAL_RCC_GET_FLAG(RCC_FLAG_PLLRDY)  != RESET)
 80013f2:	4e2a      	ldr	r6, [pc, #168]	; (800149c <HAL_RCC_OscConfig+0x424>)
 80013f4:	6833      	ldr	r3, [r6, #0]
 80013f6:	f013 7f00 	tst.w	r3, #33554432	; 0x2000000
 80013fa:	d006      	beq.n	800140a <HAL_RCC_OscConfig+0x392>
          if ((HAL_GetTick() - tickstart) > PLL_TIMEOUT_VALUE)
 80013fc:	f7ff fca2 	bl	8000d44 <HAL_GetTick>
 8001400:	1b40      	subs	r0, r0, r5
 8001402:	2802      	cmp	r0, #2
 8001404:	d9f6      	bls.n	80013f4 <HAL_RCC_OscConfig+0x37c>
            return HAL_TIMEOUT;
 8001406:	2003      	movs	r0, #3
 8001408:	e041      	b.n	800148e <HAL_RCC_OscConfig+0x416>
        if (RCC_OscInitStruct->PLL.PLLSource == RCC_PLLSOURCE_HSE)
 800140a:	6a23      	ldr	r3, [r4, #32]
 800140c:	f5b3 3f80 	cmp.w	r3, #65536	; 0x10000
 8001410:	d01a      	beq.n	8001448 <HAL_RCC_OscConfig+0x3d0>
        __HAL_RCC_PLL_CONFIG(RCC_OscInitStruct->PLL.PLLSource,
 8001412:	4922      	ldr	r1, [pc, #136]	; (800149c <HAL_RCC_OscConfig+0x424>)
 8001414:	684a      	ldr	r2, [r1, #4]
 8001416:	6a23      	ldr	r3, [r4, #32]
 8001418:	6a60      	ldr	r0, [r4, #36]	; 0x24
 800141a:	4303      	orrs	r3, r0
 800141c:	f422 1274 	bic.w	r2, r2, #3997696	; 0x3d0000
 8001420:	4313      	orrs	r3, r2
 8001422:	604b      	str	r3, [r1, #4]
        __HAL_RCC_PLL_ENABLE();
 8001424:	4b1e      	ldr	r3, [pc, #120]	; (80014a0 <HAL_RCC_OscConfig+0x428>)
 8001426:	2201      	movs	r2, #1
 8001428:	601a      	str	r2, [r3, #0]
        tickstart = HAL_GetTick();
 800142a:	f7ff fc8b 	bl	8000d44 <HAL_GetTick>
 800142e:	4604      	mov	r4, r0
        while (__HAL_RCC_GET_FLAG(RCC_FLAG_PLLRDY)  == RESET)
 8001430:	4d1a      	ldr	r5, [pc, #104]	; (800149c <HAL_RCC_OscConfig+0x424>)
 8001432:	682b      	ldr	r3, [r5, #0]
 8001434:	f013 7f00 	tst.w	r3, #33554432	; 0x2000000
 8001438:	d10e      	bne.n	8001458 <HAL_RCC_OscConfig+0x3e0>
          if ((HAL_GetTick() - tickstart) > PLL_TIMEOUT_VALUE)
 800143a:	f7ff fc83 	bl	8000d44 <HAL_GetTick>
 800143e:	1b00      	subs	r0, r0, r4
 8001440:	2802      	cmp	r0, #2
 8001442:	d9f6      	bls.n	8001432 <HAL_RCC_OscConfig+0x3ba>
            return HAL_TIMEOUT;
 8001444:	2003      	movs	r0, #3
 8001446:	e022      	b.n	800148e <HAL_RCC_OscConfig+0x416>
          __HAL_RCC_HSE_PREDIV_CONFIG(RCC_OscInitStruct->HSEPredivValue);
 8001448:	4a14      	ldr	r2, [pc, #80]	; (800149c <HAL_RCC_OscConfig+0x424>)
 800144a:	6853      	ldr	r3, [r2, #4]
 800144c:	f423 3300 	bic.w	r3, r3, #131072	; 0x20000
 8001450:	68a1      	ldr	r1, [r4, #8]
 8001452:	430b      	orrs	r3, r1
 8001454:	6053      	str	r3, [r2, #4]
 8001456:	e7dc      	b.n	8001412 <HAL_RCC_OscConfig+0x39a>
  return HAL_OK;
 8001458:	2000      	movs	r0, #0
 800145a:	e018      	b.n	800148e <HAL_RCC_OscConfig+0x416>
 800145c:	2000      	movs	r0, #0
 800145e:	e016      	b.n	800148e <HAL_RCC_OscConfig+0x416>
      if ((RCC_OscInitStruct->PLL.PLLState) == RCC_PLL_OFF)
 8001460:	2b01      	cmp	r3, #1
 8001462:	d017      	beq.n	8001494 <HAL_RCC_OscConfig+0x41c>
        pll_config = RCC->CFGR;
 8001464:	4b0d      	ldr	r3, [pc, #52]	; (800149c <HAL_RCC_OscConfig+0x424>)
 8001466:	685b      	ldr	r3, [r3, #4]
        if ((READ_BIT(pll_config, RCC_CFGR_PLLSRC) != RCC_OscInitStruct->PLL.PLLSource) ||
 8001468:	f403 3180 	and.w	r1, r3, #65536	; 0x10000
 800146c:	6a22      	ldr	r2, [r4, #32]
 800146e:	4291      	cmp	r1, r2
 8001470:	d112      	bne.n	8001498 <HAL_RCC_OscConfig+0x420>
            (READ_BIT(pll_config, RCC_CFGR_PLLMULL) != RCC_OscInitStruct->PLL.PLLMUL))
 8001472:	f403 1370 	and.w	r3, r3, #3932160	; 0x3c0000
        if ((READ_BIT(pll_config, RCC_CFGR_PLLSRC) != RCC_OscInitStruct->PLL.PLLSource) ||
 8001476:	6a60      	ldr	r0, [r4, #36]	; 0x24
        return HAL_ERROR;
 8001478:	1a18      	subs	r0, r3, r0
 800147a:	bf18      	it	ne
 800147c:	2001      	movne	r0, #1
 800147e:	e006      	b.n	800148e <HAL_RCC_OscConfig+0x416>
    return HAL_ERROR;
 8001480:	2001      	movs	r0, #1
}
 8001482:	4770      	bx	lr
        return HAL_ERROR;
 8001484:	2001      	movs	r0, #1
 8001486:	e002      	b.n	800148e <HAL_RCC_OscConfig+0x416>
        return HAL_ERROR;
 8001488:	2001      	movs	r0, #1
 800148a:	e000      	b.n	800148e <HAL_RCC_OscConfig+0x416>
  return HAL_OK;
 800148c:	2000      	movs	r0, #0
}
 800148e:	b002      	add	sp, #8
 8001490:	e8bd 81f0 	ldmia.w	sp!, {r4, r5, r6, r7, r8, pc}
        return HAL_ERROR;
 8001494:	2001      	movs	r0, #1
 8001496:	e7fa      	b.n	800148e <HAL_RCC_OscConfig+0x416>
          return HAL_ERROR;
 8001498:	2001      	movs	r0, #1
 800149a:	e7f8      	b.n	800148e <HAL_RCC_OscConfig+0x416>
 800149c:	40021000 	.word	0x40021000
 80014a0:	42420060 	.word	0x42420060

080014a4 <HAL_RCC_GetSysClockFreq>:
{
 80014a4:	b086      	sub	sp, #24
  const uint8_t aPLLMULFactorTable[16] = {2, 3, 4, 5, 6, 7, 8, 9, 10, 11, 12, 13, 14, 15, 16, 16};
 80014a6:	4b16      	ldr	r3, [pc, #88]	; (8001500 <HAL_RCC_GetSysClockFreq+0x5c>)
 80014a8:	cb0f      	ldmia	r3, {r0, r1, r2, r3}
 80014aa:	f10d 0c18 	add.w	ip, sp, #24
 80014ae:	e90c 000f 	stmdb	ip, {r0, r1, r2, r3}
  const uint8_t aPredivFactorTable[2] = {1, 2};
 80014b2:	f240 2301 	movw	r3, #513	; 0x201
 80014b6:	f8ad 3004 	strh.w	r3, [sp, #4]
  tmpreg = RCC->CFGR;
 80014ba:	4b12      	ldr	r3, [pc, #72]	; (8001504 <HAL_RCC_GetSysClockFreq+0x60>)
 80014bc:	685b      	ldr	r3, [r3, #4]
  switch (tmpreg & RCC_CFGR_SWS)
 80014be:	f003 020c 	and.w	r2, r3, #12
 80014c2:	2a08      	cmp	r2, #8
 80014c4:	d002      	beq.n	80014cc <HAL_RCC_GetSysClockFreq+0x28>
      sysclockfreq = HSE_VALUE;
 80014c6:	4810      	ldr	r0, [pc, #64]	; (8001508 <HAL_RCC_GetSysClockFreq+0x64>)
}
 80014c8:	b006      	add	sp, #24
 80014ca:	4770      	bx	lr
      pllmul = aPLLMULFactorTable[(uint32_t)(tmpreg & RCC_CFGR_PLLMULL) >> RCC_CFGR_PLLMULL_Pos];
 80014cc:	f3c3 4283 	ubfx	r2, r3, #18, #4
 80014d0:	4462      	add	r2, ip
 80014d2:	f812 2c10 	ldrb.w	r2, [r2, #-16]
      if ((tmpreg & RCC_CFGR_PLLSRC) != RCC_PLLSOURCE_HSI_DIV2)
 80014d6:	f413 3f80 	tst.w	r3, #65536	; 0x10000
 80014da:	d00c      	beq.n	80014f6 <HAL_RCC_GetSysClockFreq+0x52>
        prediv = aPredivFactorTable[(uint32_t)(RCC->CFGR & RCC_CFGR_PLLXTPRE) >> RCC_CFGR_PLLXTPRE_Pos];
 80014dc:	4b09      	ldr	r3, [pc, #36]	; (8001504 <HAL_RCC_GetSysClockFreq+0x60>)
 80014de:	685b      	ldr	r3, [r3, #4]
        pllclk = (uint32_t)((HSE_VALUE  * pllmul) / prediv);
 80014e0:	4809      	ldr	r0, [pc, #36]	; (8001508 <HAL_RCC_GetSysClockFreq+0x64>)
 80014e2:	fb00 f002 	mul.w	r0, r0, r2
        prediv = aPredivFactorTable[(uint32_t)(RCC->CFGR & RCC_CFGR_PLLXTPRE) >> RCC_CFGR_PLLXTPRE_Pos];
 80014e6:	f3c3 4340 	ubfx	r3, r3, #17, #1
 80014ea:	4463      	add	r3, ip
 80014ec:	f813 3c14 	ldrb.w	r3, [r3, #-20]
        pllclk = (uint32_t)((HSE_VALUE  * pllmul) / prediv);
 80014f0:	fbb0 f0f3 	udiv	r0, r0, r3
 80014f4:	e7e8      	b.n	80014c8 <HAL_RCC_GetSysClockFreq+0x24>
        pllclk = (uint32_t)((HSI_VALUE >> 1) * pllmul);
 80014f6:	4805      	ldr	r0, [pc, #20]	; (800150c <HAL_RCC_GetSysClockFreq+0x68>)
 80014f8:	fb00 f002 	mul.w	r0, r0, r2
 80014fc:	e7e4      	b.n	80014c8 <HAL_RCC_GetSysClockFreq+0x24>
 80014fe:	bf00      	nop
 8001500:	08001df0 	.word	0x08001df0
 8001504:	40021000 	.word	0x40021000
 8001508:	007a1200 	.word	0x007a1200
 800150c:	003d0900 	.word	0x003d0900

08001510 <HAL_RCC_ClockConfig>:
  if (RCC_ClkInitStruct == NULL)
 8001510:	2800      	cmp	r0, #0
 8001512:	f000 80a2 	beq.w	800165a <HAL_RCC_ClockConfig+0x14a>
{
 8001516:	e92d 41f0 	stmdb	sp!, {r4, r5, r6, r7, r8, lr}
 800151a:	460d      	mov	r5, r1
 800151c:	4604      	mov	r4, r0
  if (FLatency > __HAL_FLASH_GET_LATENCY())
 800151e:	4b53      	ldr	r3, [pc, #332]	; (800166c <HAL_RCC_ClockConfig+0x15c>)
 8001520:	681b      	ldr	r3, [r3, #0]
 8001522:	f003 0307 	and.w	r3, r3, #7
 8001526:	428b      	cmp	r3, r1
 8001528:	d20b      	bcs.n	8001542 <HAL_RCC_ClockConfig+0x32>
    __HAL_FLASH_SET_LATENCY(FLatency);
 800152a:	4a50      	ldr	r2, [pc, #320]	; (800166c <HAL_RCC_ClockConfig+0x15c>)
 800152c:	6813      	ldr	r3, [r2, #0]
 800152e:	f023 0307 	bic.w	r3, r3, #7
 8001532:	430b      	orrs	r3, r1
 8001534:	6013      	str	r3, [r2, #0]
    if (__HAL_FLASH_GET_LATENCY() != FLatency)
 8001536:	6813      	ldr	r3, [r2, #0]
 8001538:	f003 0307 	and.w	r3, r3, #7
 800153c:	428b      	cmp	r3, r1
 800153e:	f040 808e 	bne.w	800165e <HAL_RCC_ClockConfig+0x14e>
if (((RCC_ClkInitStruct->ClockType) & RCC_CLOCKTYPE_HCLK) == RCC_CLOCKTYPE_HCLK)
 8001542:	6823      	ldr	r3, [r4, #0]
 8001544:	f013 0f02 	tst.w	r3, #2
 8001548:	d017      	beq.n	800157a <HAL_RCC_ClockConfig+0x6a>
    if (((RCC_ClkInitStruct->ClockType) & RCC_CLOCKTYPE_PCLK1) == RCC_CLOCKTYPE_PCLK1)
 800154a:	f013 0f04 	tst.w	r3, #4
 800154e:	d004      	beq.n	800155a <HAL_RCC_ClockConfig+0x4a>
      MODIFY_REG(RCC->CFGR, RCC_CFGR_PPRE1, RCC_HCLK_DIV16);
 8001550:	4a47      	ldr	r2, [pc, #284]	; (8001670 <HAL_RCC_ClockConfig+0x160>)
 8001552:	6853      	ldr	r3, [r2, #4]
 8001554:	f443 63e0 	orr.w	r3, r3, #1792	; 0x700
 8001558:	6053      	str	r3, [r2, #4]
    if (((RCC_ClkInitStruct->ClockType) & RCC_CLOCKTYPE_PCLK2) == RCC_CLOCKTYPE_PCLK2)
 800155a:	6823      	ldr	r3, [r4, #0]
 800155c:	f013 0f08 	tst.w	r3, #8
 8001560:	d004      	beq.n	800156c <HAL_RCC_ClockConfig+0x5c>
      MODIFY_REG(RCC->CFGR, RCC_CFGR_PPRE2, (RCC_HCLK_DIV16 << 3));
 8001562:	4a43      	ldr	r2, [pc, #268]	; (8001670 <HAL_RCC_ClockConfig+0x160>)
 8001564:	6853      	ldr	r3, [r2, #4]
 8001566:	f443 5360 	orr.w	r3, r3, #14336	; 0x3800
 800156a:	6053      	str	r3, [r2, #4]
    MODIFY_REG(RCC->CFGR, RCC_CFGR_HPRE, RCC_ClkInitStruct->AHBCLKDivider);
 800156c:	4a40      	ldr	r2, [pc, #256]	; (8001670 <HAL_RCC_ClockConfig+0x160>)
 800156e:	6853      	ldr	r3, [r2, #4]
 8001570:	f023 03f0 	bic.w	r3, r3, #240	; 0xf0
 8001574:	68a1      	ldr	r1, [r4, #8]
 8001576:	430b      	orrs	r3, r1
 8001578:	6053      	str	r3, [r2, #4]
  if (((RCC_ClkInitStruct->ClockType) & RCC_CLOCKTYPE_SYSCLK) == RCC_CLOCKTYPE_SYSCLK)
 800157a:	6823      	ldr	r3, [r4, #0]
 800157c:	f013 0f01 	tst.w	r3, #1
 8001580:	d031      	beq.n	80015e6 <HAL_RCC_ClockConfig+0xd6>
    if (RCC_ClkInitStruct->SYSCLKSource == RCC_SYSCLKSOURCE_HSE)
 8001582:	6862      	ldr	r2, [r4, #4]
 8001584:	2a01      	cmp	r2, #1
 8001586:	d020      	beq.n	80015ca <HAL_RCC_ClockConfig+0xba>
    else if (RCC_ClkInitStruct->SYSCLKSource == RCC_SYSCLKSOURCE_PLLCLK)
 8001588:	2a02      	cmp	r2, #2
 800158a:	d025      	beq.n	80015d8 <HAL_RCC_ClockConfig+0xc8>
      if (__HAL_RCC_GET_FLAG(RCC_FLAG_HSIRDY) == RESET)
 800158c:	4b38      	ldr	r3, [pc, #224]	; (8001670 <HAL_RCC_ClockConfig+0x160>)
 800158e:	681b      	ldr	r3, [r3, #0]
 8001590:	f013 0f02 	tst.w	r3, #2
 8001594:	d065      	beq.n	8001662 <HAL_RCC_ClockConfig+0x152>
    __HAL_RCC_SYSCLK_CONFIG(RCC_ClkInitStruct->SYSCLKSource);
 8001596:	4936      	ldr	r1, [pc, #216]	; (8001670 <HAL_RCC_ClockConfig+0x160>)
 8001598:	684b      	ldr	r3, [r1, #4]
 800159a:	f023 0303 	bic.w	r3, r3, #3
 800159e:	4313      	orrs	r3, r2
 80015a0:	604b      	str	r3, [r1, #4]
    tickstart = HAL_GetTick();
 80015a2:	f7ff fbcf 	bl	8000d44 <HAL_GetTick>
 80015a6:	4606      	mov	r6, r0
    while (__HAL_RCC_GET_SYSCLK_SOURCE() != (RCC_ClkInitStruct->SYSCLKSource << RCC_CFGR_SWS_Pos))
 80015a8:	4f31      	ldr	r7, [pc, #196]	; (8001670 <HAL_RCC_ClockConfig+0x160>)
      if ((HAL_GetTick() - tickstart) > CLOCKSWITCH_TIMEOUT_VALUE)
 80015aa:	f241 3888 	movw	r8, #5000	; 0x1388
    while (__HAL_RCC_GET_SYSCLK_SOURCE() != (RCC_ClkInitStruct->SYSCLKSource << RCC_CFGR_SWS_Pos))
 80015ae:	687b      	ldr	r3, [r7, #4]
 80015b0:	f003 030c 	and.w	r3, r3, #12
 80015b4:	6862      	ldr	r2, [r4, #4]
 80015b6:	ebb3 0f82 	cmp.w	r3, r2, lsl #2
 80015ba:	d014      	beq.n	80015e6 <HAL_RCC_ClockConfig+0xd6>
      if ((HAL_GetTick() - tickstart) > CLOCKSWITCH_TIMEOUT_VALUE)
 80015bc:	f7ff fbc2 	bl	8000d44 <HAL_GetTick>
 80015c0:	1b80      	subs	r0, r0, r6
 80015c2:	4540      	cmp	r0, r8
 80015c4:	d9f3      	bls.n	80015ae <HAL_RCC_ClockConfig+0x9e>
        return HAL_TIMEOUT;
 80015c6:	2003      	movs	r0, #3
 80015c8:	e045      	b.n	8001656 <HAL_RCC_ClockConfig+0x146>
      if (__HAL_RCC_GET_FLAG(RCC_FLAG_HSERDY) == RESET)
 80015ca:	4b29      	ldr	r3, [pc, #164]	; (8001670 <HAL_RCC_ClockConfig+0x160>)
 80015cc:	681b      	ldr	r3, [r3, #0]
 80015ce:	f413 3f00 	tst.w	r3, #131072	; 0x20000
 80015d2:	d1e0      	bne.n	8001596 <HAL_RCC_ClockConfig+0x86>
        return HAL_ERROR;
 80015d4:	2001      	movs	r0, #1
 80015d6:	e03e      	b.n	8001656 <HAL_RCC_ClockConfig+0x146>
      if (__HAL_RCC_GET_FLAG(RCC_FLAG_PLLRDY) == RESET)
 80015d8:	4b25      	ldr	r3, [pc, #148]	; (8001670 <HAL_RCC_ClockConfig+0x160>)
 80015da:	681b      	ldr	r3, [r3, #0]
 80015dc:	f013 7f00 	tst.w	r3, #33554432	; 0x2000000
 80015e0:	d1d9      	bne.n	8001596 <HAL_RCC_ClockConfig+0x86>
        return HAL_ERROR;
 80015e2:	2001      	movs	r0, #1
 80015e4:	e037      	b.n	8001656 <HAL_RCC_ClockConfig+0x146>
  if (FLatency < __HAL_FLASH_GET_LATENCY())
 80015e6:	4b21      	ldr	r3, [pc, #132]	; (800166c <HAL_RCC_ClockConfig+0x15c>)
 80015e8:	681b      	ldr	r3, [r3, #0]
 80015ea:	f003 0307 	and.w	r3, r3, #7
 80015ee:	42ab      	cmp	r3, r5
 80015f0:	d90a      	bls.n	8001608 <HAL_RCC_ClockConfig+0xf8>
    __HAL_FLASH_SET_LATENCY(FLatency);
 80015f2:	4a1e      	ldr	r2, [pc, #120]	; (800166c <HAL_RCC_ClockConfig+0x15c>)
 80015f4:	6813      	ldr	r3, [r2, #0]
 80015f6:	f023 0307 	bic.w	r3, r3, #7
 80015fa:	432b      	orrs	r3, r5
 80015fc:	6013      	str	r3, [r2, #0]
    if (__HAL_FLASH_GET_LATENCY() != FLatency)
 80015fe:	6813      	ldr	r3, [r2, #0]
 8001600:	f003 0307 	and.w	r3, r3, #7
 8001604:	42ab      	cmp	r3, r5
 8001606:	d12e      	bne.n	8001666 <HAL_RCC_ClockConfig+0x156>
if (((RCC_ClkInitStruct->ClockType) & RCC_CLOCKTYPE_PCLK1) == RCC_CLOCKTYPE_PCLK1)
 8001608:	6823      	ldr	r3, [r4, #0]
 800160a:	f013 0f04 	tst.w	r3, #4
 800160e:	d006      	beq.n	800161e <HAL_RCC_ClockConfig+0x10e>
    MODIFY_REG(RCC->CFGR, RCC_CFGR_PPRE1, RCC_ClkInitStruct->APB1CLKDivider);
 8001610:	4a17      	ldr	r2, [pc, #92]	; (8001670 <HAL_RCC_ClockConfig+0x160>)
 8001612:	6853      	ldr	r3, [r2, #4]
 8001614:	f423 63e0 	bic.w	r3, r3, #1792	; 0x700
 8001618:	68e1      	ldr	r1, [r4, #12]
 800161a:	430b      	orrs	r3, r1
 800161c:	6053      	str	r3, [r2, #4]
  if (((RCC_ClkInitStruct->ClockType) & RCC_CLOCKTYPE_PCLK2) == RCC_CLOCKTYPE_PCLK2)
 800161e:	6823      	ldr	r3, [r4, #0]
 8001620:	f013 0f08 	tst.w	r3, #8
 8001624:	d007      	beq.n	8001636 <HAL_RCC_ClockConfig+0x126>
    MODIFY_REG(RCC->CFGR, RCC_CFGR_PPRE2, ((RCC_ClkInitStruct->APB2CLKDivider) << 3));
 8001626:	4a12      	ldr	r2, [pc, #72]	; (8001670 <HAL_RCC_ClockConfig+0x160>)
 8001628:	6853      	ldr	r3, [r2, #4]
 800162a:	6921      	ldr	r1, [r4, #16]
 800162c:	f423 5360 	bic.w	r3, r3, #14336	; 0x3800
 8001630:	ea43 03c1 	orr.w	r3, r3, r1, lsl #3
 8001634:	6053      	str	r3, [r2, #4]
  SystemCoreClock = HAL_RCC_GetSysClockFreq() >> AHBPrescTable[(RCC->CFGR & RCC_CFGR_HPRE) >> RCC_CFGR_HPRE_Pos];
 8001636:	f7ff ff35 	bl	80014a4 <HAL_RCC_GetSysClockFreq>
 800163a:	4b0d      	ldr	r3, [pc, #52]	; (8001670 <HAL_RCC_ClockConfig+0x160>)
 800163c:	685b      	ldr	r3, [r3, #4]
 800163e:	f3c3 1303 	ubfx	r3, r3, #4, #4
 8001642:	4a0c      	ldr	r2, [pc, #48]	; (8001674 <HAL_RCC_ClockConfig+0x164>)
 8001644:	5cd3      	ldrb	r3, [r2, r3]
 8001646:	40d8      	lsrs	r0, r3
 8001648:	4b0b      	ldr	r3, [pc, #44]	; (8001678 <HAL_RCC_ClockConfig+0x168>)
 800164a:	6018      	str	r0, [r3, #0]
  HAL_InitTick(uwTickPrio);
 800164c:	4b0b      	ldr	r3, [pc, #44]	; (800167c <HAL_RCC_ClockConfig+0x16c>)
 800164e:	6818      	ldr	r0, [r3, #0]
 8001650:	f7ff fb34 	bl	8000cbc <HAL_InitTick>
  return HAL_OK;
 8001654:	2000      	movs	r0, #0
}
 8001656:	e8bd 81f0 	ldmia.w	sp!, {r4, r5, r6, r7, r8, pc}
    return HAL_ERROR;
 800165a:	2001      	movs	r0, #1
}
 800165c:	4770      	bx	lr
    return HAL_ERROR;
 800165e:	2001      	movs	r0, #1
 8001660:	e7f9      	b.n	8001656 <HAL_RCC_ClockConfig+0x146>
        return HAL_ERROR;
 8001662:	2001      	movs	r0, #1
 8001664:	e7f7      	b.n	8001656 <HAL_RCC_ClockConfig+0x146>
    return HAL_ERROR;
 8001666:	2001      	movs	r0, #1
 8001668:	e7f5      	b.n	8001656 <HAL_RCC_ClockConfig+0x146>
 800166a:	bf00      	nop
 800166c:	40022000 	.word	0x40022000
 8001670:	40021000 	.word	0x40021000
 8001674:	08001dd8 	.word	0x08001dd8
 8001678:	20000000 	.word	0x20000000
 800167c:	20000008 	.word	0x20000008

08001680 <HAL_RCC_GetPCLK1Freq>:
  return (HAL_RCC_GetHCLKFreq() >> APBPrescTable[(RCC->CFGR & RCC_CFGR_PPRE1) >> RCC_CFGR_PPRE1_Pos]);
 8001680:	4b04      	ldr	r3, [pc, #16]	; (8001694 <HAL_RCC_GetPCLK1Freq+0x14>)
 8001682:	685b      	ldr	r3, [r3, #4]
 8001684:	f3c3 2302 	ubfx	r3, r3, #8, #3
 8001688:	4a03      	ldr	r2, [pc, #12]	; (8001698 <HAL_RCC_GetPCLK1Freq+0x18>)
 800168a:	5cd3      	ldrb	r3, [r2, r3]
 800168c:	4a03      	ldr	r2, [pc, #12]	; (800169c <HAL_RCC_GetPCLK1Freq+0x1c>)
 800168e:	6810      	ldr	r0, [r2, #0]
}
 8001690:	40d8      	lsrs	r0, r3
 8001692:	4770      	bx	lr
 8001694:	40021000 	.word	0x40021000
 8001698:	08001de8 	.word	0x08001de8
 800169c:	20000000 	.word	0x20000000

080016a0 <HAL_RCC_GetPCLK2Freq>:
  return (HAL_RCC_GetHCLKFreq() >> APBPrescTable[(RCC->CFGR & RCC_CFGR_PPRE2) >> RCC_CFGR_PPRE2_Pos]);
 80016a0:	4b04      	ldr	r3, [pc, #16]	; (80016b4 <HAL_RCC_GetPCLK2Freq+0x14>)
 80016a2:	685b      	ldr	r3, [r3, #4]
 80016a4:	f3c3 23c2 	ubfx	r3, r3, #11, #3
 80016a8:	4a03      	ldr	r2, [pc, #12]	; (80016b8 <HAL_RCC_GetPCLK2Freq+0x18>)
 80016aa:	5cd3      	ldrb	r3, [r2, r3]
 80016ac:	4a03      	ldr	r2, [pc, #12]	; (80016bc <HAL_RCC_GetPCLK2Freq+0x1c>)
 80016ae:	6810      	ldr	r0, [r2, #0]
}
 80016b0:	40d8      	lsrs	r0, r3
 80016b2:	4770      	bx	lr
 80016b4:	40021000 	.word	0x40021000
 80016b8:	08001de8 	.word	0x08001de8
 80016bc:	20000000 	.word	0x20000000

080016c0 <HAL_RCCEx_PeriphCLKConfig>:
  *         manually disable it.
  *
  * @retval HAL status
  */
HAL_StatusTypeDef HAL_RCCEx_PeriphCLKConfig(RCC_PeriphCLKInitTypeDef  *PeriphClkInit)
{
 80016c0:	e92d 41f0 	stmdb	sp!, {r4, r5, r6, r7, r8, lr}
 80016c4:	b082      	sub	sp, #8
 80016c6:	4604      	mov	r4, r0

  /* Check the parameters */
  assert_param(IS_RCC_PERIPHCLOCK(PeriphClkInit->PeriphClockSelection));

  /*------------------------------- RTC/LCD Configuration ------------------------*/
  if ((((PeriphClkInit->PeriphClockSelection) & RCC_PERIPHCLK_RTC) == RCC_PERIPHCLK_RTC))
 80016c8:	6803      	ldr	r3, [r0, #0]
 80016ca:	f013 0f01 	tst.w	r3, #1
 80016ce:	d034      	beq.n	800173a <HAL_RCCEx_PeriphCLKConfig+0x7a>
    FlagStatus       pwrclkchanged = RESET;

    /* As soon as function is called to change RTC clock source, activation of the
       power domain is done. */
    /* Requires to enable write access to Backup Domain of necessary */
    if (__HAL_RCC_PWR_IS_CLK_DISABLED())
 80016d0:	4b3e      	ldr	r3, [pc, #248]	; (80017cc <HAL_RCCEx_PeriphCLKConfig+0x10c>)
 80016d2:	69db      	ldr	r3, [r3, #28]
 80016d4:	f013 5f80 	tst.w	r3, #268435456	; 0x10000000
 80016d8:	d147      	bne.n	800176a <HAL_RCCEx_PeriphCLKConfig+0xaa>
    {
      __HAL_RCC_PWR_CLK_ENABLE();
 80016da:	4b3c      	ldr	r3, [pc, #240]	; (80017cc <HAL_RCCEx_PeriphCLKConfig+0x10c>)
 80016dc:	69da      	ldr	r2, [r3, #28]
 80016de:	f042 5280 	orr.w	r2, r2, #268435456	; 0x10000000
 80016e2:	61da      	str	r2, [r3, #28]
 80016e4:	69db      	ldr	r3, [r3, #28]
 80016e6:	f003 5380 	and.w	r3, r3, #268435456	; 0x10000000
 80016ea:	9301      	str	r3, [sp, #4]
 80016ec:	9b01      	ldr	r3, [sp, #4]
      pwrclkchanged = SET;
 80016ee:	2501      	movs	r5, #1
    }

    if (HAL_IS_BIT_CLR(PWR->CR, PWR_CR_DBP))
 80016f0:	4b37      	ldr	r3, [pc, #220]	; (80017d0 <HAL_RCCEx_PeriphCLKConfig+0x110>)
 80016f2:	681b      	ldr	r3, [r3, #0]
 80016f4:	f413 7f80 	tst.w	r3, #256	; 0x100
 80016f8:	d039      	beq.n	800176e <HAL_RCCEx_PeriphCLKConfig+0xae>
        }
      }
    }

    /* Reset the Backup domain only if the RTC Clock source selection is modified from reset value */
    temp_reg = (RCC->BDCR & RCC_BDCR_RTCSEL);
 80016fa:	4b34      	ldr	r3, [pc, #208]	; (80017cc <HAL_RCCEx_PeriphCLKConfig+0x10c>)
 80016fc:	6a1b      	ldr	r3, [r3, #32]
    if ((temp_reg != 0x00000000U) && (temp_reg != (PeriphClkInit->RTCClockSelection & RCC_BDCR_RTCSEL)))
 80016fe:	f413 7340 	ands.w	r3, r3, #768	; 0x300
 8001702:	d011      	beq.n	8001728 <HAL_RCCEx_PeriphCLKConfig+0x68>
 8001704:	6862      	ldr	r2, [r4, #4]
 8001706:	f402 7240 	and.w	r2, r2, #768	; 0x300
 800170a:	429a      	cmp	r2, r3
 800170c:	d00c      	beq.n	8001728 <HAL_RCCEx_PeriphCLKConfig+0x68>
    {
      /* Store the content of BDCR register before the reset of Backup Domain */
      temp_reg = (RCC->BDCR & ~(RCC_BDCR_RTCSEL));
 800170e:	4a2f      	ldr	r2, [pc, #188]	; (80017cc <HAL_RCCEx_PeriphCLKConfig+0x10c>)
 8001710:	6a13      	ldr	r3, [r2, #32]
 8001712:	f423 7040 	bic.w	r0, r3, #768	; 0x300
      /* RTC Clock selection can be changed only if the Backup Domain is reset */
      __HAL_RCC_BACKUPRESET_FORCE();
 8001716:	492f      	ldr	r1, [pc, #188]	; (80017d4 <HAL_RCCEx_PeriphCLKConfig+0x114>)
 8001718:	2601      	movs	r6, #1
 800171a:	600e      	str	r6, [r1, #0]
      __HAL_RCC_BACKUPRESET_RELEASE();
 800171c:	2600      	movs	r6, #0
 800171e:	600e      	str	r6, [r1, #0]
      /* Restore the Content of BDCR register */
      RCC->BDCR = temp_reg;
 8001720:	6210      	str	r0, [r2, #32]

      /* Wait for LSERDY if LSE was enabled */
      if (HAL_IS_BIT_SET(temp_reg, RCC_BDCR_LSEON))
 8001722:	f013 0f01 	tst.w	r3, #1
 8001726:	d136      	bne.n	8001796 <HAL_RCCEx_PeriphCLKConfig+0xd6>
            return HAL_TIMEOUT;
          }
        }
      }
    }
    __HAL_RCC_RTC_CONFIG(PeriphClkInit->RTCClockSelection);
 8001728:	4a28      	ldr	r2, [pc, #160]	; (80017cc <HAL_RCCEx_PeriphCLKConfig+0x10c>)
 800172a:	6a13      	ldr	r3, [r2, #32]
 800172c:	f423 7340 	bic.w	r3, r3, #768	; 0x300
 8001730:	6861      	ldr	r1, [r4, #4]
 8001732:	430b      	orrs	r3, r1
 8001734:	6213      	str	r3, [r2, #32]

    /* Require to disable power clock if necessary */
    if (pwrclkchanged == SET)
 8001736:	2d00      	cmp	r5, #0
 8001738:	d13e      	bne.n	80017b8 <HAL_RCCEx_PeriphCLKConfig+0xf8>
      __HAL_RCC_PWR_CLK_DISABLE();
    }
  }

  /*------------------------------ ADC clock Configuration ------------------*/
  if (((PeriphClkInit->PeriphClockSelection) & RCC_PERIPHCLK_ADC) == RCC_PERIPHCLK_ADC)
 800173a:	6823      	ldr	r3, [r4, #0]
 800173c:	f013 0f02 	tst.w	r3, #2
 8001740:	d006      	beq.n	8001750 <HAL_RCCEx_PeriphCLKConfig+0x90>
  {
    /* Check the parameters */
    assert_param(IS_RCC_ADCPLLCLK_DIV(PeriphClkInit->AdcClockSelection));

    /* Configure the ADC clock source */
    __HAL_RCC_ADC_CONFIG(PeriphClkInit->AdcClockSelection);
 8001742:	4a22      	ldr	r2, [pc, #136]	; (80017cc <HAL_RCCEx_PeriphCLKConfig+0x10c>)
 8001744:	6853      	ldr	r3, [r2, #4]
 8001746:	f423 4340 	bic.w	r3, r3, #49152	; 0xc000
 800174a:	68a1      	ldr	r1, [r4, #8]
 800174c:	430b      	orrs	r3, r1
 800174e:	6053      	str	r3, [r2, #4]

#if defined(STM32F102x6) || defined(STM32F102xB) || defined(STM32F103x6)\
 || defined(STM32F103xB) || defined(STM32F103xE) || defined(STM32F103xG)\
 || defined(STM32F105xC) || defined(STM32F107xC)
  /*------------------------------ USB clock Configuration ------------------*/
  if (((PeriphClkInit->PeriphClockSelection) & RCC_PERIPHCLK_USB) == RCC_PERIPHCLK_USB)
 8001750:	6823      	ldr	r3, [r4, #0]
 8001752:	f013 0f10 	tst.w	r3, #16
 8001756:	d034      	beq.n	80017c2 <HAL_RCCEx_PeriphCLKConfig+0x102>
  {
    /* Check the parameters */
    assert_param(IS_RCC_USBPLLCLK_DIV(PeriphClkInit->UsbClockSelection));

    /* Configure the USB clock source */
    __HAL_RCC_USB_CONFIG(PeriphClkInit->UsbClockSelection);
 8001758:	4a1c      	ldr	r2, [pc, #112]	; (80017cc <HAL_RCCEx_PeriphCLKConfig+0x10c>)
 800175a:	6853      	ldr	r3, [r2, #4]
 800175c:	f423 0380 	bic.w	r3, r3, #4194304	; 0x400000
 8001760:	68e1      	ldr	r1, [r4, #12]
 8001762:	430b      	orrs	r3, r1
 8001764:	6053      	str	r3, [r2, #4]
  }
#endif /* STM32F102x6 || STM32F102xB || STM32F103x6 || STM32F103xB || STM32F103xE || STM32F103xG || STM32F105xC || STM32F107xC */

  return HAL_OK;
 8001766:	2000      	movs	r0, #0
 8001768:	e02c      	b.n	80017c4 <HAL_RCCEx_PeriphCLKConfig+0x104>
    FlagStatus       pwrclkchanged = RESET;
 800176a:	2500      	movs	r5, #0
 800176c:	e7c0      	b.n	80016f0 <HAL_RCCEx_PeriphCLKConfig+0x30>
      SET_BIT(PWR->CR, PWR_CR_DBP);
 800176e:	4a18      	ldr	r2, [pc, #96]	; (80017d0 <HAL_RCCEx_PeriphCLKConfig+0x110>)
 8001770:	6813      	ldr	r3, [r2, #0]
 8001772:	f443 7380 	orr.w	r3, r3, #256	; 0x100
 8001776:	6013      	str	r3, [r2, #0]
      tickstart = HAL_GetTick();
 8001778:	f7ff fae4 	bl	8000d44 <HAL_GetTick>
 800177c:	4606      	mov	r6, r0
      while (HAL_IS_BIT_CLR(PWR->CR, PWR_CR_DBP))
 800177e:	4f14      	ldr	r7, [pc, #80]	; (80017d0 <HAL_RCCEx_PeriphCLKConfig+0x110>)
 8001780:	683b      	ldr	r3, [r7, #0]
 8001782:	f413 7f80 	tst.w	r3, #256	; 0x100
 8001786:	d1b8      	bne.n	80016fa <HAL_RCCEx_PeriphCLKConfig+0x3a>
        if ((HAL_GetTick() - tickstart) > RCC_DBP_TIMEOUT_VALUE)
 8001788:	f7ff fadc 	bl	8000d44 <HAL_GetTick>
 800178c:	1b80      	subs	r0, r0, r6
 800178e:	2864      	cmp	r0, #100	; 0x64
 8001790:	d9f6      	bls.n	8001780 <HAL_RCCEx_PeriphCLKConfig+0xc0>
          return HAL_TIMEOUT;
 8001792:	2003      	movs	r0, #3
 8001794:	e016      	b.n	80017c4 <HAL_RCCEx_PeriphCLKConfig+0x104>
        tickstart = HAL_GetTick();
 8001796:	f7ff fad5 	bl	8000d44 <HAL_GetTick>
 800179a:	4606      	mov	r6, r0
        while (__HAL_RCC_GET_FLAG(RCC_FLAG_LSERDY) == RESET)
 800179c:	4f0b      	ldr	r7, [pc, #44]	; (80017cc <HAL_RCCEx_PeriphCLKConfig+0x10c>)
          if ((HAL_GetTick() - tickstart) > RCC_LSE_TIMEOUT_VALUE)
 800179e:	f241 3888 	movw	r8, #5000	; 0x1388
        while (__HAL_RCC_GET_FLAG(RCC_FLAG_LSERDY) == RESET)
 80017a2:	6a3b      	ldr	r3, [r7, #32]
 80017a4:	f013 0f02 	tst.w	r3, #2
 80017a8:	d1be      	bne.n	8001728 <HAL_RCCEx_PeriphCLKConfig+0x68>
          if ((HAL_GetTick() - tickstart) > RCC_LSE_TIMEOUT_VALUE)
 80017aa:	f7ff facb 	bl	8000d44 <HAL_GetTick>
 80017ae:	1b80      	subs	r0, r0, r6
 80017b0:	4540      	cmp	r0, r8
 80017b2:	d9f6      	bls.n	80017a2 <HAL_RCCEx_PeriphCLKConfig+0xe2>
            return HAL_TIMEOUT;
 80017b4:	2003      	movs	r0, #3
 80017b6:	e005      	b.n	80017c4 <HAL_RCCEx_PeriphCLKConfig+0x104>
      __HAL_RCC_PWR_CLK_DISABLE();
 80017b8:	69d3      	ldr	r3, [r2, #28]
 80017ba:	f023 5380 	bic.w	r3, r3, #268435456	; 0x10000000
 80017be:	61d3      	str	r3, [r2, #28]
 80017c0:	e7bb      	b.n	800173a <HAL_RCCEx_PeriphCLKConfig+0x7a>
  return HAL_OK;
 80017c2:	2000      	movs	r0, #0
}
 80017c4:	b002      	add	sp, #8
 80017c6:	e8bd 81f0 	ldmia.w	sp!, {r4, r5, r6, r7, r8, pc}
 80017ca:	bf00      	nop
 80017cc:	40021000 	.word	0x40021000
 80017d0:	40007000 	.word	0x40007000
 80017d4:	42420440 	.word	0x42420440

080017d8 <TIM_OC1_SetConfig>:
  * @param  TIMx to select the TIM peripheral
  * @param  OC_Config The output configuration structure
  * @retval None
  */
static void TIM_OC1_SetConfig(TIM_TypeDef *TIMx, TIM_OC_InitTypeDef *OC_Config)
{
 80017d8:	b470      	push	{r4, r5, r6}
  uint32_t tmpccmrx;
  uint32_t tmpccer;
  uint32_t tmpcr2;

  /* Disable the Channel 1: Reset the CC1E Bit */
  TIMx->CCER &= ~TIM_CCER_CC1E;
 80017da:	6a03      	ldr	r3, [r0, #32]
 80017dc:	f023 0301 	bic.w	r3, r3, #1
 80017e0:	6203      	str	r3, [r0, #32]

  /* Get the TIMx CCER register value */
  tmpccer = TIMx->CCER;
 80017e2:	6a03      	ldr	r3, [r0, #32]
  /* Get the TIMx CR2 register value */
  tmpcr2 =  TIMx->CR2;
 80017e4:	6844      	ldr	r4, [r0, #4]

  /* Get the TIMx CCMR1 register value */
  tmpccmrx = TIMx->CCMR1;
 80017e6:	6982      	ldr	r2, [r0, #24]

  /* Reset the Output Compare Mode Bits */
  tmpccmrx &= ~TIM_CCMR1_OC1M;
  tmpccmrx &= ~TIM_CCMR1_CC1S;
 80017e8:	f022 0273 	bic.w	r2, r2, #115	; 0x73
  /* Select the Output Compare Mode */
  tmpccmrx |= OC_Config->OCMode;
 80017ec:	680d      	ldr	r5, [r1, #0]
 80017ee:	432a      	orrs	r2, r5

  /* Reset the Output Polarity level */
  tmpccer &= ~TIM_CCER_CC1P;
 80017f0:	f023 0302 	bic.w	r3, r3, #2
  /* Set the Output Compare Polarity */
  tmpccer |= OC_Config->OCPolarity;
 80017f4:	688d      	ldr	r5, [r1, #8]
 80017f6:	432b      	orrs	r3, r5

  if (IS_TIM_CCXN_INSTANCE(TIMx, TIM_CHANNEL_1))
 80017f8:	4d0b      	ldr	r5, [pc, #44]	; (8001828 <TIM_OC1_SetConfig+0x50>)
 80017fa:	42a8      	cmp	r0, r5
 80017fc:	d006      	beq.n	800180c <TIM_OC1_SetConfig+0x34>
    /* Set the Output N Idle state */
    tmpcr2 |= OC_Config->OCNIdleState;
  }

  /* Write to TIMx CR2 */
  TIMx->CR2 = tmpcr2;
 80017fe:	6044      	str	r4, [r0, #4]

  /* Write to TIMx CCMR1 */
  TIMx->CCMR1 = tmpccmrx;
 8001800:	6182      	str	r2, [r0, #24]

  /* Set the Capture Compare Register value */
  TIMx->CCR1 = OC_Config->Pulse;
 8001802:	684a      	ldr	r2, [r1, #4]
 8001804:	6342      	str	r2, [r0, #52]	; 0x34

  /* Write to TIMx CCER */
  TIMx->CCER = tmpccer;
 8001806:	6203      	str	r3, [r0, #32]
}
 8001808:	bc70      	pop	{r4, r5, r6}
 800180a:	4770      	bx	lr
    tmpccer &= ~TIM_CCER_CC1NP;
 800180c:	f023 0308 	bic.w	r3, r3, #8
    tmpccer |= OC_Config->OCNPolarity;
 8001810:	68cd      	ldr	r5, [r1, #12]
 8001812:	432b      	orrs	r3, r5
    tmpccer &= ~TIM_CCER_CC1NE;
 8001814:	f023 0304 	bic.w	r3, r3, #4
    tmpcr2 &= ~TIM_CR2_OIS1N;
 8001818:	f424 7440 	bic.w	r4, r4, #768	; 0x300
    tmpcr2 |= OC_Config->OCNIdleState;
 800181c:	694d      	ldr	r5, [r1, #20]
 800181e:	698e      	ldr	r6, [r1, #24]
 8001820:	4335      	orrs	r5, r6
 8001822:	432c      	orrs	r4, r5
 8001824:	e7eb      	b.n	80017fe <TIM_OC1_SetConfig+0x26>
 8001826:	bf00      	nop
 8001828:	40012c00 	.word	0x40012c00

0800182c <TIM_OC3_SetConfig>:
  * @param  TIMx to select the TIM peripheral
  * @param  OC_Config The output configuration structure
  * @retval None
  */
static void TIM_OC3_SetConfig(TIM_TypeDef *TIMx, TIM_OC_InitTypeDef *OC_Config)
{
 800182c:	b470      	push	{r4, r5, r6}
  uint32_t tmpccmrx;
  uint32_t tmpccer;
  uint32_t tmpcr2;

  /* Disable the Channel 3: Reset the CC2E Bit */
  TIMx->CCER &= ~TIM_CCER_CC3E;
 800182e:	6a03      	ldr	r3, [r0, #32]
 8001830:	f423 7380 	bic.w	r3, r3, #256	; 0x100
 8001834:	6203      	str	r3, [r0, #32]

  /* Get the TIMx CCER register value */
  tmpccer = TIMx->CCER;
 8001836:	6a03      	ldr	r3, [r0, #32]
  /* Get the TIMx CR2 register value */
  tmpcr2 =  TIMx->CR2;
 8001838:	6844      	ldr	r4, [r0, #4]

  /* Get the TIMx CCMR2 register value */
  tmpccmrx = TIMx->CCMR2;
 800183a:	69c2      	ldr	r2, [r0, #28]

  /* Reset the Output Compare mode and Capture/Compare selection Bits */
  tmpccmrx &= ~TIM_CCMR2_OC3M;
  tmpccmrx &= ~TIM_CCMR2_CC3S;
 800183c:	f022 0273 	bic.w	r2, r2, #115	; 0x73
  /* Select the Output Compare Mode */
  tmpccmrx |= OC_Config->OCMode;
 8001840:	680d      	ldr	r5, [r1, #0]
 8001842:	432a      	orrs	r2, r5

  /* Reset the Output Polarity level */
  tmpccer &= ~TIM_CCER_CC3P;
 8001844:	f423 7300 	bic.w	r3, r3, #512	; 0x200
  /* Set the Output Compare Polarity */
  tmpccer |= (OC_Config->OCPolarity << 8U);
 8001848:	688d      	ldr	r5, [r1, #8]
 800184a:	ea43 2305 	orr.w	r3, r3, r5, lsl #8

  if (IS_TIM_CCXN_INSTANCE(TIMx, TIM_CHANNEL_3))
 800184e:	4d0c      	ldr	r5, [pc, #48]	; (8001880 <TIM_OC3_SetConfig+0x54>)
 8001850:	42a8      	cmp	r0, r5
 8001852:	d006      	beq.n	8001862 <TIM_OC3_SetConfig+0x36>
    /* Set the Output N Idle state */
    tmpcr2 |= (OC_Config->OCNIdleState << 4U);
  }

  /* Write to TIMx CR2 */
  TIMx->CR2 = tmpcr2;
 8001854:	6044      	str	r4, [r0, #4]

  /* Write to TIMx CCMR2 */
  TIMx->CCMR2 = tmpccmrx;
 8001856:	61c2      	str	r2, [r0, #28]

  /* Set the Capture Compare Register value */
  TIMx->CCR3 = OC_Config->Pulse;
 8001858:	684a      	ldr	r2, [r1, #4]
 800185a:	63c2      	str	r2, [r0, #60]	; 0x3c

  /* Write to TIMx CCER */
  TIMx->CCER = tmpccer;
 800185c:	6203      	str	r3, [r0, #32]
}
 800185e:	bc70      	pop	{r4, r5, r6}
 8001860:	4770      	bx	lr
    tmpccer &= ~TIM_CCER_CC3NP;
 8001862:	f423 6300 	bic.w	r3, r3, #2048	; 0x800
    tmpccer |= (OC_Config->OCNPolarity << 8U);
 8001866:	68cd      	ldr	r5, [r1, #12]
 8001868:	ea43 2305 	orr.w	r3, r3, r5, lsl #8
    tmpccer &= ~TIM_CCER_CC3NE;
 800186c:	f423 6380 	bic.w	r3, r3, #1024	; 0x400
    tmpcr2 &= ~TIM_CR2_OIS3N;
 8001870:	f424 5440 	bic.w	r4, r4, #12288	; 0x3000
    tmpcr2 |= (OC_Config->OCIdleState << 4U);
 8001874:	694d      	ldr	r5, [r1, #20]
    tmpcr2 |= (OC_Config->OCNIdleState << 4U);
 8001876:	698e      	ldr	r6, [r1, #24]
 8001878:	4335      	orrs	r5, r6
 800187a:	ea44 1405 	orr.w	r4, r4, r5, lsl #4
 800187e:	e7e9      	b.n	8001854 <TIM_OC3_SetConfig+0x28>
 8001880:	40012c00 	.word	0x40012c00

08001884 <TIM_OC4_SetConfig>:
  * @param  TIMx to select the TIM peripheral
  * @param  OC_Config The output configuration structure
  * @retval None
  */
static void TIM_OC4_SetConfig(TIM_TypeDef *TIMx, TIM_OC_InitTypeDef *OC_Config)
{
 8001884:	b430      	push	{r4, r5}
  uint32_t tmpccmrx;
  uint32_t tmpccer;
  uint32_t tmpcr2;

  /* Disable the Channel 4: Reset the CC4E Bit */
  TIMx->CCER &= ~TIM_CCER_CC4E;
 8001886:	6a03      	ldr	r3, [r0, #32]
 8001888:	f423 5380 	bic.w	r3, r3, #4096	; 0x1000
 800188c:	6203      	str	r3, [r0, #32]

  /* Get the TIMx CCER register value */
  tmpccer = TIMx->CCER;
 800188e:	6a03      	ldr	r3, [r0, #32]
  /* Get the TIMx CR2 register value */
  tmpcr2 =  TIMx->CR2;
 8001890:	6844      	ldr	r4, [r0, #4]

  /* Get the TIMx CCMR2 register value */
  tmpccmrx = TIMx->CCMR2;
 8001892:	69c2      	ldr	r2, [r0, #28]

  /* Reset the Output Compare mode and Capture/Compare selection Bits */
  tmpccmrx &= ~TIM_CCMR2_OC4M;
  tmpccmrx &= ~TIM_CCMR2_CC4S;
 8001894:	f422 42e6 	bic.w	r2, r2, #29440	; 0x7300

  /* Select the Output Compare Mode */
  tmpccmrx |= (OC_Config->OCMode << 8U);
 8001898:	680d      	ldr	r5, [r1, #0]
 800189a:	ea42 2205 	orr.w	r2, r2, r5, lsl #8

  /* Reset the Output Polarity level */
  tmpccer &= ~TIM_CCER_CC4P;
 800189e:	f423 5300 	bic.w	r3, r3, #8192	; 0x2000
  /* Set the Output Compare Polarity */
  tmpccer |= (OC_Config->OCPolarity << 12U);
 80018a2:	688d      	ldr	r5, [r1, #8]
 80018a4:	ea43 3305 	orr.w	r3, r3, r5, lsl #12

  if (IS_TIM_BREAK_INSTANCE(TIMx))
 80018a8:	4d07      	ldr	r5, [pc, #28]	; (80018c8 <TIM_OC4_SetConfig+0x44>)
 80018aa:	42a8      	cmp	r0, r5
 80018ac:	d006      	beq.n	80018bc <TIM_OC4_SetConfig+0x38>
    /* Set the Output Idle state */
    tmpcr2 |= (OC_Config->OCIdleState << 6U);
  }

  /* Write to TIMx CR2 */
  TIMx->CR2 = tmpcr2;
 80018ae:	6044      	str	r4, [r0, #4]

  /* Write to TIMx CCMR2 */
  TIMx->CCMR2 = tmpccmrx;
 80018b0:	61c2      	str	r2, [r0, #28]

  /* Set the Capture Compare Register value */
  TIMx->CCR4 = OC_Config->Pulse;
 80018b2:	684a      	ldr	r2, [r1, #4]
 80018b4:	6402      	str	r2, [r0, #64]	; 0x40

  /* Write to TIMx CCER */
  TIMx->CCER = tmpccer;
 80018b6:	6203      	str	r3, [r0, #32]
}
 80018b8:	bc30      	pop	{r4, r5}
 80018ba:	4770      	bx	lr
    tmpcr2 &= ~TIM_CR2_OIS4;
 80018bc:	f424 4480 	bic.w	r4, r4, #16384	; 0x4000
    tmpcr2 |= (OC_Config->OCIdleState << 6U);
 80018c0:	694d      	ldr	r5, [r1, #20]
 80018c2:	ea44 1485 	orr.w	r4, r4, r5, lsl #6
 80018c6:	e7f2      	b.n	80018ae <TIM_OC4_SetConfig+0x2a>
 80018c8:	40012c00 	.word	0x40012c00

080018cc <TIM_Base_SetConfig>:
  tmpcr1 = TIMx->CR1;
 80018cc:	6803      	ldr	r3, [r0, #0]
  if (IS_TIM_COUNTER_MODE_SELECT_INSTANCE(TIMx))
 80018ce:	4a25      	ldr	r2, [pc, #148]	; (8001964 <TIM_Base_SetConfig+0x98>)
 80018d0:	4290      	cmp	r0, r2
 80018d2:	d014      	beq.n	80018fe <TIM_Base_SetConfig+0x32>
 80018d4:	f1b0 4f80 	cmp.w	r0, #1073741824	; 0x40000000
 80018d8:	d02b      	beq.n	8001932 <TIM_Base_SetConfig+0x66>
 80018da:	f5a2 3294 	sub.w	r2, r2, #75776	; 0x12800
 80018de:	4290      	cmp	r0, r2
 80018e0:	d022      	beq.n	8001928 <TIM_Base_SetConfig+0x5c>
 80018e2:	f502 6280 	add.w	r2, r2, #1024	; 0x400
 80018e6:	4290      	cmp	r0, r2
 80018e8:	d037      	beq.n	800195a <TIM_Base_SetConfig+0x8e>
  MODIFY_REG(tmpcr1, TIM_CR1_ARPE, Structure->AutoReloadPreload);
 80018ea:	f023 0380 	bic.w	r3, r3, #128	; 0x80
 80018ee:	694a      	ldr	r2, [r1, #20]
 80018f0:	4313      	orrs	r3, r2
  TIMx->CR1 = tmpcr1;
 80018f2:	6003      	str	r3, [r0, #0]
  TIMx->ARR = (uint32_t)Structure->Period ;
 80018f4:	688b      	ldr	r3, [r1, #8]
 80018f6:	62c3      	str	r3, [r0, #44]	; 0x2c
  TIMx->PSC = Structure->Prescaler;
 80018f8:	680b      	ldr	r3, [r1, #0]
 80018fa:	6283      	str	r3, [r0, #40]	; 0x28
  if (IS_TIM_REPETITION_COUNTER_INSTANCE(TIMx))
 80018fc:	e02a      	b.n	8001954 <TIM_Base_SetConfig+0x88>
    tmpcr1 &= ~(TIM_CR1_DIR | TIM_CR1_CMS);
 80018fe:	f023 0370 	bic.w	r3, r3, #112	; 0x70
    tmpcr1 |= Structure->CounterMode;
 8001902:	684a      	ldr	r2, [r1, #4]
 8001904:	4313      	orrs	r3, r2
    tmpcr1 &= ~TIM_CR1_CKD;
 8001906:	f423 7340 	bic.w	r3, r3, #768	; 0x300
    tmpcr1 |= (uint32_t)Structure->ClockDivision;
 800190a:	68ca      	ldr	r2, [r1, #12]
 800190c:	4313      	orrs	r3, r2
  MODIFY_REG(tmpcr1, TIM_CR1_ARPE, Structure->AutoReloadPreload);
 800190e:	f023 0380 	bic.w	r3, r3, #128	; 0x80
 8001912:	694a      	ldr	r2, [r1, #20]
 8001914:	4313      	orrs	r3, r2
  TIMx->CR1 = tmpcr1;
 8001916:	6003      	str	r3, [r0, #0]
  TIMx->ARR = (uint32_t)Structure->Period ;
 8001918:	688b      	ldr	r3, [r1, #8]
 800191a:	62c3      	str	r3, [r0, #44]	; 0x2c
  TIMx->PSC = Structure->Prescaler;
 800191c:	680b      	ldr	r3, [r1, #0]
 800191e:	6283      	str	r3, [r0, #40]	; 0x28
    TIMx->RCR = Structure->RepetitionCounter;
 8001920:	690a      	ldr	r2, [r1, #16]
 8001922:	4b10      	ldr	r3, [pc, #64]	; (8001964 <TIM_Base_SetConfig+0x98>)
 8001924:	631a      	str	r2, [r3, #48]	; 0x30
 8001926:	e015      	b.n	8001954 <TIM_Base_SetConfig+0x88>
    tmpcr1 &= ~(TIM_CR1_DIR | TIM_CR1_CMS);
 8001928:	f023 0370 	bic.w	r3, r3, #112	; 0x70
    tmpcr1 |= Structure->CounterMode;
 800192c:	684a      	ldr	r2, [r1, #4]
 800192e:	4313      	orrs	r3, r2
  if (IS_TIM_CLOCK_DIVISION_INSTANCE(TIMx))
 8001930:	e003      	b.n	800193a <TIM_Base_SetConfig+0x6e>
    tmpcr1 &= ~(TIM_CR1_DIR | TIM_CR1_CMS);
 8001932:	f023 0370 	bic.w	r3, r3, #112	; 0x70
    tmpcr1 |= Structure->CounterMode;
 8001936:	684a      	ldr	r2, [r1, #4]
 8001938:	4313      	orrs	r3, r2
    tmpcr1 &= ~TIM_CR1_CKD;
 800193a:	f423 7340 	bic.w	r3, r3, #768	; 0x300
    tmpcr1 |= (uint32_t)Structure->ClockDivision;
 800193e:	68ca      	ldr	r2, [r1, #12]
 8001940:	4313      	orrs	r3, r2
  MODIFY_REG(tmpcr1, TIM_CR1_ARPE, Structure->AutoReloadPreload);
 8001942:	f023 0380 	bic.w	r3, r3, #128	; 0x80
 8001946:	694a      	ldr	r2, [r1, #20]
 8001948:	4313      	orrs	r3, r2
  TIMx->CR1 = tmpcr1;
 800194a:	6003      	str	r3, [r0, #0]
  TIMx->ARR = (uint32_t)Structure->Period ;
 800194c:	688b      	ldr	r3, [r1, #8]
 800194e:	62c3      	str	r3, [r0, #44]	; 0x2c
  TIMx->PSC = Structure->Prescaler;
 8001950:	680b      	ldr	r3, [r1, #0]
 8001952:	6283      	str	r3, [r0, #40]	; 0x28
  TIMx->EGR = TIM_EGR_UG;
 8001954:	2301      	movs	r3, #1
 8001956:	6143      	str	r3, [r0, #20]
}
 8001958:	4770      	bx	lr
    tmpcr1 &= ~(TIM_CR1_DIR | TIM_CR1_CMS);
 800195a:	f023 0370 	bic.w	r3, r3, #112	; 0x70
    tmpcr1 |= Structure->CounterMode;
 800195e:	684a      	ldr	r2, [r1, #4]
 8001960:	4313      	orrs	r3, r2
  if (IS_TIM_CLOCK_DIVISION_INSTANCE(TIMx))
 8001962:	e7ea      	b.n	800193a <TIM_Base_SetConfig+0x6e>
 8001964:	40012c00 	.word	0x40012c00

08001968 <HAL_TIM_PWM_Init>:
  if (htim == NULL)
 8001968:	b340      	cbz	r0, 80019bc <HAL_TIM_PWM_Init+0x54>
{
 800196a:	b510      	push	{r4, lr}
 800196c:	4604      	mov	r4, r0
  if (htim->State == HAL_TIM_STATE_RESET)
 800196e:	f890 303d 	ldrb.w	r3, [r0, #61]	; 0x3d
 8001972:	b1f3      	cbz	r3, 80019b2 <HAL_TIM_PWM_Init+0x4a>
  htim->State = HAL_TIM_STATE_BUSY;
 8001974:	2302      	movs	r3, #2
 8001976:	f884 303d 	strb.w	r3, [r4, #61]	; 0x3d
  TIM_Base_SetConfig(htim->Instance, &htim->Init);
 800197a:	4621      	mov	r1, r4
 800197c:	f851 0b04 	ldr.w	r0, [r1], #4
 8001980:	f7ff ffa4 	bl	80018cc <TIM_Base_SetConfig>
  htim->DMABurstState = HAL_DMA_BURST_STATE_READY;
 8001984:	2301      	movs	r3, #1
 8001986:	f884 3046 	strb.w	r3, [r4, #70]	; 0x46
  TIM_CHANNEL_STATE_SET_ALL(htim, HAL_TIM_CHANNEL_STATE_READY);
 800198a:	f884 303e 	strb.w	r3, [r4, #62]	; 0x3e
 800198e:	f884 303f 	strb.w	r3, [r4, #63]	; 0x3f
 8001992:	f884 3040 	strb.w	r3, [r4, #64]	; 0x40
 8001996:	f884 3041 	strb.w	r3, [r4, #65]	; 0x41
  TIM_CHANNEL_N_STATE_SET_ALL(htim, HAL_TIM_CHANNEL_STATE_READY);
 800199a:	f884 3042 	strb.w	r3, [r4, #66]	; 0x42
 800199e:	f884 3043 	strb.w	r3, [r4, #67]	; 0x43
 80019a2:	f884 3044 	strb.w	r3, [r4, #68]	; 0x44
 80019a6:	f884 3045 	strb.w	r3, [r4, #69]	; 0x45
  htim->State = HAL_TIM_STATE_READY;
 80019aa:	f884 303d 	strb.w	r3, [r4, #61]	; 0x3d
  return HAL_OK;
 80019ae:	2000      	movs	r0, #0
}
 80019b0:	bd10      	pop	{r4, pc}
    htim->Lock = HAL_UNLOCKED;
 80019b2:	f880 303c 	strb.w	r3, [r0, #60]	; 0x3c
    HAL_TIM_PWM_MspInit(htim);
 80019b6:	f7fe ffab 	bl	8000910 <HAL_TIM_PWM_MspInit>
 80019ba:	e7db      	b.n	8001974 <HAL_TIM_PWM_Init+0xc>
    return HAL_ERROR;
 80019bc:	2001      	movs	r0, #1
}
 80019be:	4770      	bx	lr

080019c0 <TIM_OC2_SetConfig>:
{
 80019c0:	b470      	push	{r4, r5, r6}
  TIMx->CCER &= ~TIM_CCER_CC2E;
 80019c2:	6a03      	ldr	r3, [r0, #32]
 80019c4:	f023 0310 	bic.w	r3, r3, #16
 80019c8:	6203      	str	r3, [r0, #32]
  tmpccer = TIMx->CCER;
 80019ca:	6a03      	ldr	r3, [r0, #32]
  tmpcr2 =  TIMx->CR2;
 80019cc:	6844      	ldr	r4, [r0, #4]
  tmpccmrx = TIMx->CCMR1;
 80019ce:	6982      	ldr	r2, [r0, #24]
  tmpccmrx &= ~TIM_CCMR1_CC2S;
 80019d0:	f422 42e6 	bic.w	r2, r2, #29440	; 0x7300
  tmpccmrx |= (OC_Config->OCMode << 8U);
 80019d4:	680d      	ldr	r5, [r1, #0]
 80019d6:	ea42 2205 	orr.w	r2, r2, r5, lsl #8
  tmpccer &= ~TIM_CCER_CC2P;
 80019da:	f023 0320 	bic.w	r3, r3, #32
  tmpccer |= (OC_Config->OCPolarity << 4U);
 80019de:	688d      	ldr	r5, [r1, #8]
 80019e0:	ea43 1305 	orr.w	r3, r3, r5, lsl #4
  if (IS_TIM_CCXN_INSTANCE(TIMx, TIM_CHANNEL_2))
 80019e4:	4d0c      	ldr	r5, [pc, #48]	; (8001a18 <TIM_OC2_SetConfig+0x58>)
 80019e6:	42a8      	cmp	r0, r5
 80019e8:	d006      	beq.n	80019f8 <TIM_OC2_SetConfig+0x38>
  TIMx->CR2 = tmpcr2;
 80019ea:	6044      	str	r4, [r0, #4]
  TIMx->CCMR1 = tmpccmrx;
 80019ec:	6182      	str	r2, [r0, #24]
  TIMx->CCR2 = OC_Config->Pulse;
 80019ee:	684a      	ldr	r2, [r1, #4]
 80019f0:	6382      	str	r2, [r0, #56]	; 0x38
  TIMx->CCER = tmpccer;
 80019f2:	6203      	str	r3, [r0, #32]
}
 80019f4:	bc70      	pop	{r4, r5, r6}
 80019f6:	4770      	bx	lr
    tmpccer &= ~TIM_CCER_CC2NP;
 80019f8:	f023 0380 	bic.w	r3, r3, #128	; 0x80
    tmpccer |= (OC_Config->OCNPolarity << 4U);
 80019fc:	68cd      	ldr	r5, [r1, #12]
 80019fe:	ea43 1305 	orr.w	r3, r3, r5, lsl #4
    tmpccer &= ~TIM_CCER_CC2NE;
 8001a02:	f023 0340 	bic.w	r3, r3, #64	; 0x40
    tmpcr2 &= ~TIM_CR2_OIS2N;
 8001a06:	f424 6440 	bic.w	r4, r4, #3072	; 0xc00
    tmpcr2 |= (OC_Config->OCIdleState << 2U);
 8001a0a:	694d      	ldr	r5, [r1, #20]
    tmpcr2 |= (OC_Config->OCNIdleState << 2U);
 8001a0c:	698e      	ldr	r6, [r1, #24]
 8001a0e:	4335      	orrs	r5, r6
 8001a10:	ea44 0485 	orr.w	r4, r4, r5, lsl #2
 8001a14:	e7e9      	b.n	80019ea <TIM_OC2_SetConfig+0x2a>
 8001a16:	bf00      	nop
 8001a18:	40012c00 	.word	0x40012c00

08001a1c <HAL_TIM_PWM_ConfigChannel>:
{
 8001a1c:	b538      	push	{r3, r4, r5, lr}
  __HAL_LOCK(htim);
 8001a1e:	f890 303c 	ldrb.w	r3, [r0, #60]	; 0x3c
 8001a22:	2b01      	cmp	r3, #1
 8001a24:	d060      	beq.n	8001ae8 <HAL_TIM_PWM_ConfigChannel+0xcc>
 8001a26:	4604      	mov	r4, r0
 8001a28:	460d      	mov	r5, r1
 8001a2a:	2301      	movs	r3, #1
 8001a2c:	f880 303c 	strb.w	r3, [r0, #60]	; 0x3c
  switch (Channel)
 8001a30:	2a0c      	cmp	r2, #12
 8001a32:	d81a      	bhi.n	8001a6a <HAL_TIM_PWM_ConfigChannel+0x4e>
 8001a34:	e8df f002 	tbb	[pc, r2]
 8001a38:	19191907 	.word	0x19191907
 8001a3c:	1919191d 	.word	0x1919191d
 8001a40:	19191931 	.word	0x19191931
 8001a44:	44          	.byte	0x44
 8001a45:	00          	.byte	0x00
      TIM_OC1_SetConfig(htim->Instance, sConfig);
 8001a46:	6800      	ldr	r0, [r0, #0]
 8001a48:	f7ff fec6 	bl	80017d8 <TIM_OC1_SetConfig>
      htim->Instance->CCMR1 |= TIM_CCMR1_OC1PE;
 8001a4c:	6822      	ldr	r2, [r4, #0]
 8001a4e:	6993      	ldr	r3, [r2, #24]
 8001a50:	f043 0308 	orr.w	r3, r3, #8
 8001a54:	6193      	str	r3, [r2, #24]
      htim->Instance->CCMR1 &= ~TIM_CCMR1_OC1FE;
 8001a56:	6822      	ldr	r2, [r4, #0]
 8001a58:	6993      	ldr	r3, [r2, #24]
 8001a5a:	f023 0304 	bic.w	r3, r3, #4
 8001a5e:	6193      	str	r3, [r2, #24]
      htim->Instance->CCMR1 |= sConfig->OCFastMode;
 8001a60:	6822      	ldr	r2, [r4, #0]
 8001a62:	6993      	ldr	r3, [r2, #24]
 8001a64:	6929      	ldr	r1, [r5, #16]
 8001a66:	430b      	orrs	r3, r1
 8001a68:	6193      	str	r3, [r2, #24]
  __HAL_UNLOCK(htim);
 8001a6a:	2000      	movs	r0, #0
 8001a6c:	f884 003c 	strb.w	r0, [r4, #60]	; 0x3c
}
 8001a70:	bd38      	pop	{r3, r4, r5, pc}
      TIM_OC2_SetConfig(htim->Instance, sConfig);
 8001a72:	6800      	ldr	r0, [r0, #0]
 8001a74:	f7ff ffa4 	bl	80019c0 <TIM_OC2_SetConfig>
      htim->Instance->CCMR1 |= TIM_CCMR1_OC2PE;
 8001a78:	6822      	ldr	r2, [r4, #0]
 8001a7a:	6993      	ldr	r3, [r2, #24]
 8001a7c:	f443 6300 	orr.w	r3, r3, #2048	; 0x800
 8001a80:	6193      	str	r3, [r2, #24]
      htim->Instance->CCMR1 &= ~TIM_CCMR1_OC2FE;
 8001a82:	6822      	ldr	r2, [r4, #0]
 8001a84:	6993      	ldr	r3, [r2, #24]
 8001a86:	f423 6380 	bic.w	r3, r3, #1024	; 0x400
 8001a8a:	6193      	str	r3, [r2, #24]
      htim->Instance->CCMR1 |= sConfig->OCFastMode << 8U;
 8001a8c:	6822      	ldr	r2, [r4, #0]
 8001a8e:	6993      	ldr	r3, [r2, #24]
 8001a90:	6929      	ldr	r1, [r5, #16]
 8001a92:	ea43 2301 	orr.w	r3, r3, r1, lsl #8
 8001a96:	6193      	str	r3, [r2, #24]
      break;
 8001a98:	e7e7      	b.n	8001a6a <HAL_TIM_PWM_ConfigChannel+0x4e>
      TIM_OC3_SetConfig(htim->Instance, sConfig);
 8001a9a:	6800      	ldr	r0, [r0, #0]
 8001a9c:	f7ff fec6 	bl	800182c <TIM_OC3_SetConfig>
      htim->Instance->CCMR2 |= TIM_CCMR2_OC3PE;
 8001aa0:	6822      	ldr	r2, [r4, #0]
 8001aa2:	69d3      	ldr	r3, [r2, #28]
 8001aa4:	f043 0308 	orr.w	r3, r3, #8
 8001aa8:	61d3      	str	r3, [r2, #28]
      htim->Instance->CCMR2 &= ~TIM_CCMR2_OC3FE;
 8001aaa:	6822      	ldr	r2, [r4, #0]
 8001aac:	69d3      	ldr	r3, [r2, #28]
 8001aae:	f023 0304 	bic.w	r3, r3, #4
 8001ab2:	61d3      	str	r3, [r2, #28]
      htim->Instance->CCMR2 |= sConfig->OCFastMode;
 8001ab4:	6822      	ldr	r2, [r4, #0]
 8001ab6:	69d3      	ldr	r3, [r2, #28]
 8001ab8:	6929      	ldr	r1, [r5, #16]
 8001aba:	430b      	orrs	r3, r1
 8001abc:	61d3      	str	r3, [r2, #28]
      break;
 8001abe:	e7d4      	b.n	8001a6a <HAL_TIM_PWM_ConfigChannel+0x4e>
      TIM_OC4_SetConfig(htim->Instance, sConfig);
 8001ac0:	6800      	ldr	r0, [r0, #0]
 8001ac2:	f7ff fedf 	bl	8001884 <TIM_OC4_SetConfig>
      htim->Instance->CCMR2 |= TIM_CCMR2_OC4PE;
 8001ac6:	6822      	ldr	r2, [r4, #0]
 8001ac8:	69d3      	ldr	r3, [r2, #28]
 8001aca:	f443 6300 	orr.w	r3, r3, #2048	; 0x800
 8001ace:	61d3      	str	r3, [r2, #28]
      htim->Instance->CCMR2 &= ~TIM_CCMR2_OC4FE;
 8001ad0:	6822      	ldr	r2, [r4, #0]
 8001ad2:	69d3      	ldr	r3, [r2, #28]
 8001ad4:	f423 6380 	bic.w	r3, r3, #1024	; 0x400
 8001ad8:	61d3      	str	r3, [r2, #28]
      htim->Instance->CCMR2 |= sConfig->OCFastMode << 8U;
 8001ada:	6822      	ldr	r2, [r4, #0]
 8001adc:	69d3      	ldr	r3, [r2, #28]
 8001ade:	6929      	ldr	r1, [r5, #16]
 8001ae0:	ea43 2301 	orr.w	r3, r3, r1, lsl #8
 8001ae4:	61d3      	str	r3, [r2, #28]
      break;
 8001ae6:	e7c0      	b.n	8001a6a <HAL_TIM_PWM_ConfigChannel+0x4e>
  __HAL_LOCK(htim);
 8001ae8:	2002      	movs	r0, #2
 8001aea:	e7c1      	b.n	8001a70 <HAL_TIM_PWM_ConfigChannel+0x54>

08001aec <TIM_CCxChannelCmd>:
  * @param  ChannelState specifies the TIM Channel CCxE bit new state.
  *          This parameter can be: TIM_CCx_ENABLE or TIM_CCx_DISABLE.
  * @retval None
  */
void TIM_CCxChannelCmd(TIM_TypeDef *TIMx, uint32_t Channel, uint32_t ChannelState)
{
 8001aec:	b410      	push	{r4}

  /* Check the parameters */
  assert_param(IS_TIM_CC1_INSTANCE(TIMx));
  assert_param(IS_TIM_CHANNELS(Channel));

  tmp = TIM_CCER_CC1E << (Channel & 0x1FU); /* 0x1FU = 31 bits max shift */
 8001aee:	f001 011f 	and.w	r1, r1, #31

  /* Reset the CCxE Bit */
  TIMx->CCER &= ~tmp;
 8001af2:	6a03      	ldr	r3, [r0, #32]
  tmp = TIM_CCER_CC1E << (Channel & 0x1FU); /* 0x1FU = 31 bits max shift */
 8001af4:	2401      	movs	r4, #1
 8001af6:	408c      	lsls	r4, r1
  TIMx->CCER &= ~tmp;
 8001af8:	ea23 0304 	bic.w	r3, r3, r4
 8001afc:	6203      	str	r3, [r0, #32]

  /* Set or reset the CCxE Bit */
  TIMx->CCER |= (uint32_t)(ChannelState << (Channel & 0x1FU)); /* 0x1FU = 31 bits max shift */
 8001afe:	6a03      	ldr	r3, [r0, #32]
 8001b00:	408a      	lsls	r2, r1
 8001b02:	431a      	orrs	r2, r3
 8001b04:	6202      	str	r2, [r0, #32]
}
 8001b06:	bc10      	pop	{r4}
 8001b08:	4770      	bx	lr
	...

08001b0c <HAL_TIM_PWM_Start>:
{
 8001b0c:	b510      	push	{r4, lr}
 8001b0e:	4604      	mov	r4, r0
  if (TIM_CHANNEL_STATE_GET(htim, Channel) != HAL_TIM_CHANNEL_STATE_READY)
 8001b10:	460b      	mov	r3, r1
 8001b12:	bb01      	cbnz	r1, 8001b56 <HAL_TIM_PWM_Start+0x4a>
 8001b14:	f890 203e 	ldrb.w	r2, [r0, #62]	; 0x3e
 8001b18:	b2d2      	uxtb	r2, r2
 8001b1a:	2a01      	cmp	r2, #1
 8001b1c:	d14c      	bne.n	8001bb8 <HAL_TIM_PWM_Start+0xac>
  TIM_CHANNEL_STATE_SET(htim, Channel, HAL_TIM_CHANNEL_STATE_BUSY);
 8001b1e:	2202      	movs	r2, #2
 8001b20:	f880 203e 	strb.w	r2, [r0, #62]	; 0x3e
  TIM_CCxChannelCmd(htim->Instance, Channel, TIM_CCx_ENABLE);
 8001b24:	2201      	movs	r2, #1
 8001b26:	4619      	mov	r1, r3
 8001b28:	6820      	ldr	r0, [r4, #0]
 8001b2a:	f7ff ffdf 	bl	8001aec <TIM_CCxChannelCmd>
  if (IS_TIM_BREAK_INSTANCE(htim->Instance) != RESET)
 8001b2e:	6823      	ldr	r3, [r4, #0]
 8001b30:	4a26      	ldr	r2, [pc, #152]	; (8001bcc <HAL_TIM_PWM_Start+0xc0>)
 8001b32:	4293      	cmp	r3, r2
 8001b34:	d02e      	beq.n	8001b94 <HAL_TIM_PWM_Start+0x88>
  if (IS_TIM_SLAVE_INSTANCE(htim->Instance))
 8001b36:	f1b3 4f80 	cmp.w	r3, #1073741824	; 0x40000000
 8001b3a:	d032      	beq.n	8001ba2 <HAL_TIM_PWM_Start+0x96>
 8001b3c:	4a24      	ldr	r2, [pc, #144]	; (8001bd0 <HAL_TIM_PWM_Start+0xc4>)
 8001b3e:	4293      	cmp	r3, r2
 8001b40:	d02f      	beq.n	8001ba2 <HAL_TIM_PWM_Start+0x96>
 8001b42:	f502 6280 	add.w	r2, r2, #1024	; 0x400
 8001b46:	4293      	cmp	r3, r2
 8001b48:	d02b      	beq.n	8001ba2 <HAL_TIM_PWM_Start+0x96>
    __HAL_TIM_ENABLE(htim);
 8001b4a:	681a      	ldr	r2, [r3, #0]
 8001b4c:	f042 0201 	orr.w	r2, r2, #1
 8001b50:	601a      	str	r2, [r3, #0]
  return HAL_OK;
 8001b52:	2000      	movs	r0, #0
 8001b54:	e02f      	b.n	8001bb6 <HAL_TIM_PWM_Start+0xaa>
  if (TIM_CHANNEL_STATE_GET(htim, Channel) != HAL_TIM_CHANNEL_STATE_READY)
 8001b56:	2904      	cmp	r1, #4
 8001b58:	d00a      	beq.n	8001b70 <HAL_TIM_PWM_Start+0x64>
 8001b5a:	2908      	cmp	r1, #8
 8001b5c:	d011      	beq.n	8001b82 <HAL_TIM_PWM_Start+0x76>
 8001b5e:	f890 2041 	ldrb.w	r2, [r0, #65]	; 0x41
 8001b62:	b2d2      	uxtb	r2, r2
 8001b64:	2a01      	cmp	r2, #1
 8001b66:	d12d      	bne.n	8001bc4 <HAL_TIM_PWM_Start+0xb8>
  TIM_CHANNEL_STATE_SET(htim, Channel, HAL_TIM_CHANNEL_STATE_BUSY);
 8001b68:	2202      	movs	r2, #2
 8001b6a:	f880 2041 	strb.w	r2, [r0, #65]	; 0x41
 8001b6e:	e7d9      	b.n	8001b24 <HAL_TIM_PWM_Start+0x18>
  if (TIM_CHANNEL_STATE_GET(htim, Channel) != HAL_TIM_CHANNEL_STATE_READY)
 8001b70:	f890 203f 	ldrb.w	r2, [r0, #63]	; 0x3f
 8001b74:	b2d2      	uxtb	r2, r2
 8001b76:	2a01      	cmp	r2, #1
 8001b78:	d120      	bne.n	8001bbc <HAL_TIM_PWM_Start+0xb0>
  TIM_CHANNEL_STATE_SET(htim, Channel, HAL_TIM_CHANNEL_STATE_BUSY);
 8001b7a:	2202      	movs	r2, #2
 8001b7c:	f880 203f 	strb.w	r2, [r0, #63]	; 0x3f
 8001b80:	e7d0      	b.n	8001b24 <HAL_TIM_PWM_Start+0x18>
  if (TIM_CHANNEL_STATE_GET(htim, Channel) != HAL_TIM_CHANNEL_STATE_READY)
 8001b82:	f890 2040 	ldrb.w	r2, [r0, #64]	; 0x40
 8001b86:	b2d2      	uxtb	r2, r2
 8001b88:	2a01      	cmp	r2, #1
 8001b8a:	d119      	bne.n	8001bc0 <HAL_TIM_PWM_Start+0xb4>
  TIM_CHANNEL_STATE_SET(htim, Channel, HAL_TIM_CHANNEL_STATE_BUSY);
 8001b8c:	2202      	movs	r2, #2
 8001b8e:	f880 2040 	strb.w	r2, [r0, #64]	; 0x40
 8001b92:	e7c7      	b.n	8001b24 <HAL_TIM_PWM_Start+0x18>
    __HAL_TIM_MOE_ENABLE(htim);
 8001b94:	6c53      	ldr	r3, [r2, #68]	; 0x44
 8001b96:	f443 4300 	orr.w	r3, r3, #32768	; 0x8000
 8001b9a:	6453      	str	r3, [r2, #68]	; 0x44
  if (IS_TIM_SLAVE_INSTANCE(htim->Instance))
 8001b9c:	6823      	ldr	r3, [r4, #0]
 8001b9e:	4293      	cmp	r3, r2
 8001ba0:	d1c9      	bne.n	8001b36 <HAL_TIM_PWM_Start+0x2a>
    tmpsmcr = htim->Instance->SMCR & TIM_SMCR_SMS;
 8001ba2:	689a      	ldr	r2, [r3, #8]
 8001ba4:	f002 0207 	and.w	r2, r2, #7
    if (!IS_TIM_SLAVEMODE_TRIGGER_ENABLED(tmpsmcr))
 8001ba8:	2a06      	cmp	r2, #6
 8001baa:	d00d      	beq.n	8001bc8 <HAL_TIM_PWM_Start+0xbc>
      __HAL_TIM_ENABLE(htim);
 8001bac:	681a      	ldr	r2, [r3, #0]
 8001bae:	f042 0201 	orr.w	r2, r2, #1
 8001bb2:	601a      	str	r2, [r3, #0]
  return HAL_OK;
 8001bb4:	2000      	movs	r0, #0
}
 8001bb6:	bd10      	pop	{r4, pc}
    return HAL_ERROR;
 8001bb8:	2001      	movs	r0, #1
 8001bba:	e7fc      	b.n	8001bb6 <HAL_TIM_PWM_Start+0xaa>
 8001bbc:	2001      	movs	r0, #1
 8001bbe:	e7fa      	b.n	8001bb6 <HAL_TIM_PWM_Start+0xaa>
 8001bc0:	2001      	movs	r0, #1
 8001bc2:	e7f8      	b.n	8001bb6 <HAL_TIM_PWM_Start+0xaa>
 8001bc4:	2001      	movs	r0, #1
 8001bc6:	e7f6      	b.n	8001bb6 <HAL_TIM_PWM_Start+0xaa>
  return HAL_OK;
 8001bc8:	2000      	movs	r0, #0
 8001bca:	e7f4      	b.n	8001bb6 <HAL_TIM_PWM_Start+0xaa>
 8001bcc:	40012c00 	.word	0x40012c00
 8001bd0:	40000400 	.word	0x40000400

08001bd4 <HAL_TIMEx_MasterConfigSynchronization>:
  assert_param(IS_TIM_MASTER_INSTANCE(htim->Instance));
  assert_param(IS_TIM_TRGO_SOURCE(sMasterConfig->MasterOutputTrigger));
  assert_param(IS_TIM_MSM_STATE(sMasterConfig->MasterSlaveMode));

  /* Check input state */
  __HAL_LOCK(htim);
 8001bd4:	f890 303c 	ldrb.w	r3, [r0, #60]	; 0x3c
 8001bd8:	2b01      	cmp	r3, #1
 8001bda:	d02b      	beq.n	8001c34 <HAL_TIMEx_MasterConfigSynchronization+0x60>
{
 8001bdc:	b430      	push	{r4, r5}
  __HAL_LOCK(htim);
 8001bde:	2301      	movs	r3, #1
 8001be0:	f880 303c 	strb.w	r3, [r0, #60]	; 0x3c

  /* Change the handler state */
  htim->State = HAL_TIM_STATE_BUSY;
 8001be4:	2302      	movs	r3, #2
 8001be6:	f880 303d 	strb.w	r3, [r0, #61]	; 0x3d

  /* Get the TIMx CR2 register value */
  tmpcr2 = htim->Instance->CR2;
 8001bea:	6804      	ldr	r4, [r0, #0]
 8001bec:	6863      	ldr	r3, [r4, #4]

  /* Get the TIMx SMCR register value */
  tmpsmcr = htim->Instance->SMCR;
 8001bee:	68a2      	ldr	r2, [r4, #8]

  /* Reset the MMS Bits */
  tmpcr2 &= ~TIM_CR2_MMS;
 8001bf0:	f023 0370 	bic.w	r3, r3, #112	; 0x70
  /* Select the TRGO source */
  tmpcr2 |=  sMasterConfig->MasterOutputTrigger;
 8001bf4:	680d      	ldr	r5, [r1, #0]
 8001bf6:	432b      	orrs	r3, r5

  /* Update TIMx CR2 */
  htim->Instance->CR2 = tmpcr2;
 8001bf8:	6063      	str	r3, [r4, #4]

  if (IS_TIM_SLAVE_INSTANCE(htim->Instance))
 8001bfa:	6803      	ldr	r3, [r0, #0]
 8001bfc:	4c0e      	ldr	r4, [pc, #56]	; (8001c38 <HAL_TIMEx_MasterConfigSynchronization+0x64>)
 8001bfe:	42a3      	cmp	r3, r4
 8001c00:	d00a      	beq.n	8001c18 <HAL_TIMEx_MasterConfigSynchronization+0x44>
 8001c02:	f1b3 4f80 	cmp.w	r3, #1073741824	; 0x40000000
 8001c06:	d007      	beq.n	8001c18 <HAL_TIMEx_MasterConfigSynchronization+0x44>
 8001c08:	f5a4 3494 	sub.w	r4, r4, #75776	; 0x12800
 8001c0c:	42a3      	cmp	r3, r4
 8001c0e:	d003      	beq.n	8001c18 <HAL_TIMEx_MasterConfigSynchronization+0x44>
 8001c10:	f504 6480 	add.w	r4, r4, #1024	; 0x400
 8001c14:	42a3      	cmp	r3, r4
 8001c16:	d104      	bne.n	8001c22 <HAL_TIMEx_MasterConfigSynchronization+0x4e>
  {
    /* Reset the MSM Bit */
    tmpsmcr &= ~TIM_SMCR_MSM;
 8001c18:	f022 0280 	bic.w	r2, r2, #128	; 0x80
    /* Set master mode */
    tmpsmcr |= sMasterConfig->MasterSlaveMode;
 8001c1c:	6849      	ldr	r1, [r1, #4]
 8001c1e:	430a      	orrs	r2, r1

    /* Update TIMx SMCR */
    htim->Instance->SMCR = tmpsmcr;
 8001c20:	609a      	str	r2, [r3, #8]
  }

  /* Change the htim state */
  htim->State = HAL_TIM_STATE_READY;
 8001c22:	2301      	movs	r3, #1
 8001c24:	f880 303d 	strb.w	r3, [r0, #61]	; 0x3d

  __HAL_UNLOCK(htim);
 8001c28:	2300      	movs	r3, #0
 8001c2a:	f880 303c 	strb.w	r3, [r0, #60]	; 0x3c

  return HAL_OK;
 8001c2e:	4618      	mov	r0, r3
}
 8001c30:	bc30      	pop	{r4, r5}
 8001c32:	4770      	bx	lr
  __HAL_LOCK(htim);
 8001c34:	2002      	movs	r0, #2
}
 8001c36:	4770      	bx	lr
 8001c38:	40012c00 	.word	0x40012c00

08001c3c <UART_SetConfig>:
  * @param  huart  Pointer to a UART_HandleTypeDef structure that contains
  *                the configuration information for the specified UART module.
  * @retval None
  */
static void UART_SetConfig(UART_HandleTypeDef *huart)
{
 8001c3c:	b510      	push	{r4, lr}
 8001c3e:	4604      	mov	r4, r0
  assert_param(IS_UART_MODE(huart->Init.Mode));

  /*-------------------------- USART CR2 Configuration -----------------------*/
  /* Configure the UART Stop Bits: Set STOP[13:12] bits
     according to huart->Init.StopBits value */
  MODIFY_REG(huart->Instance->CR2, USART_CR2_STOP, huart->Init.StopBits);
 8001c40:	6802      	ldr	r2, [r0, #0]
 8001c42:	6913      	ldr	r3, [r2, #16]
 8001c44:	f423 5340 	bic.w	r3, r3, #12288	; 0x3000
 8001c48:	68c1      	ldr	r1, [r0, #12]
 8001c4a:	430b      	orrs	r3, r1
 8001c4c:	6113      	str	r3, [r2, #16]
  MODIFY_REG(huart->Instance->CR1,
             (uint32_t)(USART_CR1_M | USART_CR1_PCE | USART_CR1_PS | USART_CR1_TE | USART_CR1_RE | USART_CR1_OVER8),
             tmpreg);
#else
  tmpreg = (uint32_t)huart->Init.WordLength | huart->Init.Parity | huart->Init.Mode;
  MODIFY_REG(huart->Instance->CR1,
 8001c4e:	6801      	ldr	r1, [r0, #0]
 8001c50:	68ca      	ldr	r2, [r1, #12]
  tmpreg = (uint32_t)huart->Init.WordLength | huart->Init.Parity | huart->Init.Mode;
 8001c52:	6883      	ldr	r3, [r0, #8]
 8001c54:	6900      	ldr	r0, [r0, #16]
 8001c56:	4303      	orrs	r3, r0
 8001c58:	6960      	ldr	r0, [r4, #20]
 8001c5a:	4303      	orrs	r3, r0
  MODIFY_REG(huart->Instance->CR1,
 8001c5c:	f422 52b0 	bic.w	r2, r2, #5632	; 0x1600
 8001c60:	f022 020c 	bic.w	r2, r2, #12
 8001c64:	4313      	orrs	r3, r2
 8001c66:	60cb      	str	r3, [r1, #12]
             tmpreg);
#endif /* USART_CR1_OVER8 */

  /*-------------------------- USART CR3 Configuration -----------------------*/
  /* Configure the UART HFC: Set CTSE and RTSE bits according to huart->Init.HwFlowCtl value */
  MODIFY_REG(huart->Instance->CR3, (USART_CR3_RTSE | USART_CR3_CTSE), huart->Init.HwFlowCtl);
 8001c68:	6822      	ldr	r2, [r4, #0]
 8001c6a:	6953      	ldr	r3, [r2, #20]
 8001c6c:	f423 7340 	bic.w	r3, r3, #768	; 0x300
 8001c70:	69a1      	ldr	r1, [r4, #24]
 8001c72:	430b      	orrs	r3, r1
 8001c74:	6153      	str	r3, [r2, #20]


  if(huart->Instance == USART1)
 8001c76:	6822      	ldr	r2, [r4, #0]
 8001c78:	4b10      	ldr	r3, [pc, #64]	; (8001cbc <UART_SetConfig+0x80>)
 8001c7a:	429a      	cmp	r2, r3
 8001c7c:	d01a      	beq.n	8001cb4 <UART_SetConfig+0x78>
  {
    pclk = HAL_RCC_GetPCLK2Freq();
  }
  else
  {
    pclk = HAL_RCC_GetPCLK1Freq();
 8001c7e:	f7ff fcff 	bl	8001680 <HAL_RCC_GetPCLK1Freq>
  else
  {
    huart->Instance->BRR = UART_BRR_SAMPLING16(pclk, huart->Init.BaudRate);
  }
#else
  huart->Instance->BRR = UART_BRR_SAMPLING16(pclk, huart->Init.BaudRate);
 8001c82:	eb00 0080 	add.w	r0, r0, r0, lsl #2
 8001c86:	eb00 0080 	add.w	r0, r0, r0, lsl #2
 8001c8a:	6863      	ldr	r3, [r4, #4]
 8001c8c:	009b      	lsls	r3, r3, #2
 8001c8e:	fbb0 f3f3 	udiv	r3, r0, r3
 8001c92:	6824      	ldr	r4, [r4, #0]
 8001c94:	480a      	ldr	r0, [pc, #40]	; (8001cc0 <UART_SetConfig+0x84>)
 8001c96:	fba0 2103 	umull	r2, r1, r0, r3
 8001c9a:	0949      	lsrs	r1, r1, #5
 8001c9c:	2264      	movs	r2, #100	; 0x64
 8001c9e:	fb02 3311 	mls	r3, r2, r1, r3
 8001ca2:	011b      	lsls	r3, r3, #4
 8001ca4:	3332      	adds	r3, #50	; 0x32
 8001ca6:	fba0 2303 	umull	r2, r3, r0, r3
 8001caa:	0109      	lsls	r1, r1, #4
 8001cac:	eb01 1353 	add.w	r3, r1, r3, lsr #5
 8001cb0:	60a3      	str	r3, [r4, #8]
#endif /* USART_CR1_OVER8 */
}
 8001cb2:	bd10      	pop	{r4, pc}
    pclk = HAL_RCC_GetPCLK2Freq();
 8001cb4:	f7ff fcf4 	bl	80016a0 <HAL_RCC_GetPCLK2Freq>
 8001cb8:	e7e3      	b.n	8001c82 <UART_SetConfig+0x46>
 8001cba:	bf00      	nop
 8001cbc:	40013800 	.word	0x40013800
 8001cc0:	51eb851f 	.word	0x51eb851f

08001cc4 <HAL_UART_Init>:
  if (huart == NULL)
 8001cc4:	b358      	cbz	r0, 8001d1e <HAL_UART_Init+0x5a>
{
 8001cc6:	b510      	push	{r4, lr}
 8001cc8:	4604      	mov	r4, r0
  if (huart->gState == HAL_UART_STATE_RESET)
 8001cca:	f890 3039 	ldrb.w	r3, [r0, #57]	; 0x39
 8001cce:	b30b      	cbz	r3, 8001d14 <HAL_UART_Init+0x50>
  huart->gState = HAL_UART_STATE_BUSY;
 8001cd0:	2324      	movs	r3, #36	; 0x24
 8001cd2:	f884 3039 	strb.w	r3, [r4, #57]	; 0x39
  __HAL_UART_DISABLE(huart);
 8001cd6:	6822      	ldr	r2, [r4, #0]
 8001cd8:	68d3      	ldr	r3, [r2, #12]
 8001cda:	f423 5300 	bic.w	r3, r3, #8192	; 0x2000
 8001cde:	60d3      	str	r3, [r2, #12]
  UART_SetConfig(huart);
 8001ce0:	4620      	mov	r0, r4
 8001ce2:	f7ff ffab 	bl	8001c3c <UART_SetConfig>
  CLEAR_BIT(huart->Instance->CR2, (USART_CR2_LINEN | USART_CR2_CLKEN));
 8001ce6:	6822      	ldr	r2, [r4, #0]
 8001ce8:	6913      	ldr	r3, [r2, #16]
 8001cea:	f423 4390 	bic.w	r3, r3, #18432	; 0x4800
 8001cee:	6113      	str	r3, [r2, #16]
  CLEAR_BIT(huart->Instance->CR3, (USART_CR3_SCEN | USART_CR3_HDSEL | USART_CR3_IREN));
 8001cf0:	6822      	ldr	r2, [r4, #0]
 8001cf2:	6953      	ldr	r3, [r2, #20]
 8001cf4:	f023 032a 	bic.w	r3, r3, #42	; 0x2a
 8001cf8:	6153      	str	r3, [r2, #20]
  __HAL_UART_ENABLE(huart);
 8001cfa:	6822      	ldr	r2, [r4, #0]
 8001cfc:	68d3      	ldr	r3, [r2, #12]
 8001cfe:	f443 5300 	orr.w	r3, r3, #8192	; 0x2000
 8001d02:	60d3      	str	r3, [r2, #12]
  huart->ErrorCode = HAL_UART_ERROR_NONE;
 8001d04:	2000      	movs	r0, #0
 8001d06:	63e0      	str	r0, [r4, #60]	; 0x3c
  huart->gState = HAL_UART_STATE_READY;
 8001d08:	2320      	movs	r3, #32
 8001d0a:	f884 3039 	strb.w	r3, [r4, #57]	; 0x39
  huart->RxState = HAL_UART_STATE_READY;
 8001d0e:	f884 303a 	strb.w	r3, [r4, #58]	; 0x3a
}
 8001d12:	bd10      	pop	{r4, pc}
    huart->Lock = HAL_UNLOCKED;
 8001d14:	f880 3038 	strb.w	r3, [r0, #56]	; 0x38
    HAL_UART_MspInit(huart);
 8001d18:	f7fe ff3e 	bl	8000b98 <HAL_UART_MspInit>
 8001d1c:	e7d8      	b.n	8001cd0 <HAL_UART_Init+0xc>
    return HAL_ERROR;
 8001d1e:	2001      	movs	r0, #1
}
 8001d20:	4770      	bx	lr
	...

08001d24 <__libc_init_array>:
 8001d24:	b570      	push	{r4, r5, r6, lr}
 8001d26:	2600      	movs	r6, #0
 8001d28:	4d0c      	ldr	r5, [pc, #48]	; (8001d5c <__libc_init_array+0x38>)
 8001d2a:	4c0d      	ldr	r4, [pc, #52]	; (8001d60 <__libc_init_array+0x3c>)
 8001d2c:	1b64      	subs	r4, r4, r5
 8001d2e:	10a4      	asrs	r4, r4, #2
 8001d30:	42a6      	cmp	r6, r4
 8001d32:	d109      	bne.n	8001d48 <__libc_init_array+0x24>
 8001d34:	f000 f834 	bl	8001da0 <_init>
 8001d38:	2600      	movs	r6, #0
 8001d3a:	4d0a      	ldr	r5, [pc, #40]	; (8001d64 <__libc_init_array+0x40>)
 8001d3c:	4c0a      	ldr	r4, [pc, #40]	; (8001d68 <__libc_init_array+0x44>)
 8001d3e:	1b64      	subs	r4, r4, r5
 8001d40:	10a4      	asrs	r4, r4, #2
 8001d42:	42a6      	cmp	r6, r4
 8001d44:	d105      	bne.n	8001d52 <__libc_init_array+0x2e>
 8001d46:	bd70      	pop	{r4, r5, r6, pc}
 8001d48:	f855 3b04 	ldr.w	r3, [r5], #4
 8001d4c:	4798      	blx	r3
 8001d4e:	3601      	adds	r6, #1
 8001d50:	e7ee      	b.n	8001d30 <__libc_init_array+0xc>
 8001d52:	f855 3b04 	ldr.w	r3, [r5], #4
 8001d56:	4798      	blx	r3
 8001d58:	3601      	adds	r6, #1
 8001d5a:	e7f2      	b.n	8001d42 <__libc_init_array+0x1e>
 8001d5c:	08001e04 	.word	0x08001e04
 8001d60:	08001e04 	.word	0x08001e04
 8001d64:	08001e04 	.word	0x08001e04
 8001d68:	08001e08 	.word	0x08001e08

08001d6c <memset>:
 8001d6c:	4603      	mov	r3, r0
 8001d6e:	4402      	add	r2, r0
 8001d70:	4293      	cmp	r3, r2
 8001d72:	d100      	bne.n	8001d76 <memset+0xa>
 8001d74:	4770      	bx	lr
 8001d76:	f803 1b01 	strb.w	r1, [r3], #1
 8001d7a:	e7f9      	b.n	8001d70 <memset+0x4>

08001d7c <strncmp>:
 8001d7c:	b510      	push	{r4, lr}
 8001d7e:	b16a      	cbz	r2, 8001d9c <strncmp+0x20>
 8001d80:	3901      	subs	r1, #1
 8001d82:	1884      	adds	r4, r0, r2
 8001d84:	f810 3b01 	ldrb.w	r3, [r0], #1
 8001d88:	f811 2f01 	ldrb.w	r2, [r1, #1]!
 8001d8c:	4293      	cmp	r3, r2
 8001d8e:	d103      	bne.n	8001d98 <strncmp+0x1c>
 8001d90:	42a0      	cmp	r0, r4
 8001d92:	d001      	beq.n	8001d98 <strncmp+0x1c>
 8001d94:	2b00      	cmp	r3, #0
 8001d96:	d1f5      	bne.n	8001d84 <strncmp+0x8>
 8001d98:	1a98      	subs	r0, r3, r2
 8001d9a:	bd10      	pop	{r4, pc}
 8001d9c:	4610      	mov	r0, r2
 8001d9e:	e7fc      	b.n	8001d9a <strncmp+0x1e>

08001da0 <_init>:
 8001da0:	b5f8      	push	{r3, r4, r5, r6, r7, lr}
 8001da2:	bf00      	nop
 8001da4:	bcf8      	pop	{r3, r4, r5, r6, r7}
 8001da6:	bc08      	pop	{r3}
 8001da8:	469e      	mov	lr, r3
 8001daa:	4770      	bx	lr

08001dac <_fini>:
 8001dac:	b5f8      	push	{r3, r4, r5, r6, r7, lr}
 8001dae:	bf00      	nop
 8001db0:	bcf8      	pop	{r3, r4, r5, r6, r7}
 8001db2:	bc08      	pop	{r3}
 8001db4:	469e      	mov	lr, r3
 8001db6:	4770      	bx	lr
